(dp1
S'description'
p2
S'TEXT'
p3
sS'title'
p4
S'CHAR(512)'
p5
sS'app'
p6
S'CHAR(512)'
p7
sS'keywords'
p8
S'CHAR(512)'
p9
sS'id'
p10
S'INTEGER PRIMARY KEY AUTOINCREMENT'
p11
sS'name'
p12
S'CHAR(512)'
p13
s.