(dp1
S'name'
p2
S'CHAR(512)'
p3
sS'group_name'
p4
S'CHAR(512)'
p5
sS'searchable_through'
p6
S'TEXT'
p7
sS'data'
p8
S'TEXT'
p9
sS'id'
p10
S'INTEGER PRIMARY KEY AUTOINCREMENT'
p11
sS'block'
p12
S'CHAR(512)'
p13
s.