(dp1
S'registration_id'
p2
S'CHAR(512)'
p3
sS'last_name'
p4
S'CHAR(512)'
p5
sS'display_name'
p6
S'CHAR(512)'
p7
sS'is_anonymous'
p8
S'CHAR(1)'
p9
sS'first_name'
p10
S'CHAR(512)'
p11
sS'email'
p12
S'CHAR(512)'
p13
sS'reset_password_key'
p14
S'CHAR(512)'
p15
sS'is_admin'
p16
S'CHAR(1)'
p17
sS'password'
p18
S'CHAR(512)'
p19
sS'registration_key'
p20
S'CHAR(512)'
p21
sS'id'
p22
S'INTEGER PRIMARY KEY AUTOINCREMENT'
p23
s.