(dp1
S'NAME'
p2
S'CHAR(512)'
p3
sS'MAIL_SETTINGS_SERVER'
p4
S'CHAR(512)'
p5
sS'MAIL_SETTINGS_LOGIN'
p6
S'CHAR(512)'
p7
sS'GDATA_API_CONSUMER_KEY'
p8
S'CHAR(512)'
p9
sS'GDATA_API_SIG_METHOD'
p10
S'CHAR(512)'
p11
sS'GDATA_API_CONSUMER_SECRET'
p12
S'CHAR(512)'
p13
sS'id'
p14
S'INTEGER PRIMARY KEY AUTOINCREMENT'
p15
sS'MAIL_SETTINGS_SENDER'
p16
S'CHAR(512)'
p17
s.