(dp1
S'output'
p2
S''
sS'layer'
p3
S'/home/herve/development/workspaces/molhokwai.net/web/applications/cms/controllers/media.py'
p4
sS'code'
p5
S'from types import *\n\n###################################\n## CONTROLLER INITIALIZATION\n###################################    \ntry:\n    exec(\'from applications.%s.modules import common\' % this_app)\n    app_objects=Struct(**{\'details\':app_details,\'config\':app_config,\'log_wrapped\':log_wrapped,\'utilities\':utilities})\n    page_helper, post_helper = common.controller_init(request, response, session, cache, T, db, auth, app_objects)\nexcept Exception, ex:\n    log_wrapped(\'Er\', ex)\n\n# media_photos module\nexec(\'from applications.%s.modules import media_photos\' % this_app)\n\n# blogger module, Blogger class\nexec(\'from applications.%s.modules.blogger import Blogger\' % this_app)\n\n###################################\n## CONTROLLER FUNCTIONS\n###################################    \n\n# The main page\ndef index():\n    redirect(URL(r=request, f=\'picasa\', args=\'gallery\'))\n    return dict(nake=None)\n\n# Picasa\ndef picasa():\n    area = \'gallery\'\n    if len(request.args)>0:\n        area=request.args[0]\n\n    try:\n        picasa_manager = media_photos.Manage(app_config)\n        if auth.user and auth.user.is_admin:\n            if area in [\'upload\', \'albums\', \'add\', \'edit\', \'delete\'] and not session.gdata_user:\n                session.redirect_url=URL(r=request, f=\'picasa\', args=[area])\n                redirect(URL(r=request, f=\'picasa\', args=[\'login\']))\n            else:\n                picasa_manager = media_photos.Manage(app_config, gdata_user=None, session=session)\n        \n            if area == \'login\':\n                form=FORM(INPUT(_type=\'email\', _name=\'email\', value=auth.user.email),\n                            INPUT(_type=\'password\', _name=\'password\'),\n                            INPUT(_type=\'submit\', _value=T(\'submit\'))\n                )\n                if form.accepts(request.vars, session):\n                    try:\n                        gdata_user={\n                            \'email\' : request.vars.email,\n                            \'password\' : request.vars.password\n                        }\n                        # programmatic login encapsulated in construction\n                        media_photos.Manage(app_config, gdata_user=gdata_user)\n                        session.gdata_user=gdata_user\n        \n                        session.flash = T(\'Login successfull\')\n                        if session.redirect_url:\n                            redirect(session.redirect_url)\n                        else:\n                            redirect(URL(r=request, args=[\'albums\']))\n                    except Exception, ex:\n                        log_wrapped(\'Error\', ex)\n                return dict(nake=None, area=area, form=form, item=\'user\')\n                \n            if area in [\'add\', \'edit\', \'delete\', \'upload\']:\n                # item : album || picture\n                item=request.args[1]\n    \n                if item==\'album\':\n                    if area == \'add\':\n        \n                        form=FORM(DIV(INPUT(_type=\'text\', _name=\'title\'), \n                                        TEXTAREA(_name=\'summary\'),\n                                        INPUT(_type=\'submit\', _value=T(\'submit\'))\n                                      )\n                                )\n                        if form.accepts(request.vars, session):\n                            if area == \'add\':\n                                try:\n                                    album = picasa_manager.client.InsertAlbum(title=request.vars.title, summary=request.vars.summary)\n                                    session.flash = T(\'Album successfully added\')\n                                    redirect(URL(r=request, args=[\'albums\']))\n                                except Exception, ex:\n                                    log_wrapped(\'Error\', ex)\n                                    response.flash = T(\'An error occured: %(error)s. You can retry or contact the administrator\', dict(error=str(ex)))\n        \n                        return dict(nake=None, area=area, form=form, item=item)\n        \n                    elif area == \'edit\':\n                        album_id=request.args[2]\n                        album_feed=picasa_manager.get_album_by_id(album_id)\n                        album_photos=picasa_manager.get_album_photos(\n                                            album_id, \n                                            username=session.gdata_user[\'email\'].replace(\'@gmail.com\', \'\'), \n                                            limit=10\n                                            )\n        \n                        form=FORM(DIV(INPUT(_type=\'text\', _name=\'title\', _value=album_feed.title.text), \n                                        TEXTAREA(_name=\'summary\',  value=album_feed.summary.text),\n                                        INPUT(_type=\'submit\', _value=T(\'submit\'))\n                                      )\n                                )\n                        if form.accepts(request.vars, session):\n                                try:\n                                    album_feed.title.text=request.vars.title\n                                    album_feed.summary.text=request.vars.summary\n                \n                                    updated_album = picasa_manager.client.Put(album_feed, album_feed.GetEditLink().href, converter=gdata.photos.AlbumEntryFromString)\n                                    session.flash = T(\'Album successfully updated\')\n                                    redirect(URL(r=request, args=[\'albums\']))\n                                except Exception, ex:\n                                    log_wrapped(\'Error\', ex)\n                                    response.flash = T(\'An error occured: %(error)s. You can retry or contact the administrator\', dict(error=str(ex)))\n        \n                        return dict(nake=None, area=area, form=form, item=item, album=album_photos, album_id=album_id)\n        \n                    elif area == \'delete\':\n                        album_id=request.args[2]\n                        album_feed=picasa_manager.get_album_by_id(album_id)\n                        album_photos=picasa_manager.get_album_photos(\n                                          album_id, \n                                          username=session.gdata_user[\'email\'].replace(\'@gmail.com\', \'\'), \n                                          limit=10\n                                          )\n        \n                        form=FORM(DIV(INPUT(_type=\'text\', _name=\'title\', _value=album_feed.title.text), \n                                        TEXTAREA(_name=\'summary\',  value=album_feed.summary.text),\n                                        INPUT(_type=\'submit\', _value=T(\'delete\'))\n                                      )\n                                )\n                        if form.accepts(request.vars, session):\n                            try:\n                                picasa_manager.client.Delete(album_feed)\n                                session.flash = T(\'Album deleted\')\n                                redirect(URL(r=request, args=[\'albums\']))\n                            except Exception, ex:\n                                log_wrapped(\'Error\', ex)\n                                response.flash = T(\'An error occured: %(error)s. You can retry or contact the administrator\', dict(error=str(ex)))\n        \n                        return dict(nake=None, area=area, form=form, item=item, album=album_photos, album_id=album_id)\n    \n                elif item==\'picture\':\n    \n                    if area == \'upload\':\n                        upload_nr=5\n                        album_id=request.args[2]\n                        album_url = \'/data/feed/api/user/%s/albumid/%s\' % (session.gdata_user[\'email\'], album_id)\n        \n                        form=FORM()\n                        for i in range(upload_nr):\n                            form.append(DIV(INPUT(_type=\'file\', _name=\'file_%i\' % i), \n                                            INPUT(_type=\'text\', _name=\'title_%i\' % i))\n                            )\n                        form.append(INPUT(_type=\'submit\', _value=T(\'submit\')))\n                        if form.accepts(request.vars, session):\n                            import gluon.contenttype as contenttype\n                            _exceptions=[]\n                            _file_tuples=[]\n                            for i in range(upload_nr):\n                                _file,filename,filetitle=None,\'\',\'\'\n                                for v in request.post_vars:\n                                    if v==\'file_%i\' % i:\n                                        try: \n                                            _file=request.post_vars[v].file\n                                            filename=request.post_vars[v].filename\n                                        except Exception, ex: log_wrapped(\'exception\', ex)\n    \n                                    elif v==\'title_%i\' % i:\n                                        filetitle=request.post_vars[v]\n    \n                                if _file:\n                                    if not filetitle:\n                                        if filename.find(\'\\\\\')>0: f_n_s=filename.split(\'\\\\\')\n                                        else: f_n_s=filename.split(\'/\')\n                                        filetitle=f_n_s[len(f_n_s)-1]\n                                    _file_tuples.append((_file, filename, filetitle))\n    \n                            for i in range(len(_file_tuples)):\n                                try:\n                                    photo = picasa_manager.client.InsertPhotoSimple(album_url, _file_tuples[i][2],\n                                                                    \'Uploaded using the API\', _file_tuples[i][0], \n                                                                    content_type=contenttype.contenttype(_file_tuples[i][1]))\n                                except Exception, ex:\n                                    _exceptions.append(ex)\n                                    \n                            if len(_exceptions)>0:\n                                response.flash=T(\'There were %i errors during the upload(s): %s\' % (len(_exceptions), str(_exceptions)))\n                                log_wrapped(\'exceptions\', str(_exceptions))\n                            else:\n                                redirect(URL(r=request, f=\'picasa\', args=[\'album\', album_id]))\n        \n                        return dict(nake=None, area=area, form=form, item=item)\n    \n                    elif area == \'edit\':\n                        photo_id, album_id=request.args[2], request.args[3]\n                        photo=picasa_manager.get_album_photo_by_id(\n                                            album_id, photo_id, \n                                            username=session.gdata_user[\'email\'].replace(\'@gmail.com\', \'\'), \n                                            raw_feed=True\n                                            )\n                        picasa_manager.initialize_photo_metadata(photo)\n        \n                        form=FORM(\n                                DIV(LABEL(T(\'title\')), INPUT(_type=\'text\', _name=\'title\', _value=photo.title.text)),\n                                DIV(LABEL(T(\'summary\')), TEXTAREA(_name=\'summary\', value=photo.summary.text)),\n                                DIV(LABEL(T(\'keywords\')), INPUT(_type=\'text\', _name=\'keywords\', _value=photo.media.keywords.text)),\n                                DIV(LABEL(XML(\'&nbsp;\')), INPUT(_type=\'submit\', _value=T(\'submit\')))\n                            )\n                        if form.accepts(request.vars, session):\n                            try:\n                                photo.title.text = request.vars.title\n                                photo.summary.text = request.vars.summary\n                                photo.media.keywords.text = request.vars.keywords\n                                updated_photo = picasa_manager.client.UpdatePhotoMetadata(photo)\n                                \n                                session.flash = T(\'Photo successfully updated\')\n                                redirect(URL(r=request, args=[\'edit\', \'album\', album_id]))\n                            except Exception, ex:\n                                log_wrapped(\'Error\', ex)\n                                response.flash = T(\'An error occured: %(error)s. You can retry or contact the administrator\', dict(error=str(ex)))\n    \n                        return dict(nake=None, area=area, form=form, item=item, photo=photo)\n        \n                    elif area == \'delete\':                        \n                        photo_id, album_id=request.args[2], request.args[3]\n                        photo=picasa_manager.get_album_photo_by_id(\n                                            album_id, photo_id, \n                                            username=session.gdata_user[\'email\'].replace(\'@gmail.com\', \'\'), \n                                            raw_feed=True\n                                            )\n                        form=FORM(\n                                DIV(LABEL(T(\'title\')), INPUT(_type=\'text\', _name=\'title\', _value=photo.title.text)),\n                                DIV(LABEL(T(\'summary\')), TEXTAREA(_name=\'summary\', value=photo.summary.text)),\n                                DIV(LABEL(T(\'keywords\')), INPUT(_type=\'text\', _name=\'keywords\', _value=photo.media.keywords.text)),\n                                DIV(LABEL(XML(\'&nbsp;\')), INPUT(_type=\'submit\', _value=T(\'delete\')))\n                            )\n                        if form.accepts(request.vars, session):\n                            try:\n                                picasa_manager.client.Delete(photo)\n                                session.flash = T(\'Photo deleted\')\n                                redirect(URL(r=request, args=[\'edit\', \'album\', album_id]))\n                            except Exception, ex:\n                                log_wrapped(\'Error\', ex)\n                                response.flash = T(\'An error occured: %(error)s. You can retry or contact the administrator\', dict(error=str(ex)))\n    \n                        return dict(nake=None, area=area, form=form, item=item, photo=photo)\n    \n    \n            elif area == \'albums\':\n                albums_feed=picasa_manager.get_albums_feed()\n                \n                form=DIV()\n                albums=TABLE(TR(TH(T(\'title\')), TH(T(\'nr of pictures\')), TH(), TH(), TH(), TH()))\n                for entry in albums_feed:\n                    albums.append(TR(\n                                        TD(entry.title.text),\n                                        TD(entry.numphotos.text),\n                                        TD(A(T(\'view\'), _href=URL(r=request, args=[\'album\', entry.gphoto_id.text]))), \n                                        TD( A(T(\'edit\'), _href=URL(r=request, args=[\'edit\', \'album\', entry.gphoto_id.text]))),\n                                        TD( A(T(\'delete\'), _href=URL(r=request, args=[\'delete\', \'album\', entry.gphoto_id.text]))),\n                                        TD( A(T(\'upload to\'), _href=URL(r=request, args=[\'upload\', \'picture\',  entry.gphoto_id.text]))),\n                                    )\n                            )\n                form.append(A(T(\'add\'), _class=\'display-block width100pc text-alignr\', _href=URL(r=request, args=[\'add\', \'album\'])))\n                form.append(albums)\n                return dict(nake=None, area=area, form=form, item=None)\n    \n    ## PUBLIC SECTION\n        if area == \'gallery\':\n            recent=picasa_manager.get_recent_photos()\n            gallery=picasa_manager.get_album_gallery()\n            return dict(nake=None, area=area, item=None, recent=recent, gallery=gallery)\n            \n        if area == \'album\':\n            album_id=request.args[1]\n            album=picasa_manager.get_album_photos(album_id)\n            return dict(nake=None, area=area, item=None, album=album, album_id=album_id)\n            \n        elif area == \'slideshow\':\n            album_id=request.args[1]\n            album=picasa_manager.get_album_photos(album_id)\n            if not session.current_photo or int(session.current_photo)>len(album)-1:\n                session.current_photo=0\n            photo=album[int(session.current_photo)]\n            session.current_photo+=1\n            response.refresh=\'<meta http-equiv="refresh" content="%i;%s" />\' % (2, URL(r=request, args=[\'slideshow\', album_id]))\n            return dict(nake=True, area=area, item=None, photo=photo, album_id=album_id)\n    \n    except Exception, ex:\n        log_wrapped(\'Exception\', ex)\n        if str(ex).lower().find(\'unknown user\')>=0:\n            session.flash = T(\'User is unknown by the Google Photos (Picasa) Service. User must be registered there: %(picasa_link)s\', \n                                dict(picasa_link=\'http://picasaweb.google.com\'))\n        if str(ex).lower().find(\'captcha required\')>=0:\n            session.flash = T(\'User credentials are unknown to the Google Photos (Picasa) Service. User should be modified by an administrator, in service setup.\')\n        redirect(URL(r=request, c=\'default\', f=\'error\'))\n\ndef social():\n    area = \'twitter\'\n    sub_area=None\n    _items=[]\n    if request.args[0] == \'twitter\' or request.args[0] == \'twitter.json\':\n        exec(\'from applications.%s.modules import twitter\' % request.application)\n        try:\n            if len(request.args)>1:\n                sub_area = request.args[1]\n                if sub_area == \'user\':\n                    api_config=db(db.app_config.id>0).select()[0].TWITTER_API\n                    _username=api_config[0]\n                    twitter = twitter.Manager(_username)\n                    _items = twitter.get_user_tweets()\n                    if type(_items)==DictType and \'error\' in _items:\n                        _items=[_items[\'request\'], _items[\'error\']]\n        except Exception, ex:\n            log_wrapped(\'Error\', ex)\n            if str(ex).lower().find(str(\'No JSON object could be decoded\').lower())>=0:\n                response.flash=T(\'No tweets for username and/or hash found (error: %(err)s)\', dict(err=str(ex)))\n            else:\n                response.flash=T(\'Error occured: : %(err)s\', dict(err=str(ex)))\n\n    return dict(nake=False, area=area, sub_area=sub_area, items=_items)\n\ndef twitter():\n    api_config=db(db.app_config.id>0).select()[0].TWITTER_API\n    _username = api_config[0]\n    _hashes, _filters = api_config[2], api_config[3]\n    _filter = \'#%s %s\' % (\' \'.join(_filters.split(\',\')), \' #\'.join(_hashes.split(\',\')))\n\n    exec(\'from applications.%s.modules import twitter\' % request.application)\n    twitter = twitter.Manager(_username)\n    _items = twitter.search_tweets(_hashes)\n\n    import gluon.contrib.simplejson as simplejson\n    return simplejson.dumps(_items)\n\ndef blogger():\n    """UTILITIES"""\n    def blogger_languages_get():\n        c = utilities.get_cookie(\'blogger_languages\')\n        if c:\n            return c.value\n        elif session.blogger_languages:\n            return session.blogger_languages\n        else:\n            return \',\'.join(T.current_languages)\n            \n    def themes_cookie_redirect():\n        if request.vars.blogger_themes:\n            utilities.set_cookie(\'blogger_themes\', request.vars.blogger_themes)\n            session.blogger_themes = request.vars.blogger_themes\n            redirect(URL(r = request, f = \'blogger\', args = [\'themes\', request.vars.blogger_themes]))\n            return True\n        else:\n            return False\n            \n    """FUNCTION OUTPUT"""\n    if (not app_config.BLOGGER_API or not app_config.BLOGGER_BLOGS_THEMES or not app_config.BLOGGER_BLOGS_LANGUAGES\n        or not len(app_config.BLOGGER_API)>0 or not len(app_config.BLOGGER_BLOGS_THEMES)>0 or not len(app_config.BLOGGER_BLOGS_LANGUAGES)>0):\n        response.flash = T(\'Blogger api credentials and config data not set in setup.\')\n        return dict(area = \'\', nake = False)\n\n    else:\n        retry = False\n        _Blogger = None\n        while(retry):\n            try :\n                _Blogger = Blogger(app_config.BLOGGER_API, app_config.BLOGGER_BLOGS_THEMES, \n                                  app_config.BLOGGER_BLOGS_LANGUAGES, blogs = blogger_blogs_data())\n            except Exception, ex:\n                retry = str(ex).find(\'104\')>=0 and str(ex).find(\'Connection reset by peer\')>=0\n                log_wrapped(\'Err\', ex)\n        area = request.args[0]\n        \n        if area in [\'themes_choice\']:\n            themes = []\n            session.blogger_languages = blogger_languages_get()\n            blogger_languages = session.blogger_languages.split(\',\')\n            \n            form = FORM()\n            for lang in T.current_languages:\n                form.append(DIV(INPUT(_type="checkbox", _name=lang, \n                                _value="on" if lang in blogger_languages else "off", \n                                _checked=lang in blogger_languages),\n                                LABEL(lang, _class="minw0"), \n                                _id="%s_div"%lang,  _class="left"))\n            form.append(INPUT(_type="submit", _value=T(\'Submit\')))\n            if form.accepts(request.vars, session):\n                blogger_languages = []\n                for lang in T.current_languages:\n                    log_wrapped(\'form.vars[%s]\'%lang, repr(form.vars[lang]))\n                    if form.vars[lang] and form.vars[lang] == "on":\n                        blogger_languages.append(form.vars[lang].value)\n                    session.blogger_languages = \',\'.join(blogger_languages)\n                    log_wrapped(\'session.blogger_languages\', session.blogger_languages)\n                    \n            if not themes_cookie_redirect():\n                themes = [(_themes, \'/%s/media/blogger/themes/%s\' % (this_app, _themes)) for _themes in _Blogger.themes_by_languages(blogger_languages)]\n            return dict(area = area, nake = False, form = form, themes = themes)\n            \n        elif area in [\'themes\']:\n            form = FORM(_class="right width50pc")\n            lang_id_prefix = "languages_"\n            for lang in T.current_languages:\n                form.append(INPUT(_type=\'checkbox\', _name="languages", id=lang_id_prefix+lang, \n                            _checked=lang in session.blogger_languages if session.blogger_languages else False,\n                            _class="left"))\n            form.append(INPUT(_type=\'submit\', _value=T(\'Submit\'), _class="left"))\n            form.append(DIV(_class="clear"))\n            \n            if form.accepts(request.vars, session):\n                langs = []\n                for lang in T.current_languages:\n                    # exec "val = request.vars.%s" % (lang_id_prefix+lang)\n                    if val.lower() == "on":\n                      langs.append(val)\n                if len(langs)==0:\n                    response.flash = T(\'At least one language required.\')\n                else:\n                    utilities.set_cookie(\'blogger_languages\', \',\'.join(langs))\n                    session.flash = T(\'Language(s) set.\')\n                    redirect(URL(r = request))\n                \n            blogger_languages_set()\n            \n            tags = []\n            if len(request.args)<2:\n                if not session.blogger_themes:\n                    if request.cookies.has_key(\'blogger_themes\'):\n                        session.blogger_themes = request.cookies[\'blogger_themes\'].value\n                        \n                    elif not themes_cookie_redirect():\n                        redirect(URL(r = request, f = \'blogger\', args = [\'themes_choice\']))\n            else:\n                session.blogger_themes = request.args[1]\n                \n            if session.blogger_themes:\n                tags = [{_themes : (_tags, \'/%s/media/blogger/tags/%s\' % (this_app, \'-\'.join(_tags)))} \n                                            for _tags in _Blogger.tags_by_themes(session.blogger_themes.split(\'-\'))]\n            return dict(area = area, nake = False, tags = tags)\n            \n        elif area in [\'tags\']:\n            posts = []\n            if len(request.args)<2:\n                if not session.blogger_tags:\n                    redirect(URL(r = request, f = \'blogger\', args = [\'tags\']))\n            else:\n                session.blogger_tags = request.args[1]\n                \n            if session.blogger_tags:\n                posts = [{_tags : _post} \n                            for _post in _Blogger.posts_by_tags(\n                                                        session.blogger_tags.split(\'-\'), \n                                                        session.blogger_themes.split(\'-\'))]\n            return dict(area = area, nake = False, posts = posts)\n\ndef blogger_blogs_data():\n    _Blogger = Blogger(app_config.BLOGGER_API, app_config.BLOGGER_BLOGS_THEMES, \n                      app_config.BLOGGER_BLOGS_LANGUAGES)\n    _blogs = _Blogger.blogs\n    _blogs_datas = _Blogger.blogs_datas\n    t = cache.ram(\'blogger_blogs_data\', lambda: _blogs_datas, time_expire=60*60)\n    return t\n\nresponse._vars=response._caller(blogger)\n'
p6
sS'snapshot'
p7
(dp8
S'exception'
p9
(dp10
S'__hash__'
p11
S"<method-wrapper '__hash__' of exceptions.AttributeError object at 0x97fecec>"
p12
sS'__setattr__'
p13
S"<method-wrapper '__setattr__' of exceptions.AttributeError object at 0x97fecec>"
p14
sS'__reduce_ex__'
p15
S'<built-in method __reduce_ex__ of exceptions.AttributeError object at 0x97fecec>'
p16
sS'__getslice__'
p17
S"<method-wrapper '__getslice__' of exceptions.AttributeError object at 0x97fecec>"
p18
sS'__getitem__'
p19
S"<method-wrapper '__getitem__' of exceptions.AttributeError object at 0x97fecec>"
p20
sS'__setstate__'
p21
S'<built-in method __setstate__ of exceptions.AttributeError object at 0x97fecec>'
p22
sS'__reduce__'
p23
S'<built-in method __reduce__ of exceptions.AttributeError object at 0x97fecec>'
p24
sS'__str__'
p25
S"<method-wrapper '__str__' of exceptions.AttributeError object at 0x97fecec>"
p26
sS'args'
p27
S'("\'NoneType\' object has no attribute \'themes_by_languages\'",)'
p28
sS'__getattribute__'
p29
S"<method-wrapper '__getattribute__' of exceptions.AttributeError object at 0x97fecec>"
p30
sS'__class__'
p31
S"<type 'exceptions.AttributeError'>"
p32
sS'__delattr__'
p33
S"<method-wrapper '__delattr__' of exceptions.AttributeError object at 0x97fecec>"
p34
sS'__repr__'
p35
S"<method-wrapper '__repr__' of exceptions.AttributeError object at 0x97fecec>"
p36
sS'__dict__'
p37
S'{}'
p38
sS'__doc__'
p39
S"'Attribute not found.'"
p40
sS'__init__'
p41
S"<method-wrapper '__init__' of exceptions.AttributeError object at 0x97fecec>"
p42
sS'__new__'
p43
S'<built-in method __new__ of type object at 0x8239b00>'
p44
ssS'evalue'
p45
S"'NoneType' object has no attribute 'themes_by_languages'"
p46
sS'request'
p47
(dp48
S'function'
p49
S"'blogger'"
p50
sS'body'
p51
S'<cStringIO.StringO object at 0x98d0c00>'
p52
sS'wsgi'
p53
S"<Storage {'start_response': <function <lambda> a...ING': 'gzip,deflate', 'HTTP_KEEP_ALIVE': '115'}}>"
p54
sS'extension'
p55
S"'html'"
p56
sS'vars'
p57
S'<Storage {}>'
p58
sS'cid'
p59
S'None'
p60
sS'url'
p61
S'<gluon.html.XML object at 0x967efac>'
p62
sS'raw_extension'
p63
S'None'
p64
sg27
S"['themes_choice']"
p65
sS'controller'
p66
S"'media'"
p67
sS'cookies'
p68
S"<SimpleCookie: session_id_a='127.0.0.1-df1e2ed6-...0269e6a-c816-4c2a-bfa7-b84e9f72fe25' theme='cms'>"
p69
sS'application'
p70
S"'cms'"
p71
sS'ajax'
p72
S'False'
p73
sS'client'
p74
S"'127.0.0.1'"
p75
sS'env'
p76
S"<Storage {'wsgi_multithread': True, 'http_accept...nput': <socket._fileobject object at 0x9c56d4c>}>"
p77
sS'raw_args'
p78
S"'themes_choice'"
p79
sS'get_vars'
p80
S'<Storage {}>'
p81
sS'folder'
p82
S"'/home/herve/development/workspaces/molhokwai.net/web/applications/cms/'"
p83
sS'now'
p84
S'datetime.datetime(2011, 2, 28, 13, 47, 25, 383203)'
p85
sS'post_vars'
p86
S'<Storage {}>'
p87
ssS'frames'
p88
(lp89
(dp90
S'file'
p91
S'/home/herve/development/workspaces/molhokwai.net/web/gluon/restricted.py'
p92
sS'dump'
p93
(dp94
S'environment'
p95
S"{'A': <class 'gluon.html.A'>, 'AppDetails': <class __builtin__.AppDetails at 0x9c277ac>, 'Auth': <class 'gluon.tools.Auth'>, 'B': <class 'gluon.html.B'>, 'BEAUTIFY': <class 'gluon.html.BEAUTIFY'>, 'BODY': <class 'gluon.html.BODY'>, 'BR': <class 'gluon.html.BR'>, 'Blogger': <class applications.cms.modules.blogger.Blogger at 0x95de17c>, 'BooleanType': <type 'bool'>, 'BufferType': <type 'buffer'>, ...}"
p96
sS'ccode'
p97
S'<code object <module> at 0x9c61f08, file "/home/...b/applications/cms/controllers/media.py", line 1>'
p98
ssS'lnum'
p99
I188
sS'lines'
p100
(dp101
I192
S'        # XXX Show exception in Wing IDE if running in debugger'
p102
sI183
S'        if type(code) == types.CodeType:'
p103
sI184
S'            ccode = code'
p104
sI185
S'        else:'
p105
sI186
S'            ccode = compile2(code,layer)'
p106
sI187
S''
sI188
S'        exec ccode in environment'
p107
sI189
S'    except HTTP:'
p108
sI190
S'        raise'
p109
sI191
S'    except Exception:'
p110
ssS'call'
p111
S"(code='from types import *\\n\\n###########################...turn t\\n\\nresponse._vars=response._caller(blogger)\\n', environment={'A': <class 'gluon.html.A'>, 'AppDetails': <class __builtin__.AppDetails at 0x9c277ac>, 'Auth': <class 'gluon.tools.Auth'>, 'B': <class 'gluon.html.B'>, 'BEAUTIFY': <class 'gluon.html.BEAUTIFY'>, 'BODY': <class 'gluon.html.BODY'>, 'BR': <class 'gluon.html.BR'>, 'Blogger': <class applications.cms.modules.blogger.Blogger at 0x95de17c>, 'BooleanType': <type 'bool'>, 'BufferType': <type 'buffer'>, ...}, layer='/home/herve/development/workspaces/molhokwai.net/web/applications/cms/controllers/media.py')"
p112
sS'func'
p113
S'restricted'
p114
sa(dp115
g91
S'/home/herve/development/workspaces/molhokwai.net/web/applications/cms/controllers/media.py'
p116
sg93
(dp117
sg99
I466
sg100
(dp118
I455
S"                                                        session.blogger_themes.split('-'))]"
p119
sI456
S'            return dict(area = area, nake = False, posts = posts)'
p120
sI457
S''
sI458
S'def blogger_blogs_data():'
p121
sI459
S'    _Blogger = Blogger(app_config.BLOGGER_API, app_config.BLOGGER_BLOGS_THEMES,'
p122
sI460
S'                      app_config.BLOGGER_BLOGS_LANGUAGES)'
p123
sI461
S'    _blogs = _Blogger.blogs'
p124
sI462
S'    _blogs_datas = _Blogger.blogs_datas'
p125
sI463
S"    t = cache.ram('blogger_blogs_data', lambda: _blogs_datas, time_expire=60*60)"
p126
sI464
S'    return t'
p127
ssg111
S'()'
p128
sg113
S'<module>'
p129
sa(dp130
g91
S'/home/herve/development/workspaces/molhokwai.net/web/gluon/globals.py'
p131
sg93
(dp132
S'self'
p133
S'undefined'
p134
sS'f'
S'<function blogger at 0x9acbf0c>'
p135
ssg99
I95
sg100
(dp136
I96
S'        self._view_environment = None'
p137
sI97
S'        self._custom_commit = None'
p138
sI98
S'        self._custom_rollback = None'
p139
sI99
S''
sI90
S"        self.flash = ''           # used by the default view layout"
p140
sI91
S'        self.meta = Storage()     # used by web2py_ajax.html'
p141
sI92
S'        self.menu = []            # used by the default view layout'
p142
sI93
S'        self.files = []           # used by web2py_ajax.html'
p143
sI94
S'        self._vars = None'
p144
sI95
S'        self._caller = lambda f: f()'
p145
ssg111
S'(f=<function blogger at 0x9acbf0c>)'
p146
sg113
S'<lambda>'
p147
sa(dp148
g91
S'/home/herve/development/workspaces/molhokwai.net/web/applications/cms/controllers/media.py'
p149
sg93
(dp150
S'blogger_languages'
p151
S"['en', 'fr', 'nl']"
p152
sS'_Blogger'
p153
S'None'
p154
sS'themes'
p155
S'[]'
p156
sS'_Blogger.themes_by_languages'
p157
g134
sS'global this_app'
p158
S"'cms'"
p159
sS'_themes'
p160
g134
ssg99
I399
sg100
(dp161
I394
S'                        blogger_languages.append(form.vars[lang].value)'
p162
sI395
S"                    session.blogger_languages = ','.join(blogger_languages)"
p163
sI396
S"                    log_wrapped('session.blogger_languages', session.blogger_languages)"
p164
sI397
S''
sI398
S'            if not themes_cookie_redirect():'
p165
sI399
S"                themes = [(_themes, '/%s/media/blogger/themes/%s' % (this_app, _themes)) for _themes in _Blogger.themes_by_languages(blogger_languages)]"
p166
sI400
S'            return dict(area = area, nake = False, form = form, themes = themes)'
p167
sI401
S''
sI402
S"        elif area in ['themes']:"
p168
sI403
S'            form = FORM(_class="right width50pc")'
p169
ssg111
S'()'
p170
sg113
S'blogger'
p171
sasS'pyver'
p172
S'Python 2.5.1: /usr/local/bin/python2.5'
p173
sS'session'
p174
(dp175
S'blogger_languages'
p176
S"'en,fr,nl'"
p177
sS'_formkey[no_table_create]'
p178
S"'198bcc38-daec-4d7b-a947-53c695058e97'"
p179
sS'user_authorization_done'
p180
S'True'
p181
sS'_formkey[app_config_1]'
p182
S"'5264f03a-959a-46c9-93ae-05264fbf4f46'"
p183
sS'flash'
p184
S'None'
p185
sS'auth'
p186
S"<Storage {'expiration': 3600, 'user': <Storage {..., 2, 28, 13, 47, 25, 383203), 'remember': False}>"
p187
sS'authorized'
p188
g181
sS'_language'
p189
S"'en'"
p190
sS'_formkey[default]'
p191
S"'c4c2b071-305e-4c39-9a6b-bb098dba9739'"
p192
ssS'etype'
p193
S"<type 'exceptions.AttributeError'>"
p194
sS'date'
p195
S'Mon Feb 28 13:47:25 2011'
p196
sS'response'
p197
(dp198
S'_vars'
p199
S'None'
p200
sg68
S"<SimpleCookie: session_id_cms='127.0.0.1-a0269e6a-c816-4c2a-bfa7-b84e9f72fe25'>"
p201
sS'links'
p202
S"[['web2py', 'http://www.web2py.com', 1], ['Python', 'http://www.python.org', 2], ['DePaul CTI', 'http://www.cs.depaul.edu', 3], ['DePaul University', 'http://www.depaul.edu', 5], ['downloads', '/a/default/page/32', 15], ['media / picasa / gallery', '/a/media/picasa/gallery', 16], ['manage media / manage picasa albums / manage photos', '/a/media/picasa/albums', 17], ['setup, application initialization', '/a/setup', 18], ['twitter', '/a/media/social/twitter', 19]]"
p203
sS'posts'
p204
S'<gluon.dal.Rows object at 0x979c84c>'
p205
sS'themes'
p206
S"['0', '1', 'cms', 'pypress', 'test#:#0#:#http://localhost/css/base.css#:#molhokwai@gmail.com', 'test1#:#0#:#http://localhost/css/base1.css#:#herve.mayou@gmail.com']"
p207
sS'theme_stylesheet'
p208
S'None'
p209
sS'meta'
p210
S'<Storage {}>'
p211
sS'_view_environment'
p212
S"{'A': <class 'gluon.html.A'>, 'AppDetails': <class __builtin__.AppDetails at 0x9c277ac>, 'Auth': <class 'gluon.tools.Auth'>, 'B': <class 'gluon.html.B'>, 'BEAUTIFY': <class 'gluon.html.BEAUTIFY'>, 'BODY': <class 'gluon.html.BODY'>, 'BR': <class 'gluon.html.BR'>, 'CENTER': <class 'gluon.html.CENTER'>, 'CLEANUP': <class 'gluon.validators.CLEANUP'>, 'CODE': <class 'gluon.html.CODE'>, ...}"
p213
sS'keywords'
p214
S"'blog, weblog, journal, web, log, web2py, pypress...straight-forward, direct, programming, programmer'"
p215
sS'files'
p216
S'[]'
p217
sS'last_posts'
p218
S"[['nn : bayesian classifer', datetime.datetime(2011, 2, 18, 12, 7, 56), <gluon.html.XML object at 0x985e16c>], ['cms_home', datetime.datetime(2011, 2, 6, 13, 1, 36), <gluon.html.XML object at 0x985e54c>], ['cms_help', datetime.datetime(2011, 2, 6, 13, 1, 36), <gluon.html.XML object at 0x985e0cc>], ['test', datetime.datetime(2011, 1, 14, 14, 59, 41), <gluon.html.XML object at 0x985e28c>], ['acknowledgements', datetime.datetime(2011, 1, 2, 10, 41, 29), <gluon.html.XML object at 0x985ecac>]]"
p219
sS'title'
p220
S'"molhokwai.net - \'a\' cm/dms"'
p221
sS'home_page'
p222
S"<Row {'post_text_TCode': None, 'post_attributes_...elete_record': <function <lambda> at 0x9c4a79c>}>"
p223
sS'menu'
p224
S"[['home', False, '/cms/default/page/16'], ['community', False, '/cms/default/page/18']]"
p225
sS'flash'
p226
S"''"
p227
sS'theme'
p228
S"'cms'"
p229
sS'session_id_name'
p230
S"'session_id_cms'"
p231
sS'_custom_commit'
p232
S'None'
p233
sS'session_filename'
p234
S"'/home/herve/development/workspaces/molhokwai.net...ns/127.0.0.1-a0269e6a-c816-4c2a-bfa7-b84e9f72fe25'"
p235
sg51
S'<cStringIO.StringO object at 0x967e580>'
p236
sS'description'
p237
S'"molhokwai.net - \'a\' cm/dms, lightweight, simple, straight & direct"'
p238
sS'session_file'
p239
S"<open file '/home/herve/development/workspaces/m...4c2a-bfa7-b84e9f72fe25', mode 'rb+' at 0x9c61068>"
p240
sS'_caller'
p241
S'<function <lambda> at 0x9c5602c>'
p242
sS'_custom_rollback'
p243
S'None'
p244
sS'pages'
p245
S"[['beliefs', False, '/cms/default/page/15'], ['home', False, '/cms/default/page/16'], ['community', False, '/cms/default/page/18'], ['SMS', False, '/cms/default/page/21'], ['', False, '/cms/default/page/23'], ['help', False, '/cms/default/page/27'], ['themes', False, '/cms/default/page/35'], ['acknowledgements', False, '/cms/default/page/37'], ['cms_home', False, '/cms/default/page/39'], ['cms_help', False, '/cms/default/page/40'], ['nn : bayesian classifer', False, '/cms/default/page/41']]"
p246
sS'categories'
p247
S"[['misc', 2, '/cms/default/category/misc']]"
p248
sS'name'
p249
S'"\'a\' cm/dms"'
p250
sS'auth_users'
p251
S'<gluon.dal.Rows object at 0x9952a8c>'
p252
sS'help_page'
p253
S"<Row {'post_text_TCode': None, 'post_attributes_...elete_record': <function <lambda> at 0x9c4a10c>}>"
p254
sS'session_id'
p255
S"'127.0.0.1-a0269e6a-c816-4c2a-bfa7-b84e9f72fe25'"
p256
sS'headers'
p257
S"<Storage {'Expires': 'Mon, 28 Feb 2011 12:47:25 ...he, must-revalidate, post-check=0, pre-check=0'}>"
p258
sS'status'
p259
S'200'
p260
sS'postprocessing'
p261
S'[]'
p262
sS'base_theme'
p263
S'None'
p264
sS'view'
p265
S"'media/blogger.html'"
p266
ssS'locals'
p267
(dp268
S'lang'
p269
S"'nl'"
p270
sS'_[1]'
p271
S'[]'
p272
sS'blogger_languages'
p273
S"['en', 'fr', 'nl']"
p274
sS'form'
p275
S'<gluon.html.FORM object at 0x979c22c>'
p276
sS'_Blogger'
p277
S'None'
p278
sS'area'
p279
S"'themes_choice'"
p280
sg206
S'[]'
p281
sS'blogger_languages_get'
p282
S'<function blogger_languages_get at 0x9acbf7c>'
p283
sS'retry'
p284
g73
sS'themes_cookie_redirect'
p285
S'<function themes_cookie_redirect at 0x9acbd4c>'
p286
sssS'traceback'
p287
S'Traceback (most recent call last):\n  File "/home/herve/development/workspaces/molhokwai.net/web/gluon/restricted.py", line 188, in restricted\n    exec ccode in environment\n  File "/home/herve/development/workspaces/molhokwai.net/web/applications/cms/controllers/media.py", line 466, in <module>\n  File "/home/herve/development/workspaces/molhokwai.net/web/gluon/globals.py", line 95, in <lambda>\n    self._caller = lambda f: f()\n  File "/home/herve/development/workspaces/molhokwai.net/web/applications/cms/controllers/media.py", line 399, in blogger\n    themes = [(_themes, \'/%s/media/blogger/themes/%s\' % (this_app, _themes)) for _themes in _Blogger.themes_by_languages(blogger_languages)]\nAttributeError: \'NoneType\' object has no attribute \'themes_by_languages\'\n'
p288
s.