(dp1
S'output'
p2
S''
sS'layer'
p3
S'/home/herve/development/workspaces/molhokwai.net/web/applications/a/views/default/error.html'
p4
sS'code'
p5
S'response.write(\'<!DOCTYPE html PUBLIC "-//W3C//DTD XHTML 1.0 Transitional//EN" "http://www.w3.org/TR/xhtml1/DTD/xhtml1-transitional.dtd">\\n<html xmlns="http://www.w3.org/1999/xhtml" xml:lang="\', escape=False)\nresponse.write(T.accepted_language or \'en\')\nresponse.write(\'">\\n\\n  <head>\\n    <title>\', escape=False)\nif response.title:\n    response.write(response.title)\nelse:\n    response.write(URL(r=request))\n    pass\nresponse.write(\'</title>\\n\\n    <title>\', escape=False)\nresponse.write(response.title or request.application)\nresponse.write(\'</title>\\n    <meta http-equiv="Content-Type" content="text/html; charset=UTF-8" />\\n    <meta name="keywords" content="\', escape=False)\nresponse.write(response.keywords)\nresponse.write(\'" />\\n    <meta name="description" content="\', escape=False)\nresponse.write(response.description)\nresponse.write(\'" />\\n    <meta name="google-site-verification" content="r0Pfq2q9SK7Pk9gkh1NnbsV28-mQoD8LoIGOeUhfer8" />\\n    \', escape=False)\nif response.refresh:\n    response.write(XML(response.refresh))\n    pass\nresponse.write(\'\\n    \\n    <link rel="stylesheet" href="/\', escape=False)\nresponse.write(this_app)\nresponse.write(\'/static/css/_base.css" type="text/css" media="screen" />\\n    <link rel="stylesheet" href="/\', escape=False)\nresponse.write(this_app)\nresponse.write(\'/static/css/base.css" type="text/css" media="screen" />\\n    <link rel="stylesheet" href="/\', escape=False)\nresponse.write(this_app)\nresponse.write(\'/static/css/themes/\', escape=False)\nresponse.write(response.theme)\nresponse.write(\'/base.css" type="text/css" media="screen" />\\n    \', escape=False)\nif response.child_theme and response.theme_stylesheet:\n    response.write(\'\\n        <link rel="stylesheet" href="\', escape=False)\n    response.write(response.theme_stylesheet)\n    response.write(\'" media="screen" />\\n    \', escape=False)\n    pass\nresponse.write(\'\\n    <link rel="stylesheet" href="/\', escape=False)\nresponse.write(this_app)\nresponse.write(\'/static/components/markitup/style.css" type="text/css" media="screen" />\\n    <link rel="stylesheet" href="/\', escape=False)\nresponse.write(this_app)\nresponse.write(\'/static/components/markitup/sets/default/style.css" type="text/css" media="screen" />\\n    <style type="text/css"></style>\\n    \\n    \', escape=False)\nresponse.write(\'<script type="text/javascript">\\n<!--\\n/*\\nWritten by Massimo Di Pierro.\\n\\nThis is a minimalistic AJAX for web2py, for more sophisticated stuff\\nyou should use Scriptacolous or some other AJAX toolkit. Anyway...\\n\\nTo use web2py_ajax.html just make sure you include \\\'web2py_ajax.html\\\'\\nin your layout.html. This provides four functions:\\n\\npopup(url)\\ncollapse(id)\\nfade(id,value) // try value= +0.1 or -0.1\\najax(url,sources,taget) \\n// will send sources[i].value to url and dispaly result in target\\n*/\\n\\nfunction popup(url) {\\n  newwindow=window.open(url,\\\'name\\\',\\\'height=400,width=600\\\');\\n  if (window.focus) {newwindow.focus()}\\n  return false;\\n}\\n\\nfunction collapse(id) {\\n   if(this.document.getElementById(id).style.display=="none")\\n   (this.document.getElementById(id).style.display="block") ;\\n   else (this.document.getElementById(id).style.display="none") ;\\n}\\n\\nfunction fade(id,value) {\\n  var object=document.getElementById(id);\\n  if(value<0 && !object.style.opacity) {\\n     this.document.getElementById(id).style.display="block";\\n     object.style.opacity=1;\\n  }\\n  if(value>0 && object.style.opacity>=1) object.style.opacity=1;\\n  else if(value<0 && object.style.opacity<=0) {\\n     this.document.getElementById(id).style.display="none";\\n     object.style.opacity=0;\\n  }\\n  else {\\n     this.document.getElementById(id).style.display="block";\\n     object.style.opacity-=-value;\\n     setTimeout(function(){fade(id,value);},100);\\n     return false;\\n  }\\n  return true;\\n}\\n\\nfunction ajax(url,sources,target) {\\n  var req = null; \\n  var ctarget=document.getElementById(target);\\n  window.status="connecting...";\\n  if(window.XMLHttpRequest)\\n     req = new XMLHttpRequest(); \\n  else if (window.ActiveXObject)\\n     req  = new ActiveXObject("Microsoft.XMLHTTP");\\n  req.onreadystatechange = function() {\\n     window.status="waiting...";\\n     if(req.readyState == 4)\\n       if(req.status == 200) {\\n          window.status=\\\'Ajax Done!\\\'\\n          try { \\n             ctarget.innerHTML=req.responseText; \\n             try {ctarget.scrollTop=ctarget.scrollHeight-ctarget.clientHeight;}\\n             catch(err) {}\\n          } catch(err) { ctarget.value=req.responseText; }\\n       } else alert("AJAX Error: " + req.status);\\n  }\\n  var query=""\\n  for(i=0; i<sources.length; i++) {\\n     if(i>0) query=query+"&";\\n     query=query+encodeURIComponent(sources[i])+"="+encodeURIComponent(document.getElementById(sources[i]).value);\\n  }\\n  req.open("POST",url,true); \\n  req.setRequestHeader("Content-Type", "application/x-www-form-urlencoded"); \\n  req.send(query); \\n} \\n//-->\\n</script>\', escape=False)\nresponse.write(\'\\n\\n    <script type="text/javascript">\\n      var server={\\n          request : {\\n              application : \\\'\', escape=False)\nresponse.write(tentative_app)\nresponse.write(\'\\\'\\n          },\\n          pages : []\\n      };\\n    </script>\\n    <script type="text/javascript" src="/\', escape=False)\nresponse.write(this_app)\nresponse.write(\'/static/components/net.molhokwai/molhokwai.common.js"></script>\\n    <script type="text/javascript" src="/\', escape=False)\nresponse.write(this_app)\nresponse.write(\'/static/components/jquery/jquery-1.4.2.min.js"></script>\\n    <script type="text/javascript" src="/\', escape=False)\nresponse.write(this_app)\nresponse.write(\'/static/components/jquery/add-ons.js"></script>\\n    <script type="text/javascript" src="/\', escape=False)\nresponse.write(this_app)\nresponse.write(\'/static/components/markitup/jquery.markitup.js"></script>\\n    <script type="text/javascript" src="/\', escape=False)\nresponse.write(this_app)\nresponse.write(\'/static/custom/script.js"></script>\\n    <script src="http://www.google.com/jsapi?key=ABQIAAAAhDaHyndn3TRHW8aVVgNfsBTPFwiohxerrbIfi_L7lDZ1YENwhRROxgxsy_RTT4IRmc8SWIpWu3KrsQ" type="text/javascript"></script>\\n    <script type="text/javascript" src="/\', escape=False)\nresponse.write(this_app)\nresponse.write(\'/static/components/google/search_init.js"></script>\\n    <script type="text/javascript">\\n      $(document).ready(function(){\\n          var browser_not=true;\\n          try { \\n              browser_not=!($.browser.mozilla || $.browser.webkit); \\n          }\\n          catch(e) {} \\n          if (browser_not){\\n              $(\\\'#content\\\').append(\\\'<div class="text-alignc margt5pc"><em>\', escape=False)\nresponse.write(T("(Graphical design not tested (corrected) on this browser...)"))\nresponse.write(\'</em></div>\\\');\\n          }\\n      });      \\n    </script>\\n\\n  </head>\\n\\n  <body>\\n\\n    <div id="wrapper" class="margt2pc  width60pc">\\n\\n      <div id="user-menu" class="right">\\n         \', escape=False)\nif \'auth\' in globals():\n    response.write(\'\\n           \', escape=False)\n    if not auth.user:\n        response.write(\' \\n             \', escape=False)\n        response.write(A(T(\'login\'),_href=URL(r=request,c=\'default\',f=\'user/login\')))\n        response.write(\'\\n           \', escape=False)\n    else:\n        response.write(\'\\n             <!-- \', escape=False)\n        response.write(auth.user.display_name)\n        response.write(\' -->\\n             \', escape=False)\n        response.write(A(T(\'logout\'),_href=URL(r=request,c=\'default\',f=\'user/logout\')))\n        response.write(\' | \\n           \', escape=False)\n        pass\n    response.write(\'\\n         \', escape=False)\n    pass\nresponse.write(\'\\n      </div>\\n      <!-- end #user-menu -->\\n\\n      <div id="cli_web" class="left margt2pc  width100pc">\\n        <form onsubmit="return false;">\\n            <input type="text" id="_cmd" name="_cmd" class="width30pc transparent"/>\\n            <font id="_cmd_msg" class="flash small">\\n                \', escape=False)\nif session.cli_web_flash:\n    response.write(session.cli_web_flash)\n    session.cli_web_flash=False\n    pass\nresponse.write(\'\\n                \', escape=False)\nflash = session.flash if session.flash else response.flash\nresponse.write(\'\\n                \', escape=False)\nif flash:\n    response.write(XML(flash))\n    pass\nresponse.write(\'\\n            </font>\\n            <input type="hidden" id="_cmd_history_cur" value="-1"/>\\n        </form>\\n      </div>\\n      <!-- end #cli_web -->\\n    \\n      <div id="content" class="padl3pc left margt5pc width100pc">\\n        <div id="searchcontrol"></div>\\n        \', escape=False)\nresponse.write(\'\\n\\n<BLOCKQUOTE>Erreur<BR/>\\n    \', escape=False)\nif ticket:\n    response.write(\'<b>Erreur interne</b>, ticket: <a href="/admin/default/ticket/\', escape=False)\n    response.write(ticket)\n    response.write(\'" target="_blank">\', escape=False)\n    response.write(ticket)\n    response.write(\'</a><br/>\', escape=False)\n    pass\nresponse.write(\'\\n    \', escape=False)\nif code==\'400\':\n    response.write(\'<b>Page non trouv\\xc3\\xa9e</b>, la page est introuvable...<br/>\\n    \', escape=False)\nelse:\n    if code==\'403\':\n        response.write(\'<b>Non autoris\\xc3\\xa9</b>, hummmm... besoin de permissions suppl\\xc3\\xa9mentaires, ou ceci serait-il une erreur?<br/>\\n    \', escape=False)\n    else:\n        if code==\'500\':\n            response.write(\'<b>Erreur serveur</b>, il s&#39;est pass\\xc3\\xa9 quelque chose d&#39;anormal...<br/>\', escape=False)\n            pass\n        pass\n    pass\nresponse.write(\'\\n    \', escape=False)\nif requested_uri:\n    response.write(\'<b>Requ\\xc3\\xaate (uri)</b>: \', escape=False)\n    response.write(requested_uri)\n    pass\nresponse.write(\'\\n    \', escape=False)\nif err!=\'\':\n    response.write(\'<b>Erreur</b>: \', escape=False)\n    response.write(err)\n    pass\nresponse.write(\'\\n</BLOCKQUOTE>\\n<BR>\\n<BR>\\n<BLOCKQUOTE>Error<BR/>\\n    \', escape=False)\nif ticket:\n    response.write(\'<b>Internal error</b>, ticket: <a href="/admin/default/ticket/\', escape=False)\n    response.write(ticket)\n    response.write(\'" target="_blank">\', escape=False)\n    response.write(ticket)\n    response.write(\'</a>\', escape=False)\n    pass\nresponse.write(\'<br/>\\n    \', escape=False)\nif code==\'400\':\n    response.write(\'<b>Page Not Found</b>, the page is nowhere to be found...\\n    \', escape=False)\nelse:\n    if code==\'403\':\n        response.write(\'<b>Permission denied</b>, hummmm... need extra permissions, or do we have an error here?\\n    \', escape=False)\n    else:\n        if code==\'500\':\n            response.write(\'<b>Server error</b>, something baaad happened...\', escape=False)\n            pass\n        pass\n    pass\nresponse.write(\'<br/>\\n    \', escape=False)\nif requested_uri:\n    response.write(\'<b>Requested Uri</b>: \', escape=False)\n    response.write(requested_uri)\n    pass\nresponse.write(\'\\n    \', escape=False)\nif err!=\'\':\n    response.write(\'<b>Error</b>: \', escape=False)\n    response.write(err)\n    pass\nresponse.write(\'\\n</BLOCKQUOTE>\\n\', escape=False)\nresponse.write(\'\\n      </div>\\n      <!-- end #content -->\\n\\n      <div id="sidebar" class="right width30pc text-alignr">\\n        <div id="sidebar-content" class="display-none">\\n          <!-- #sidebar menu deactivated. See cms theme foreventual reactivation -->\\n          \', escape=False)\ntry:\n    response.write(\'\\n          \', escape=False)\n    response.write(\'<script type="text/javascript" src="/a/static/components/jquery/jquery.media.js"></script>\\n<script type="text/javascript">\\n    $(document).ready(function(){\\n        $.fn.media.defaults.attrs = { \\\'class\\\' : \\\'media\\\', \\\'bgColor\\\' : \\\'#000000\\\' };\\n        $(\\\'.media\\\').media();\\n    });\\n    \\n    var onChatClick = function(el){\\n        var p_m_u = [\\\'+\\\',\\\'-\\\', \\\'http://talkgadget.google.com/talkgadget/popout\\\'];\\n        if ($(el).html().indexOf(\\\'(-)\\\')>0){\\n            p_m_u = [\\\'-\\\',\\\'+\\\', \\\'\\\'];\\n        }\\n        $(\\\'iframe[name="iframe-chat"]\\\').animate({\\n            height: p_m_u[0]+\\\'=10em\\\',\\n          }, 1500, function(){\\n              for(var i=0;i<p_m_u.length;i++){\\n                  if (p_m_u[i] == \\\'+\\\'){\\n                      $(el).html($(el).html().replace(\\\'(\\\'+p_m_u[0]+\\\')\\\',\\\'(\\\'+p_m_u[1]+\\\')\\\'));\\n                  }\\n                  else if (p_m_u[i] == \\\'-\\\'){\\n                      $(\\\'iframe[name="iframe-chat"]\\\')[0].src = p_m_u[2];\\n                  }\\n              }\\n              /*$("html").animate({ scrollTop: $(document).height() }, "slow");*/\\n          });\\n    }\\n</script>\\n\\n<div class="media-box">\\n    <a class="media" href="/a/default/file/a.mp4">Mayou Nkensa Herv\\xc3\\xa9, Tuesday the 1st of May, around 08:57&#39;07&#39;&#39;</a>\\n    \\n    \\n    <h1>\', escape=False)\n    response.write(XML(T(\'Professional - Profile, CV\')))\n    response.write(\' -</h1>\\n    <a target="_blank" href="https://docs.google.com/viewer?a=v&pid=explorer&chrome=true&srcid=0B39Sj9mqtvSyNmQyNDYwOWMtNWE2MC00N2M3LWFiMjQtMGE4NjE1ZmQyODNl">\', escape=False)\n    response.write(T(\'Light/Short\'))\n    response.write(\'</a> | \\n    <a target="_blank" href="https://docs.google.com/viewer?a=v&pid=explorer&chrome=true&srcid=0B39Sj9mqtvSyMmRjZGZhNWQtODRmOC00MTE5LWExZDktYjA2MWU1NjhhZDY2" target="_blank">\', escape=False)\n    response.write(T(\'Extended/Long\'))\n    response.write(\'</a>\\n    \\n    <h1>\', escape=False)\n    response.write(XML(T(\'Current Projects\')))\n    response.write(\' -</h1>\\n    <div class="text-alignl">\\n        <a target="_blank" href="https://github.com/molhokwai/a">\\\'a\\\' cms/dms</a> | \\n        <a target="_blank" href="https://github.com/molhokwai/web-x0">web-x0 development</a> | \\n        <a target="_blank" href="https://github.com/molhokwai/ai">ai learning (nn, ga)</a> | \\n        <a target="_blank" href="https://github.com/molhokwai/jQuery.gaussianTextFx">jQuery.gaussianTextFx</a>\\n    </div>\\n    \\n    <h1>\', escape=False)\n    response.write(XML(T(\'Books\')))\n    response.write(\' -</h1>\\n    <div class="text-alignl">\\n        <a target="_blank" href="http://www.edifree.fr/doc/4311">\', escape=False)\n    response.write(XML(T(\'Aux Oeuvreurs (French)\')))\n    response.write(\'</a>\\n    </div>\\n    \\n    <h1>\', escape=False)\n    response.write(XML(T(\'Contact\')))\n    response.write(\' -</h1>\\n    <div class="text-alignl">\\n        <a href="callto:+3248937151">+32 489 33 71 51</a> | \\n        <a href="mailto:herve.mayou@gmail.com">herve.mayou@gmail.com</a> | \\n        <br/><a onclick="onChatClick(this)" href="#iframe-chat">\', escape=False)\n    response.write(XML(T(\'voice, chat\')))\n    response.write(\': herve.mayou (+)</a>\\n        <br/>\\n        <iframe name="iframe-chat"></iframe>\\n    </div>\\n    </object -->\\n</div>\\n\', escape=False)\n    response.write(\'\\n          \', escape=False)\nexcept Exception, ex:\n    response.write(\'\\n          \', escape=False)\n    response.write(\'<script type="text/javascript" src="/a/static/components/jquery/jquery.media.js"></script>\\n<script type="text/javascript">\\n    $(document).ready(function(){\\n        $.fn.media.defaults.attrs = { \\\'class\\\' : \\\'media\\\', \\\'bgColor\\\' : \\\'#000000\\\' };\\n        $(\\\'.media\\\').media();\\n    });\\n    \\n    var onChatClick = function(el){\\n        var p_m_u = [\\\'+\\\',\\\'-\\\', \\\'http://talkgadget.google.com/talkgadget/popout\\\'];\\n        if ($(el).html().indexOf(\\\'(-)\\\')>0){\\n            p_m_u = [\\\'-\\\',\\\'+\\\', \\\'\\\'];\\n        }\\n        $(\\\'iframe[name="iframe-chat"]\\\').animate({\\n            height: p_m_u[0]+\\\'=10em\\\',\\n          }, 1500, function(){\\n              for(var i=0;i<p_m_u.length;i++){\\n                  if (p_m_u[i] == \\\'+\\\'){\\n                      $(el).html($(el).html().replace(\\\'(\\\'+p_m_u[0]+\\\')\\\',\\\'(\\\'+p_m_u[1]+\\\')\\\'));\\n                  }\\n                  else if (p_m_u[i] == \\\'-\\\'){\\n                      $(\\\'iframe[name="iframe-chat"]\\\')[0].src = p_m_u[2];\\n                  }\\n              }\\n              /*$("html").animate({ scrollTop: $(document).height() }, "slow");*/\\n          });\\n    }\\n</script>\\n\\n<div class="media-box">\\n    <a class="media" href="/a/default/file/a.mp4">Mayou Nkensa Herv\\xc3\\xa9, Tuesday the 1st of May, around 08:57&#39;07&#39;&#39;</a>\\n    \\n    \\n    <h1>\', escape=False)\n    response.write(XML(T(\'Professional - Profile, CV\')))\n    response.write(\' -</h1>\\n    <a target="_blank" href="https://docs.google.com/viewer?a=v&pid=explorer&chrome=true&srcid=0B39Sj9mqtvSyNmQyNDYwOWMtNWE2MC00N2M3LWFiMjQtMGE4NjE1ZmQyODNl">\', escape=False)\n    response.write(T(\'Light/Short\'))\n    response.write(\'</a> | \\n    <a target="_blank" href="https://docs.google.com/viewer?a=v&pid=explorer&chrome=true&srcid=0B39Sj9mqtvSyMmRjZGZhNWQtODRmOC00MTE5LWExZDktYjA2MWU1NjhhZDY2" target="_blank">\', escape=False)\n    response.write(T(\'Extended/Long\'))\n    response.write(\'</a>\\n    \\n    <h1>\', escape=False)\n    response.write(XML(T(\'Current Projects\')))\n    response.write(\' -</h1>\\n    <div class="text-alignl">\\n        <a target="_blank" href="https://github.com/molhokwai/a">\\\'a\\\' cms/dms</a> | \\n        <a target="_blank" href="https://github.com/molhokwai/web-x0">web-x0 development</a> | \\n        <a target="_blank" href="https://github.com/molhokwai/ai">ai learning (nn, ga)</a> | \\n        <a target="_blank" href="https://github.com/molhokwai/jQuery.gaussianTextFx">jQuery.gaussianTextFx</a>\\n    </div>\\n    \\n    <h1>\', escape=False)\n    response.write(XML(T(\'Books\')))\n    response.write(\' -</h1>\\n    <div class="text-alignl">\\n        <a target="_blank" href="http://www.edifree.fr/doc/4311">\', escape=False)\n    response.write(XML(T(\'Aux Oeuvreurs (French)\')))\n    response.write(\'</a>\\n    </div>\\n    \\n    <h1>\', escape=False)\n    response.write(XML(T(\'Contact\')))\n    response.write(\' -</h1>\\n    <div class="text-alignl">\\n        <a href="callto:+3248937151">+32 489 33 71 51</a> | \\n        <a href="mailto:herve.mayou@gmail.com">herve.mayou@gmail.com</a> | \\n        <br/><a onclick="onChatClick(this)" href="#iframe-chat">\', escape=False)\n    response.write(XML(T(\'voice, chat\')))\n    response.write(\': herve.mayou (+)</a>\\n        <br/>\\n        <iframe name="iframe-chat"></iframe>\\n    </div>\\n    </object -->\\n</div>\\n\', escape=False)\n    response.write(\'\\n        </div>\\n        <!-- end #sidebar-content -->\\n      </div>\\n      <!-- end #sidebar -->\\n\\n      <div id="utility" class="clear">&nbsp;</div>\\n\\n      <div id="footer">\', escape=False)\n    response.write(A(T(\'acknowledgements\'), _href=URL( r=request, c=\'default\', f=\'page\', args=[\'acknowledgements\'])))\n    response.write(\'</div>\\n        \\n    </div>\\n    <!-- end #wrapper -->\\n\\n    <div id="tracking">\\n        <script type="text/javascript" id="tracking_src">\\n            var gaJsHost = (("https:" == document.location.protocol) ? "https://ssl." : "http://www.");\\n            document.write(unescape("%3Cscript src=\\\'" + gaJsHost + "google-analytics.com/ga.js\\\' type=\\\'text/javascript\\\'%3E%3C/script%3E"));\\n        </script>\\n        <script type="text/javascript" id="tracking_process">\\n            try {\\n                var pageTracker = _gat._getTracker("UA-5101967-1");\\n                pageTracker._initData();\\n                pageTracker._trackPageview();\\n            }\\n            catch(e) {\\n                if (console) try{console.log(e);}catch(e){}\\n            }\\n        </script>\\n    </div>    \\n    <!-- end #tracking -->\\n\\n    <div id="links">\\n             \', escape=False)\n    response.write(A(T(\'add page/post\'),_href=URL(r=request,c=\'default\',f=\'add/page\'), _class=\'color-transparent\'))\n    response.write(\'\\n             \', escape=False)\n    _post=None\n    try: _post=post\nexcept Exception, ex: pass\nresponse.write(\'\\n             \', escape=False)\nif _post:\n    response.write(\'\\n                 \', escape=False)\n    if _post.post_type==\'page\':\n        response.write(\'\\n                     \', escape=False)\n        response.write(A(T(\'edit page/post ?\'),_href=URL(r=request,c=\'default\',f=\'edit/page/%i\' % _post.id), _class=\'color-transparent\'))\n        response.write(\'\\n                 \', escape=False)\n    else:\n        response.write(\'\\n                     \', escape=False)\n        response.write(A(T(\'edit page/post ?\'),_href=URL(r=request,c=\'default\',f=\'edit/post/%i\' % _post.id), _class=\'color-transparent\'))\n        response.write(\'\\n                 \', escape=False)\n        pass\n    response.write(\'\\n             \', escape=False)\n    pass\nresponse.write(\'\\n             \', escape=False)\nif response.home_page:\n    response.write(\'\\n                 \', escape=False)\n    response.write(A(T(\'root\'),_href=URL(r=request,c=\'default\',f=\'page/%i\' % response.home_page.id), _class=\'color-transparent\'))\n    response.write(\'\\n             \', escape=False)\n    pass\nresponse.write(\'\\n             \', escape=False)\nif response.help_page:\n    response.write(\'\\n                 \', escape=False)\n    response.write(A(T(\'help\'),_href=URL(r=request,c=\'default\',f=\'page/%i\' % response.help_page.id), _class=\'color-transparent\'))\n    response.write(\'\\n             \', escape=False)\n    pass\nresponse.write(\'\\n             \\n             \', escape=False)\nresponse.write(A(T(\'links\'),_href=URL(r=request,c=\'default\',f=\'manage/link\'), _class=\'color-transparent\'))\nresponse.write(\'\\n             \', escape=False)\nif response.links:\n    response.write(\'\\n                 \', escape=False)\n    for _name,_link,_id in response.links:\n        response.write(\'\\n                         \', escape=False)\n        response.write(A(T(_name),_href=_link, _class=\'color-transparent\'))\n        response.write(\'\\n                 \', escape=False)\n        pass\n    response.write(\'\\n             \', escape=False)\n    pass\nresponse.write(\'\\n             \\n             \', escape=False)\nresponse.write(A(T(\'pages\'),_href=URL(r=request,c=\'default\',f=\'pages\'), _class=\'color-transparent\'))\nresponse.write(\'\\n             \', escape=False)\nif response.pages:\n    response.write(\'\\n                 \', escape=False)\n    for _title,_false,_link in response.links:\n        response.write(\'\\n                         \', escape=False)\n        response.write(A(T(_title),_href=_link, _class=\'color-transparent\'))\n        response.write(\'\\n                 \', escape=False)\n        pass\n    response.write(\'\\n             \', escape=False)\n    pass\nresponse.write(\'\\n    </div>\\n    <!-- end #links -->\\n  \\n  </body>\\n</html>\\n\', escape=False)'
p6
sS'snapshot'
p7
(dp8
S'exception'
p9
(dp10
S'__getslice__'
p11
S"<method-wrapper '__getslice__' of exceptions.IndentationError object at 0xa6ce09c>"
p12
sS'text'
p13
S"'except Exception, ex: pass\\n'"
p14
sS'__str__'
p15
S"<method-wrapper '__str__' of exceptions.IndentationError object at 0xa6ce09c>"
p16
sS'__reduce__'
p17
S'<built-in method __reduce__ of exceptions.IndentationError object at 0xa6ce09c>'
p18
sS'__dict__'
p19
S'{}'
p20
sS'__init__'
p21
S"<method-wrapper '__init__' of exceptions.IndentationError object at 0xa6ce09c>"
p22
sS'__setattr__'
p23
S"<method-wrapper '__setattr__' of exceptions.IndentationError object at 0xa6ce09c>"
p24
sS'__reduce_ex__'
p25
S'<built-in method __reduce_ex__ of exceptions.IndentationError object at 0xa6ce09c>'
p26
sS'__new__'
p27
S'<built-in method __new__ of type object at 0x8239c80>'
p28
sS'__class__'
p29
S"<type 'exceptions.IndentationError'>"
p30
sS'filename'
p31
S"'/home/herve/development/workspaces/molhokwai.net/web/applications/a/views/default/error.html'"
p32
sS'lineno'
p33
S'191'
p34
sS'msg'
p35
S"'unexpected unindent'"
p36
sS'__doc__'
p37
S"'Improper indentation.'"
p38
sS'__getitem__'
p39
S"<method-wrapper '__getitem__' of exceptions.IndentationError object at 0xa6ce09c>"
p40
sS'__setstate__'
p41
S'<built-in method __setstate__ of exceptions.IndentationError object at 0xa6ce09c>'
p42
sS'__getattribute__'
p43
S"<method-wrapper '__getattribute__' of exceptions.IndentationError object at 0xa6ce09c>"
p44
sS'print_file_and_line'
p45
S'None'
p46
sS'args'
p47
S"('unexpected unindent', ('/home/herve/development/workspaces/molhokwai.net/web/applications/a/views/default/error.html', 191, 0, 'except Exception, ex: pass\\n'))"
p48
sS'offset'
p49
S'0'
sS'__delattr__'
p50
S"<method-wrapper '__delattr__' of exceptions.IndentationError object at 0xa6ce09c>"
p51
sS'__repr__'
p52
S"<method-wrapper '__repr__' of exceptions.IndentationError object at 0xa6ce09c>"
p53
sS'__hash__'
p54
S"<method-wrapper '__hash__' of exceptions.IndentationError object at 0xa6ce09c>"
p55
ssS'evalue'
p56
S'unexpected unindent (error.html, line 191)'
p57
sS'request'
p58
(dp59
S'function'
p60
S"'error'"
p61
sS'body'
p62
S'<cStringIO.StringO object at 0xad71da0>'
p63
sS'wsgi'
p64
S"<Storage {'start_response': <function <lambda> a...ING': 'gzip,deflate', 'HTTP_KEEP_ALIVE': '115'}}>"
p65
sS'extension'
p66
S"'html'"
p67
sS'vars'
p68
S"<Storage {'ticket': 'a/127.0.0.1.2011-03-25.11-5...l': '/a/default/error', 'requested_uri': 'None'}>"
p69
sS'cid'
p70
S'None'
p71
sS'url'
p72
S'<gluon.html.XML object at 0xad714ac>'
p73
sS'raw_extension'
p74
S'None'
p75
sg47
S'[]'
p76
sS'controller'
p77
S"'default'"
p78
sS'cookies'
p79
S"<SimpleCookie: blogger_languages='fr' session_id...-986760c0-2cfe-4286-b685-ae791a760077' theme='1'>"
p80
sS'application'
p81
S"'a'"
p82
sS'ajax'
p83
S'False'
p84
sS'client'
p85
S"'127.0.0.1'"
p86
sS'env'
p87
S"<Storage {'wsgi_multithread': True, 'http_accept...nput': <socket._fileobject object at 0xabc095c>}>"
p88
sS'raw_args'
p89
S'None'
p90
sS'get_vars'
p91
S"<Storage {'ticket': 'a/127.0.0.1.2011-03-25.11-5...l': '/a/default/error', 'requested_uri': 'None'}>"
p92
sS'folder'
p93
S"'/home/herve/development/workspaces/molhokwai.net/web/applications/a/'"
p94
sS'now'
p95
S'datetime.datetime(2011, 3, 25, 11, 53, 26, 926571)'
p96
sS'post_vars'
p97
S'<Storage {}>'
p98
ssS'frames'
p99
(lp100
(dp101
S'file'
p102
S'/home/herve/development/workspaces/molhokwai.net/web/gluon/restricted.py'
p103
sS'dump'
p104
(dp105
S'code'
p106
S'\'response.write(\\\'<!DOCTYPE html PUBLIC "-//W3C//D...nks -->\\\\n  \\\\n  </body>\\\\n</html>\\\\n\\\', escape=False)\''
p107
sS'layer'
p108
S"'/home/herve/development/workspaces/molhokwai.net/web/applications/a/views/default/error.html'"
p109
sS'global compile2'
p110
S'<function compile2 at 0xa266534>'
p111
sS'ccode'
p112
S'undefined'
p113
ssS'lnum'
p114
I186
sS'lines'
p115
(dp116
I181
S''
sI182
S'    try:'
p117
sI183
S'        if type(code) == types.CodeType:'
p118
sI184
S'            ccode = code'
p119
sI185
S'        else:'
p120
sI186
S'            ccode = compile2(code,layer)'
p121
sI187
S''
sI188
S'        exec ccode in environment'
p122
sI189
S'    except HTTP:'
p123
sI190
S'        raise'
p124
ssS'call'
p125
S'(code=\'response.write(\\\'<!DOCTYPE html PUBLIC "-//W3C//D...nks -->\\\\n  \\\\n  </body>\\\\n</html>\\\\n\\\', escape=False)\', environment={\'A\': <class \'gluon.html.A\'>, \'AppDetails\': <class __builtin__.AppDetails at 0xa9c856c>, \'Auth\': <class \'gluon.tools.Auth\'>, \'B\': <class \'gluon.html.B\'>, \'BEAUTIFY\': <class \'gluon.html.BEAUTIFY\'>, \'BODY\': <class \'gluon.html.BODY\'>, \'BR\': <class \'gluon.html.BR\'>, \'CENTER\': <class \'gluon.html.CENTER\'>, \'CLEANUP\': <class \'gluon.validators.CLEANUP\'>, \'CODE\': <class \'gluon.html.CODE\'>, ...}, layer=\'/home/herve/development/workspaces/molhokwai.net/web/applications/a/views/default/error.html\')'
p126
sS'func'
p127
S'restricted'
p128
sa(dp129
g102
S'/home/herve/development/workspaces/molhokwai.net/web/gluon/restricted.py'
p130
sg104
(dp131
S'builtincompile'
p132
S'<built-in function compile>'
p133
sS'code'
p134
S'\'response.write(\\\'<!DOCTYPE html PUBLIC "-//W3C//D...nks -->\\\\n  \\\\n  </body>\\\\n</html>\\\\n\\\', escape=False)\''
p135
sS'code.rstrip'
p136
S'<built-in method rstrip of str object at 0xaa7e708>'
p137
sS').replace'
p138
g113
sS'layer'
p139
S"'/home/herve/development/workspaces/molhokwai.net/web/applications/a/views/default/error.html'"
p140
ssg114
I173
sg115
(dp141
I168
S''
sI169
S'def compile2(code,layer):'
p142
sI170
S'    """'
p143
sI171
S"    The +'\\n' is necessary else compile fails when code ends in a comment."
p144
sI172
S'    """'
p145
sI173
S"    return compile(code.rstrip().replace('\\r\\n','\\n')+'\\n', layer, 'exec')"
p146
sI174
S''
sI175
S"def restricted(code, environment={}, layer='Unknown'):"
p147
sI176
S'    """'
p148
sI177
S'    runs code in environment and returns the output. if an exception occurs'
p149
ssg125
S'(code=\'response.write(\\\'<!DOCTYPE html PUBLIC "-//W3C//D...nks -->\\\\n  \\\\n  </body>\\\\n</html>\\\\n\\\', escape=False)\', layer=\'/home/herve/development/workspaces/molhokwai.net/web/applications/a/views/default/error.html\')'
p150
sg127
S'compile2'
p151
sasS'pyver'
p152
S'Python 2.5.1: /usr/local/bin/python'
p153
sS'session'
p154
(dp155
S'_language'
p156
S"'en'"
p157
sS'auth'
p158
S'None'
p159
ssS'etype'
p160
S"<type 'exceptions.IndentationError'>"
p161
sS'date'
p162
S'Fri Mar 25 11:53:26 2011'
p163
sS'response'
p164
(dp165
S'_vars'
p166
S"{'code': '500', 'err': '', 'requested_uri': None, 'ticket': 'a/127.0.0.1.2011-03-25.11-53-26.631119a3-a527-4e31-bb48-441247a7064f'}"
p167
sg79
S"<SimpleCookie: session_id_a='127.0.0.1-d0b66a24-6381-4c9d-bb7f-dfdc633fc264'>"
p168
sS'links'
p169
S"[['web2py', 'http://www.web2py.com', 1], ['Python', 'http://www.python.org', 2], ['DePaul CTI', 'http://www.cs.depaul.edu', 3], ['DePaul University', 'http://www.depaul.edu', 5], ['downloads', '/a/default/page/32', 15], ['media / picasa / gallery', '/a/media/picasa/gallery', 16], ['manage media / manage picasa albums / manage photos', '/a/media/picasa/albums', 17], ['setup, application initialization', '/a/setup', 18], ['twitter', '/a/media/social/twitter', 19]]"
p170
sS'posts'
p171
S'<gluon.dal.Rows object at 0xa80992c>'
p172
sS'themes'
p173
S"['0', '1', 'cms', 'pypress', 'test#:#0#:#http://localhost/css/base.css#:#molhokwai@gmail.com', 'test1#:#0#:#http://localhost/css/base1.css#:#herve.mayou@gmail.com']"
p174
sS'theme_stylesheet'
p175
S'None'
p176
sS'meta'
p177
S'<Storage {}>'
p178
sS'_view_environment'
p179
S"{'A': <class 'gluon.html.A'>, 'AppDetails': <class __builtin__.AppDetails at 0xa9c856c>, 'Auth': <class 'gluon.tools.Auth'>, 'B': <class 'gluon.html.B'>, 'BEAUTIFY': <class 'gluon.html.BEAUTIFY'>, 'BODY': <class 'gluon.html.BODY'>, 'BR': <class 'gluon.html.BR'>, 'CENTER': <class 'gluon.html.CENTER'>, 'CLEANUP': <class 'gluon.validators.CLEANUP'>, 'CODE': <class 'gluon.html.CODE'>, ...}"
p180
sS'keywords'
p181
S"'blog, weblog, journal, web, log, web2py, pypress...straight-forward, direct, programming, programmer'"
p182
sS'files'
p183
S'[]'
p184
sS'last_posts'
p185
S"[['jqpuzzle', datetime.datetime(2011, 3, 24, 9, 22, 45), <gluon.html.XML object at 0xa9a49cc>], ['financial_situation', datetime.datetime(2011, 3, 16, 9, 30), <gluon.html.XML object at 0xa9a4ecc>], ['b_home', datetime.datetime(2011, 3, 12, 19, 25, 5), <gluon.html.XML object at 0xa9a47ac>], ['b_help', datetime.datetime(2011, 3, 12, 19, 25, 5), <gluon.html.XML object at 0xa9a4dec>], ['ff0000_home', datetime.datetime(2011, 3, 3, 13, 36, 32), <gluon.html.XML object at 0xa9a424c>]]"
p186
sS'title'
p187
S'"molhokwai.net - \'a\' cm/dms"'
p188
sS'home_page'
p189
S"<Row {'post_text_TCode': 'page_id_24', 'post_att...elete_record': <function <lambda> at 0xa7e3aac>}>"
p190
sS'menu'
p191
S"[['home', False, '/a/default/page/16']]"
p192
sS'flash'
p193
S"''"
p194
sS'theme'
p195
S"'1'"
p196
sS'session_id_name'
p197
S"'session_id_a'"
p198
sS'_custom_commit'
p199
S'None'
p200
sS'session_filename'
p201
S"'/home/herve/development/workspaces/molhokwai.net...ns/127.0.0.1-d0b66a24-6381-4c9d-bb7f-dfdc633fc264'"
p202
sg62
S'<cStringIO.StringO object at 0xa6a1f60>'
p203
sS'description'
p204
S'"molhokwai.net - \'a\' cm/dms, lightweight, simple, straight & direct"'
p205
sS'session_file'
p206
S"<open file '/home/herve/development/workspaces/m...4c9d-bb7f-dfdc633fc264', mode 'rb+' at 0xa9dada0>"
p207
sS'_caller'
p208
S'<function <lambda> at 0xa8e18ec>'
p209
sS'_custom_rollback'
p210
S'None'
p211
sS'pages'
p212
S"[['beliefs', False, '/a/default/page/15'], ['home', False, '/a/default/page/16'], ['community', False, '/a/default/page/18'], ['SMS', False, '/a/default/page/21'], ['', False, '/a/default/page/23'], ['a_home', False, '/a/default/page/24'], ['a_help', False, '/a/default/page/26'], ['help', False, '/a/default/page/27'], ['a_home', False, '/a/default/page/29'], ['siblos', False, '/a/default/page/30'], ['dev', False, '/a/default/page/31'], ['downloads', False, '/a/default/page/32'], ['themes', False, '/a/default/page/35'], ['acknowledgements', False, '/a/default/page/37'], ['test', False, '/a/default/page/38'], ['financial_situation', False, '/a/default/page/46'], ['jqpuzzle', False, '/a/default/page/49']]"
p213
sS'categories'
p214
S"[['misc', 2, '/a/default/category/misc'], ['message', 1, '/a/default/category/message']]"
p215
sS'name'
p216
S'"\'a\' cm/dms"'
p217
sS'auth_users'
p218
S'<gluon.dal.Rows object at 0xa9e31ac>'
p219
sS'help_page'
p220
S"<Row {'post_text_TCode': 'page_id_26', 'post_att...elete_record': <function <lambda> at 0xa7e3454>}>"
p221
sS'session_id'
p222
S"'127.0.0.1-d0b66a24-6381-4c9d-bb7f-dfdc633fc264'"
p223
sS'headers'
p224
S"<Storage {'Expires': 'Fri, 25 Mar 2011 10:53:26 ...he, must-revalidate, post-check=0, pre-check=0'}>"
p225
sS'status'
p226
S'200'
p227
sS'postprocessing'
p228
S'[]'
p229
sS'base_theme'
p230
S'None'
p231
sS'view'
p232
S"'default/error.html'"
p233
ssS'locals'
p234
(dp235
g3
S"'/home/herve/development/workspaces/molhokwai.net/web/applications/a/views/default/error.html'"
p236
sg5
S'\'response.write(\\\'<!DOCTYPE html PUBLIC "-//W3C//D...nks -->\\\\n  \\\\n  </body>\\\\n</html>\\\\n\\\', escape=False)\''
p237
sssS'traceback'
p238
S'Traceback (most recent call last):\n  File "/home/herve/development/workspaces/molhokwai.net/web/gluon/restricted.py", line 186, in restricted\n    ccode = compile2(code,layer)\n  File "/home/herve/development/workspaces/molhokwai.net/web/gluon/restricted.py", line 173, in compile2\n    return compile(code.rstrip().replace(\'\\r\\n\',\'\\n\')+\'\\n\', layer, \'exec\')\n  File "/home/herve/development/workspaces/molhokwai.net/web/applications/a/views/default/error.html", line 191\n    except Exception, ex: pass\n   ^\nIndentationError: unexpected unindent\n'
p239
s.