(dp1
S'output'
p2
S''
sS'layer'
p3
S'/home/herve/development/workspaces/molhokwai.net/web/applications/a/views/default/page.html'
p4
sS'code'
p5
S'if not nake:\n    response.write(\'\\n    \', escape=False)\n    response.write(\'<!DOCTYPE html PUBLIC "-//W3C//DTD XHTML 1.0 Transitional//EN" "http://www.w3.org/TR/xhtml1/DTD/xhtml1-transitional.dtd">\\n<html xmlns="http://www.w3.org/1999/xhtml" xml:lang="\', escape=False)\n    response.write(T.accepted_language or \'en\')\n    response.write(\'">\\n\\n  <head>\\n    <title>\', escape=False)\n    if response.title:\n        response.write(response.title)\n    else:\n        response.write(URL(r=request))\n        pass\n    response.write(\'</title>\\n\\n    <title>\', escape=False)\n    response.write(response.title or request.application)\n    response.write(\'</title>\\n    <meta http-equiv="Content-Type" content="text/html; charset=UTF-8" />\\n    <meta name="keywords" content="\', escape=False)\n    response.write(response.keywords)\n    response.write(\'" />\\n    <meta name="description" content="\', escape=False)\n    response.write(response.description)\n    response.write(\'" />\\n    <meta name="google-site-verification" content="r0Pfq2q9SK7Pk9gkh1NnbsV28-mQoD8LoIGOeUhfer8" />\\n    \', escape=False)\n    if response.refresh:\n        response.write(XML(response.refresh))\n        pass\n    response.write(\'\\n    \\n    <link rel="stylesheet" href="/\', escape=False)\n    response.write(this_app)\n    response.write(\'/static/css/_base.css" type="text/css" media="screen" />\\n    <link rel="stylesheet" href="/\', escape=False)\n    response.write(this_app)\n    response.write(\'/static/css/base.css" type="text/css" media="screen" />\\n    <link rel="stylesheet" href="/\', escape=False)\n    response.write(this_app)\n    response.write(\'/static/css/themes/\', escape=False)\n    response.write(response.theme)\n    response.write(\'/base.css" type="text/css" media="screen" />\\n    <link rel="stylesheet" href="/\', escape=False)\n    response.write(this_app)\n    response.write(\'/static/components/markitup/style.css" type="text/css" media="screen" />\\n    <link rel="stylesheet" href="/\', escape=False)\n    response.write(this_app)\n    response.write(\'/static/components/markitup/sets/default/style.css" type="text/css" media="screen" />\\n    <style type="text/css"></style>\\n    \\n    \', escape=False)\n    response.write(\'<script type="text/javascript">\\n<!--\\n/*\\nWritten by Massimo Di Pierro.\\n\\nThis is a minimalistic AJAX for web2py, for more sophisticated stuff\\nyou should use Scriptacolous or some other AJAX toolkit. Anyway...\\n\\nTo use web2py_ajax.html just make sure you include \\\'web2py_ajax.html\\\'\\nin your layout.html. This provides four functions:\\n\\npopup(url)\\ncollapse(id)\\nfade(id,value) // try value= +0.1 or -0.1\\najax(url,sources,taget) \\n// will send sources[i].value to url and dispaly result in target\\n*/\\n\\nfunction popup(url) {\\n  newwindow=window.open(url,\\\'name\\\',\\\'height=400,width=600\\\');\\n  if (window.focus) {newwindow.focus()}\\n  return false;\\n}\\n\\nfunction collapse(id) {\\n   if(this.document.getElementById(id).style.display=="none")\\n   (this.document.getElementById(id).style.display="block") ;\\n   else (this.document.getElementById(id).style.display="none") ;\\n}\\n\\nfunction fade(id,value) {\\n  var object=document.getElementById(id);\\n  if(value<0 && !object.style.opacity) {\\n     this.document.getElementById(id).style.display="block";\\n     object.style.opacity=1;\\n  }\\n  if(value>0 && object.style.opacity>=1) object.style.opacity=1;\\n  else if(value<0 && object.style.opacity<=0) {\\n     this.document.getElementById(id).style.display="none";\\n     object.style.opacity=0;\\n  }\\n  else {\\n     this.document.getElementById(id).style.display="block";\\n     object.style.opacity-=-value;\\n     setTimeout(function(){fade(id,value);},100);\\n     return false;\\n  }\\n  return true;\\n}\\n\\nfunction ajax(url,sources,target) {\\n  var req = null; \\n  var ctarget=document.getElementById(target);\\n  window.status="connecting...";\\n  if(window.XMLHttpRequest)\\n     req = new XMLHttpRequest(); \\n  else if (window.ActiveXObject)\\n     req  = new ActiveXObject("Microsoft.XMLHTTP");\\n  req.onreadystatechange = function() {\\n     window.status="waiting...";\\n     if(req.readyState == 4)\\n       if(req.status == 200) {\\n          window.status=\\\'Ajax Done!\\\'\\n          try { \\n             ctarget.innerHTML=req.responseText; \\n             try {ctarget.scrollTop=ctarget.scrollHeight-ctarget.clientHeight;}\\n             catch(err) {}\\n          } catch(err) { ctarget.value=req.responseText; }\\n       } else alert("AJAX Error: " + req.status);\\n  }\\n  var query=""\\n  for(i=0; i<sources.length; i++) {\\n     if(i>0) query=query+"&";\\n     query=query+encodeURIComponent(sources[i])+"="+encodeURIComponent(document.getElementById(sources[i]).value);\\n  }\\n  req.open("POST",url,true); \\n  req.setRequestHeader("Content-Type", "application/x-www-form-urlencoded"); \\n  req.send(query); \\n} \\n//-->\\n</script>\', escape=False)\n    response.write(\'\\n\\n    <script type="text/javascript">\\n      var server={\\n          request : {\\n              application : \\\'\', escape=False)\n    response.write(this_app)\n    response.write(\'\\\'\\n          },\\n          pages : []\\n      };\\n    </script>\\n    <script type="text/javascript" src="/\', escape=False)\n    response.write(this_app)\n    response.write(\'/static/components/molhokwai/namespace.js"></script>\\n    <script type="text/javascript" src="/\', escape=False)\n    response.write(this_app)\n    response.write(\'/static/components/jquery/jquery-1.4.2.min.js"></script>\\n    <script type="text/javascript" src="/\', escape=False)\n    response.write(this_app)\n    response.write(\'/static/components/markitup/jquery.markitup.js"></script>\\n    <script type="text/javascript" src="/\', escape=False)\n    response.write(this_app)\n    response.write(\'/static/custom/script.js"></script>\\n    <script src="http://www.google.com/jsapi?key=ABQIAAAAhDaHyndn3TRHW8aVVgNfsBTPFwiohxerrbIfi_L7lDZ1YENwhRROxgxsy_RTT4IRmc8SWIpWu3KrsQ" type="text/javascript"></script>\\n    <script type="text/javascript" src="/\', escape=False)\n    response.write(this_app)\n    response.write(\'/static/components/google/search_init.js"></script>\\n    <script type="text/javascript">\\n      $(document).ready(function(){\\n          var browser_not=true;\\n          try { \\n              browser_not=!($.browser.mozilla || $.browser.webkit); \\n          }\\n          catch(e) {} \\n          if (browser_not){\\n              $(\\\'#content\\\').append(\\\'<div class="text-alignc margt5pc"><em>\', escape=False)\n    response.write(T("(Graphical design not tested (corrected) on this browser...)"))\n    response.write(\'</em></div>\\\');\\n          }\\n      });      \\n    </script>\\n\\n  </head>\\n\\n  <body>\\n\\n    <div id="wrapper" class="margt2pc  width60pc">\\n\\n      <div id="user-menu" class="right">\\n         \', escape=False)\n    if \'auth\' in globals():\n        response.write(\'\\n           \', escape=False)\n        if not auth.user:\n            response.write(\' \\n             \', escape=False)\n            response.write(A(T(\'login\'),_href=URL(r=request,c=\'default\',f=\'user/login\')))\n            response.write(\'\\n           \', escape=False)\n        else:\n            response.write(\'\\n             <!-- \', escape=False)\n            response.write(auth.user.display_name)\n            response.write(\' -->\\n             \', escape=False)\n            response.write(A(T(\'logout\'),_href=URL(r=request,c=\'default\',f=\'user/logout\')))\n            response.write(\' | \\n           \', escape=False)\n            pass\n        response.write(\'\\n         \', escape=False)\n        pass\n    response.write(\'\\n      </div>\\n      <!-- end #user-menu -->\\n\\n      <div id="cli_web" class="left margt2pc  width100pc">\\n        <form onsubmit="return false;">\\n            <input type="text" id="_cmd" name="_cmd" class="width30pc transparent"/>\\n            <font id="_cmd_msg" class="flash small">\\n                \', escape=False)\n    if session.cli_web_flash:\n        response.write(session.cli_web_flash)\n        session.cli_web_flash=False\n        pass\n    response.write(\'\\n                \', escape=False)\n    flash = session.flash if session.flash else response.flash\n    response.write(\'\\n                \', escape=False)\n    if flash:\n        response.write(flash)\n        pass\n    response.write(\'\\n            </font>\\n            <input type="hidden" id="_cmd_history_cur" value="-1"/>\\n        </form>\\n      </div>\\n      <!-- end #cli_web -->\\n    \\n      <div id="content" class="padl3pc left margt5pc width100pc">\\n        <div id="searchcontrol"></div>\\n        \', escape=False)\n    response.write(\'\\n\', escape=False)\n    pass\nresponse.write(\'\\n\\n\', escape=False)\nif post.is_translated:\n    response.write(\'\\n    \', escape=False)\n    response.write(\'<div class="text-alignr padr1pc">\\n        <a href="\', escape=False)\n    response.write(URL(r=request,f=request.path,args=request.args,vars=dict(_language=\'en-en\')))\n    response.write(\'" title="manual translation">English</a> \\n        | <a href="\', escape=False)\n    response.write(URL(r=request,f=request.path,args=request.args,vars=dict(_language=\'fr-fr\')))\n    response.write(\'" title="traduction manuelle">Fran\\xc3\\xa7ais</a>\\n</div>\\n\', escape=False)\n    response.write(\'\\n\', escape=False)\n    pass\nresponse.write(\'\\n<!--h2><em>\', escape=False)\nresponse.write(T("you are here"))\nresponse.write(\':</em> \', escape=False)\nresponse.write(post.post_title)\nresponse.write(\'</h2 -->\\n\\n\', escape=False)\nif post.is_translated:\n    response.write(\'\\n    \', escape=False)\n    response.write(XML(T(post.post_text_TCode)))\n    response.write(\'\\n\', escape=False)\nelse:\n    response.write(\'\\n    \', escape=False)\n    response.write(XML(post.post_text))\n    response.write(\'\\n\', escape=False)\n    pass\nresponse.write(\'\\n\', escape=False)\nif session.authorized:\n    response.write(\'<a href="/\', escape=False)\n    response.write(request.application)\n    response.write(\'/default/edit/page/\', escape=False)\n    response.write(post.id)\n    response.write(\'" class="color-transparent">\', escape=False)\n    response.write(T("Edit this entry"))\n    response.write(\'.</a>\', escape=False)\n    pass\nresponse.write(\'\\n\', escape=False)\nresponse.write(\'\\n      </div>\\n      <!-- end #content -->\\n\\n      <div id="utility" class="clear">&nbsp;</div>\\n\\n      <div id="footer">\', escape=False)\nresponse.write(A(T(\'acknowledgements\'), _href=URL( r=request, c=\'default\', f=\'page\', args=[\'acknowledgements\'])))\nresponse.write(\'</div>\\n        \\n    </div>\\n    <!-- end #wrapper -->\\n\\n    <div id="tracking">\\n        <script type="text/javascript" id="tracking_src">\\n            var gaJsHost = (("https:" == document.location.protocol) ? "https://ssl." : "http://www.");\\n            document.write(unescape("%3Cscript src=\\\'" + gaJsHost + "google-analytics.com/ga.js\\\' type=\\\'text/javascript\\\'%3E%3C/script%3E"));\\n        </script>\\n        <script type="text/javascript" id="tracking_process">\\n            try {\\n                var pageTracker = _gat._getTracker("UA-5101967-1");\\n                pageTracker._initData();\\n                pageTracker._trackPageview();\\n            }\\n            catch(e) {\\n                if (console) try{console.log(e);}catch(e){}\\n            }\\n        </script>\\n    </div>    \\n    <!-- end #tracking -->\\n\\n    <div id="links">\\n             \', escape=False)\nresponse.write(A(T(\'add page/post\'),_href=URL(r=request,c=\'default\',f=\'add/page\'), _class=\'color-transparent\'))\nresponse.write(\'\\n             \', escape=False)\n_post=None\ntry: _post=post\nexcept Exception, ex: pass\nresponse.write(\'\\n             \', escape=False)\nif _post:\n    response.write(\'\\n                 \', escape=False)\n    if _post.post_type==\'page\':\n        response.write(\'\\n                     \', escape=False)\n        response.write(A(T(\'edit page/post ?\'),_href=URL(r=request,c=\'default\',f=\'edit/page/%i\' % _post.id), _class=\'color-transparent\'))\n        response.write(\'\\n                 \', escape=False)\n    else:\n        response.write(\'\\n                     \', escape=False)\n        response.write(A(T(\'edit page/post ?\'),_href=URL(r=request,c=\'default\',f=\'edit/post/%i\' % _post.id), _class=\'color-transparent\'))\n        response.write(\'\\n                 \', escape=False)\n        pass\n    response.write(\'\\n             \', escape=False)\n    pass\nresponse.write(\'\\n             \', escape=False)\nif response.home_page:\n    response.write(\'\\n                 \', escape=False)\n    response.write(A(T(\'root\'),_href=URL(r=request,c=\'default\',f=\'page/%i\' % response.home_page.id), _class=\'color-transparent\'))\n    response.write(\'\\n             \', escape=False)\n    pass\nresponse.write(\'\\n             \', escape=False)\nif response.help_page:\n    response.write(\'\\n                 \', escape=False)\n    response.write(A(T(\'help\'),_href=URL(r=request,c=\'default\',f=\'page/%i\' % response.help_page.id), _class=\'color-transparent\'))\n    response.write(\'\\n             \', escape=False)\n    pass\nresponse.write(\'\\n             \\n             \', escape=False)\nresponse.write(A(T(\'links\'),_href=URL(r=request,c=\'default\',f=\'manage/link\'), _class=\'color-transparent\'))\nresponse.write(\'\\n             \', escape=False)\nif response.links:\n    response.write(\'\\n                 \', escape=False)\n    for _name,_link,_id in response.links:\n        response.write(\'\\n                         \', escape=False)\n        response.write(A(T(_name),_href=_link, _class=\'color-transparent\'))\n        response.write(\'\\n                 \', escape=False)\n        pass\n    response.write(\'\\n             \', escape=False)\n    pass\nresponse.write(\'\\n             \\n             \', escape=False)\nresponse.write(A(T(\'pages\'),_href=URL(r=request,c=\'default\',f=\'pages\'), _class=\'color-transparent\'))\nresponse.write(\'\\n             \', escape=False)\nif response.pages:\n    response.write(\'\\n                 \', escape=False)\n    for _title,_false,_link in response.links:\n        response.write(\'\\n                         \', escape=False)\n        response.write(A(T(_title),_href=_link, _class=\'color-transparent\'))\n        response.write(\'\\n                 \', escape=False)\n        pass\n    response.write(\'\\n             \', escape=False)\n    pass\nresponse.write(\'\\n    </div>\\n    <!-- end #links -->\\n  \\n  </body>\\n</html>\\n\', escape=False)'
p6
sS'snapshot'
p7
(dp8
S'exception'
p9
(dp10
S'__hash__'
p11
S"<method-wrapper '__hash__' of exceptions.TypeError object at 0x86fdecc>"
p12
sS'__setattr__'
p13
S"<method-wrapper '__setattr__' of exceptions.TypeError object at 0x86fdecc>"
p14
sS'__reduce_ex__'
p15
S'<built-in method __reduce_ex__ of exceptions.TypeError object at 0x86fdecc>'
p16
sS'__getslice__'
p17
S"<method-wrapper '__getslice__' of exceptions.TypeError object at 0x86fdecc>"
p18
sS'__getitem__'
p19
S"<method-wrapper '__getitem__' of exceptions.TypeError object at 0x86fdecc>"
p20
sS'__setstate__'
p21
S'<built-in method __setstate__ of exceptions.TypeError object at 0x86fdecc>'
p22
sS'__reduce__'
p23
S'<built-in method __reduce__ of exceptions.TypeError object at 0x86fdecc>'
p24
sS'__str__'
p25
S"<method-wrapper '__str__' of exceptions.TypeError object at 0x86fdecc>"
p26
sS'args'
p27
S'("\'NoneType\' object is not iterable",)'
p28
sS'__getattribute__'
p29
S"<method-wrapper '__getattribute__' of exceptions.TypeError object at 0x86fdecc>"
p30
sS'__class__'
p31
S"<type 'exceptions.TypeError'>"
p32
sS'__delattr__'
p33
S"<method-wrapper '__delattr__' of exceptions.TypeError object at 0x86fdecc>"
p34
sS'__repr__'
p35
S"<method-wrapper '__repr__' of exceptions.TypeError object at 0x86fdecc>"
p36
sS'__dict__'
p37
S'{}'
p38
sS'__doc__'
p39
S"'Inappropriate argument type.'"
p40
sS'__init__'
p41
S"<method-wrapper '__init__' of exceptions.TypeError object at 0x86fdecc>"
p42
sS'__new__'
p43
S'<built-in method __new__ of type object at 0x8239080>'
p44
ssS'evalue'
p45
S"'NoneType' object is not iterable"
p46
sS'request'
p47
(dp48
S'function'
p49
S"'page'"
p50
sS'body'
p51
S'<cStringIO.StringO object at 0x87070a0>'
p52
sS'wsgi'
p53
S"<Storage {'start_response': <function <lambda> a...ING': 'gzip,deflate', 'HTTP_KEEP_ALIVE': '115'}}>"
p54
sS'extension'
p55
S"'html'"
p56
sS'vars'
p57
S'<Storage {}>'
p58
sS'cid'
p59
S'None'
p60
sS'url'
p61
S'<gluon.html.XML object at 0x87070cc>'
p62
sS'raw_extension'
p63
S'None'
p64
sg27
S"['24']"
p65
sS'controller'
p66
S"'default'"
p67
sS'cookies'
p68
S"<SimpleCookie: SESS29af1facda0a866a687d5055f2fad...-6f70dfb8-bc7e-4b26-8015-735407cb899d' theme='1'>"
p69
sS'application'
p70
S"'a'"
p71
sS'ajax'
p72
S'False'
p73
sS'client'
p74
S"'127.0.0.1'"
p75
sS'env'
p76
S"<Storage {'wsgi_multithread': True, 'http_accept...nput': <socket._fileobject object at 0x8b92f7c>}>"
p77
sS'raw_args'
p78
S"'24'"
p79
sS'get_vars'
p80
S'<Storage {}>'
p81
sS'folder'
p82
S"'/home/herve/development/workspaces/molhokwai.net/web/applications/a/'"
p83
sS'now'
p84
S'datetime.datetime(2011, 1, 14, 14, 39, 53, 504446)'
p85
sS'post_vars'
p86
S'<Storage {}>'
p87
ssS'frames'
p88
(lp89
(dp90
S'file'
p91
S'/home/herve/development/workspaces/molhokwai.net/web/gluon/restricted.py'
p92
sS'dump'
p93
(dp94
S'environment'
p95
S"{'A': <class 'gluon.html.A'>, 'AppDetails': <class __builtin__.AppDetails at 0x88a917c>, 'Auth': <class 'gluon.tools.Auth'>, 'B': <class 'gluon.html.B'>, 'BEAUTIFY': <class 'gluon.html.BEAUTIFY'>, 'BODY': <class 'gluon.html.BODY'>, 'BR': <class 'gluon.html.BR'>, 'CENTER': <class 'gluon.html.CENTER'>, 'CLEANUP': <class 'gluon.validators.CLEANUP'>, 'CODE': <class 'gluon.html.CODE'>, ...}"
p96
sS'ccode'
p97
S'<code object <module> at 0x8a06848, file "/home/.../applications/a/views/default/page.html", line 1>'
p98
ssS'lnum'
p99
I188
sS'lines'
p100
(dp101
I192
S'        # XXX Show exception in Wing IDE if running in debugger'
p102
sI183
S'        if type(code) == types.CodeType:'
p103
sI184
S'            ccode = code'
p104
sI185
S'        else:'
p105
sI186
S'            ccode = compile2(code,layer)'
p106
sI187
S''
sI188
S'        exec ccode in environment'
p107
sI189
S'    except HTTP:'
p108
sI190
S'        raise'
p109
sI191
S'    except Exception:'
p110
ssS'call'
p111
S'(code="if not nake:\\n    response.write(\'\\\\n    \', escape...nks -->\\\\n  \\\\n  </body>\\\\n</html>\\\\n\', escape=False)", environment={\'A\': <class \'gluon.html.A\'>, \'AppDetails\': <class __builtin__.AppDetails at 0x88a917c>, \'Auth\': <class \'gluon.tools.Auth\'>, \'B\': <class \'gluon.html.B\'>, \'BEAUTIFY\': <class \'gluon.html.BEAUTIFY\'>, \'BODY\': <class \'gluon.html.BODY\'>, \'BR\': <class \'gluon.html.BR\'>, \'CENTER\': <class \'gluon.html.CENTER\'>, \'CLEANUP\': <class \'gluon.validators.CLEANUP\'>, \'CODE\': <class \'gluon.html.CODE\'>, ...}, layer=\'/home/herve/development/workspaces/molhokwai.net/web/applications/a/views/default/page.html\')'
p112
sS'func'
p113
S'restricted'
p114
sa(dp115
g91
S'/home/herve/development/workspaces/molhokwai.net/web/applications/a/views/default/page.html'
p116
sg93
(dp117
sg99
I165
sg100
(dp118
I160
S"response.write('\\n             \\n             ', escape=False)"
p119
sI161
S"response.write(A(T('pages'),_href=URL(r=request,c='default',f='pages'), _class='color-transparent'))"
p120
sI162
S"response.write('\\n             ', escape=False)"
p121
sI163
S'if response.pages:'
p122
sI164
S"    response.write('\\n                 ', escape=False)"
p123
sI165
S'    for _title,_false,_link in response.links:'
p124
sI166
S"        response.write('\\n                         ', escape=False)"
p125
sI167
S"        response.write(A(T(_title),_href=_link, _class='color-transparent'))"
p126
sI168
S"        response.write('\\n                 ', escape=False)"
p127
sI169
S'        pass'
p128
sI170
S"    response.write('\\n             ', escape=False)"
p129
sI171
S'    pass'
p130
sI172
S"response.write('\\n    </div>\\n    <!-- end #links -->\\n  \\n  </body>\\n</html>\\n', escape=False)"
p131
sI156
S"        response.write('\\n                 ', escape=False)"
p132
sI157
S'        pass'
p133
sI158
S"    response.write('\\n             ', escape=False)"
p134
sI159
S'    pass'
p135
ssg111
S'()'
p136
sg113
S'<module>'
p137
sasS'pyver'
p138
S'Python 2.5.1: /usr/local/bin/python'
p139
sS'session'
p140
(dp141
S'auth'
p142
S'None'
p143
ssS'etype'
p144
S"<type 'exceptions.TypeError'>"
p145
sS'date'
p146
S'Fri Jan 14 14:39:53 2011'
p147
sS'response'
p148
(dp149
S'_vars'
p150
S"{'nake': False, 'post': <Row {'post_text_TCode': 'page_id_24', 'post_att...elete_record': <function <lambda> at 0x86e8454>}>}"
p151
sg68
S"<SimpleCookie: session_id_a='127.0.0.1-9d8fbcc1-53af-4dc6-a862-098120d08f05'>"
p152
sS'meta'
p153
S'<Storage {}>'
p154
sS'anon_user'
p155
S"<Row {'auth_event': <gluon.dal.Set object at 0x8...elete_record': <function <lambda> at 0x87f8cdc>}>"
p156
sS'_view_environment'
p157
S"{'A': <class 'gluon.html.A'>, 'AppDetails': <class __builtin__.AppDetails at 0x88a917c>, 'Auth': <class 'gluon.tools.Auth'>, 'B': <class 'gluon.html.B'>, 'BEAUTIFY': <class 'gluon.html.BEAUTIFY'>, 'BODY': <class 'gluon.html.BODY'>, 'BR': <class 'gluon.html.BR'>, 'CENTER': <class 'gluon.html.CENTER'>, 'CLEANUP': <class 'gluon.validators.CLEANUP'>, 'CODE': <class 'gluon.html.CODE'>, ...}"
p158
sS'keywords'
p159
S"'blog, weblog, journal, web, log, web2py, pypress...straight-forward, direct, programming, programmer'"
p160
sS'files'
p161
S'[]'
p162
sS'_caller'
p163
S'<function <lambda> at 0x891ed84>'
p164
sS'title'
p165
S'"molhokwai.net - \'a\' cm/dms"'
p166
sS'home_page'
p167
S"<Row {'post_text_TCode': 'page_id_24', 'post_att...elete_record': <function <lambda> at 0x87f848c>}>"
p168
sS'auth_users'
p169
S'<gluon.dal.Rows object at 0x87eb34c>'
p170
sS'flash'
p171
S"''"
p172
sS'session_id_name'
p173
S"'session_id_a'"
p174
sS'_custom_commit'
p175
S'None'
p176
sS'session_filename'
p177
S"'/home/herve/development/workspaces/molhokwai.net...ns/127.0.0.1-9d8fbcc1-53af-4dc6-a862-098120d08f05'"
p178
sg51
S'<cStringIO.StringO object at 0x88c6b00>'
p179
sS'description'
p180
S'"molhokwai.net - \'a\' cm/dms, lightweight, simple, straight & direct"'
p181
sS'session_file'
p182
S"<open file '/home/herve/development/workspaces/m...4dc6-a862-098120d08f05', mode 'rb+' at 0x8af5f98>"
p183
sS'_custom_rollback'
p184
S'None'
p185
sS'pages'
p186
S"[['beliefs', False, '/a/default/page/15'], ['home', False, '/a/default/page/16'], ['community', False, '/a/default/page/18'], ['SMS', False, '/a/default/page/21'], ['', False, '/a/default/page/23'], ['a_home', False, '/a/default/page/24'], ['a_help', False, '/a/default/page/26'], ['help', False, '/a/default/page/27'], ['a_home', False, '/a/default/page/29'], ['siblos', False, '/a/default/page/30'], ['dev', False, '/a/default/page/31'], ['downloads', False, '/a/default/page/32'], ['themes', False, '/a/default/page/35'], ['media upload', False, '/a/default/page/36'], ['acknowledgements', False, '/a/default/page/37']]"
p187
sS'categories'
p188
S"[['misc', 2, '/a/default/category/misc'], ['message', 1, '/a/default/category/message']]"
p189
sS'help_page'
p190
S"<Row {'post_text_TCode': 'page_id_26', 'post_att...elete_record': <function <lambda> at 0x87f8924>}>"
p191
sS'session_id'
p192
S"'127.0.0.1-9d8fbcc1-53af-4dc6-a862-098120d08f05'"
p193
sS'headers'
p194
S"<Storage {'Expires': 'Fri, 14 Jan 2011 13:39:53 ...he, must-revalidate, post-check=0, pre-check=0'}>"
p195
sS'status'
p196
S'200'
p197
sS'postprocessing'
p198
S'[]'
p199
sS'menu'
p200
S"[['home', False, '/a/default/page/16'], ['community', False, '/a/default/page/18']]"
p201
sS'view'
p202
S"'default/page.html'"
p203
ssS'locals'
p204
(dp205
S'protocol'
p206
S"'http'"
p207
sS'app_details'
p208
S'<__builtin__.AppDetails instance at 0x883abac>'
p209
sS'Service'
p210
S"<class 'gluon.tools.Service'>"
p211
sS'OBJECT'
p212
S"<class 'gluon.html.OBJECT'>"
p213
sS'SQLDB'
p214
S"<class 'gluon.dal.DAL'>"
p215
sS'_post'
p216
S"<Row {'post_text_TCode': 'page_id_24', 'post_att...elete_record': <function <lambda> at 0x86e8454>}>"
p217
sg140
S"<Storage {'auth': None}>"
p218
sS'LINK'
p219
S"<class 'gluon.html.LINK'>"
p220
sS'BR'
p221
S"<class 'gluon.html.BR'>"
p222
sS'local_import'
p223
S'<function <lambda> at 0x8b80e64>'
p224
sS'OPTGROUP'
p225
S"<class 'gluon.html.OPTGROUP'>"
p226
sS'expressions'
p227
S'{\'rel_url_and_end_tags_find\': [\'[0-9]{0,1}/[-A-Za-z0-9_\\\\$\\\\.\\\\+\\\\!\\\\*\\\\(\\\\),;:@&=\\\\?/~\\\\#\\\\%]*[^]\\\'\\\\.}>\\\\),\\\\"]\'], \'url_find\': [\'([0-9]{1,3}\\\\.[0-9]{1,3}\\\\.[0-9]{1,3}\\\\.[0-9]{1,3}|...z0-9_\\\\$\\\\.\\\\+\\\\!\\\\*\\\\(\\\\),;:@&=\\\\?/~\\\\#\\\\%]*[^]\\\'\\\\.}>\\\\),\\\\"]\', r\'([0-9]{1,3}\\.[0-9]{1,3}\\.[0-9]{1,3}\\.[0-9]{1,3}|...ww|ftp)[-A-Za-z0-9]*\\.)[-A-Za-z0-9\\.]+)(:[0-9]*)?\', r\'(~/|/|\\./)([-A-Za-z0-9_\\$\\.\\+\\!\\*\\(\\),;:@&=\\?/~\\#\\%]|\\\\)+\', r"\'\\<((mailto:)|)[-A-Za-z0-9\\.]+@[-A-Za-z0-9\\.]+"]}'
p228
sS'link_labels'
p229
S"{'link_title': 'Name', 'link_url': 'URL'}"
p230
sS'PRE'
p231
S"<class 'gluon.html.PRE'>"
p232
sS'IS_INT_IN_RANGE'
p233
S"<class 'gluon.validators.IS_INT_IN_RANGE'>"
p234
sS'IS_LOWER'
p235
S"<class 'gluon.validators.IS_LOWER'>"
p236
sS'IS_STRONG'
p237
S"<class 'gluon.validators.IS_STRONG'>"
p238
sS'Recaptcha'
p239
S"<class 'gluon.tools.Recaptcha'>"
p240
sS'cache'
p241
S'<gluon.cache.Cache object at 0x870798c>'
p242
sS'IS_IN_DB'
p243
S"<class 'gluon.validators.IS_IN_DB'>"
p244
sS'TAG'
p245
S'<gluon.html.__TAG__ object at 0x55a1cc>'
p246
sS'SQLField'
p247
S"<class 'gluon.dal.Field'>"
p248
sS'BODY'
p249
S"<class 'gluon.html.BODY'>"
p250
sS'IS_DATE_IN_RANGE'
p251
S"<class 'gluon.validators.IS_DATE_IN_RANGE'>"
p252
sS'TH'
p253
S"<class 'gluon.html.TH'>"
p254
sS'URL'
p255
S'<function _URL at 0x8b92d4c>'
p256
sS'db'
p257
S"<DAL {'auth_permission': <Table {'ALL': <gluon.d..._name': <gluon.dal.Field object at 0x883adcc>}>}>"
p258
sS'auth'
p259
S'<gluon.tools.Auth object at 0x8b5d1ec>'
p260
sS'P'
S"<class 'gluon.html.P'>"
p261
sS'TFOOT'
p262
S"<class 'gluon.html.TFOOT'>"
p263
sS'XHTML'
p264
S"<class 'gluon.html.XHTML'>"
p265
sS'datetime'
p266
S"<module 'datetime' from '/usr/local/lib/python2.5/lib-dynload/datetime.so'>"
p267
sS'ON'
p268
S'True'
p269
sS'OL'
p270
S"<class 'gluon.html.OL'>"
p271
sS'TEXTAREA'
p272
S"<class 'gluon.html.TEXTAREA'>"
p273
sS'Struct'
p274
S'<class __builtin__.Struct at 0x8a7c62c>'
p275
sS'MENU'
p276
S"<class 'gluon.html.MENU'>"
p277
sS'a_convert'
p278
S'<__builtin__.aConvert instance at 0x87eb52c>'
p279
sS'EM'
p280
S"<class 'gluon.html.EM'>"
p281
sS'CODE'
p282
S"<class 'gluon.html.CODE'>"
p283
sS'HTTP'
p284
S"<class 'gluon.http.HTTP'>"
p285
sS'url_finders'
p286
S'[<_sre.SRE_Pattern object at 0x87545d8>, <_sre.SRE_Pattern object at 0x8761710>, <_sre.SRE_Pattern object at 0x85688b8>, <_sre.SRE_Pattern object at 0x8681c50>]'
p287
sS'log_wrapped'
p288
S'<function log_wrapped at 0x87f8e64>'
p289
sS'HR'
p290
S"<class 'gluon.html.HR'>"
p291
sS'comment_labels'
p292
S"{'comment_author': 'Name', 'comment_author_email': 'Email', 'comment_author_website': 'Website', 'comment_text': 'Comment', 'post_id': 'Post ID'}"
p293
sS'IS_DATETIME'
p294
S"<class 'gluon.validators.IS_DATETIME'>"
p295
sS'HEAD'
p296
S"<class 'gluon.html.HEAD'>"
p297
sS'LABEL'
p298
S"<class 'gluon.html.LABEL'>"
p299
sS'cat_labels'
p300
S"{'category_name': 'Name'}"
p301
sS'META'
p302
S"<class 'gluon.html.META'>"
p303
sS'print_wrapped'
p304
S'<function print_wrapped at 0x87f8c34>'
p305
sS'SELECT'
p306
S"<class 'gluon.html.SELECT'>"
p307
sS'CENTER'
p308
S"<class 'gluon.html.CENTER'>"
p309
sS'prettydate'
p310
S'<function prettydate at 0x86e809c>'
p311
sS'Crud'
p312
S"<class 'gluon.tools.Crud'>"
p313
sS'Auth'
p314
S"<class 'gluon.tools.Auth'>"
p315
sS'IS_EQUAL_TO'
p316
S"<class 'gluon.validators.IS_EQUAL_TO'>"
p317
sS'IS_LIST_OF'
p318
S"<class 'gluon.validators.IS_LIST_OF'>"
p319
sS'SQLFORM'
p320
S"<class 'gluon.sqlhtml.SQLFORM'>"
p321
sS'file_labels'
p322
S"{'file': 'File', 'filename': 'Enter file name'}"
p323
sS'LOAD'
p324
S'<gluon.compileapp.LoadFactory object at 0x87077ac>'
p325
sS'redirect'
p326
S'<function redirect at 0x1d125c>'
p327
sS'FIELDSET'
p328
S"<class 'gluon.html.FIELDSET'>"
p329
sS'__builtins__'
p330
S"{'ArithmeticError': <type 'exceptions.ArithmeticError'>, 'AssertionError': <type 'exceptions.AssertionError'>, 'AttributeError': <type 'exceptions.AttributeError'>, 'BaseException': <type 'exceptions.BaseException'>, 'DeprecationWarning': <type 'exceptions.DeprecationWarning'>, 'EOFError': <type 'exceptions.EOFError'>, 'Ellipsis': Ellipsis, 'EnvironmentError': <type 'exceptions.EnvironmentError'>, 'Exception': <type 'exceptions.Exception'>, 'False': False, ...}"
p331
sS'embed64'
p332
S'<function embed64 at 0x558aac>'
p333
sS'INPUT'
p334
S"<class 'gluon.html.INPUT'>"
p335
sS'EMBED'
p336
S"<class 'gluon.html.EMBED'>"
p337
sS'IS_IMAGE'
p338
S"<class 'gluon.validators.IS_IMAGE'>"
p339
sS'H2'
p340
S"<class 'gluon.html.H2'>"
p341
sS'H3'
p342
S"<class 'gluon.html.H3'>"
p343
sS'H1'
p344
S"<class 'gluon.html.H1'>"
p345
sS'H6'
p346
S"<class 'gluon.html.H6'>"
p347
sS'H4'
p348
S"<class 'gluon.html.H4'>"
p349
sS'H5'
p350
S"<class 'gluon.html.H5'>"
p351
sS'UL'
p352
S"<class 'gluon.html.UL'>"
p353
sS'IS_UPPER'
p354
S"<class 'gluon.validators.IS_UPPER'>"
p355
sS'xmlescape'
p356
S'<function xmlescape at 0x5584c4>'
p357
sS'IS_TIME'
p358
S"<class 'gluon.validators.IS_TIME'>"
p359
sg171
S"''"
p360
sS'OPTION'
p361
S"<class 'gluon.html.OPTION'>"
p362
sS'TITLE'
p363
S"<class 'gluon.html.TITLE'>"
p364
sS'CRYPT'
p365
S"<class 'gluon.validators.CRYPT'>"
p366
sS'administrators_emails'
p367
S"['molhokwai@gmail.com']"
p368
sS'IS_EMPTY_OR'
p369
S"<class 'gluon.validators.IS_EMPTY_OR'>"
p370
sS'MARKMIN'
p371
S"<class 'gluon.html.MARKMIN'>"
p372
sS'current_language'
p373
S"'en-en'"
p374
sS'this_app'
p375
S"'a'"
p376
sS'AppDetails'
p377
S'<class __builtin__.AppDetails at 0x88a917c>'
p378
sS'post'
p379
S"<Row {'post_text_TCode': 'page_id_24', 'post_att...elete_record': <function <lambda> at 0x86e8454>}>"
p380
sS'nake'
p381
g73
sS'service'
p382
S'<gluon.tools.Service object at 0x8b5d34c>'
p383
sS'SCRIPT'
p384
S"<class 'gluon.html.SCRIPT'>"
p385
sS'geocode'
p386
S'<function geocode at 0x86e7a74>'
p387
sS'TABLE'
p388
S"<class 'gluon.html.TABLE'>"
p389
sS'IS_IPV4'
p390
S"<class 'gluon.validators.IS_IPV4'>"
p391
sS'IS_LENGTH'
p392
S"<class 'gluon.validators.IS_LENGTH'>"
p393
sS'XML'
p394
S"<class 'gluon.html.XML'>"
p395
sS'B'
S"<class 'gluon.html.B'>"
p396
sS'IMG'
p397
S"<class 'gluon.html.IMG'>"
p398
sS'SQLTABLE'
p399
S"<class 'gluon.sqlhtml.SQLTABLE'>"
p400
sS'IS_MATCH'
p401
S"<class 'gluon.validators.IS_MATCH'>"
p402
sS'IS_ALPHANUMERIC'
p403
S"<class 'gluon.validators.IS_ALPHANUMERIC'>"
p404
sS'SPAN'
p405
S"<class 'gluon.html.SPAN'>"
p406
sS'IS_SLUG'
p407
S"<class 'gluon.validators.IS_SLUG'>"
p408
sS'CLEANUP'
p409
S"<class 'gluon.validators.CLEANUP'>"
p410
sS'fetch'
p411
S'<function fetch at 0x86e79cc>'
p412
sS'IS_DATE'
p413
S"<class 'gluon.validators.IS_DATE'>"
p414
sS'IS_EMAIL'
p415
S"<class 'gluon.validators.IS_EMAIL'>"
p416
sS'IS_NOT_EMPTY'
p417
S"<class 'gluon.validators.IS_NOT_EMPTY'>"
p418
sg47
S"<Storage {'function': 'page', 'body': <cStringIO... 14, 39, 53, 504446), 'post_vars': <Storage {}>}>"
p419
sS'BEAUTIFY'
p420
S"<class 'gluon.html.BEAUTIFY'>"
p421
sS'TBODY'
p422
S"<class 'gluon.html.TBODY'>"
p423
sS'Field'
p424
S"<class 'gluon.dal.Field'>"
p425
sS'Mail'
p426
S"<class 'gluon.tools.Mail'>"
p427
sS'DIV'
p428
S"<class 'gluon.html.DIV'>"
p429
sS'LEGEND'
p430
S"<class 'gluon.html.LEGEND'>"
p431
sS'post_labels'
p432
S"{'post_category': 'Category', 'post_text': 'Post', 'post_text_TCode': 'Translation code (code & language texts must be set in the translation files)', 'post_time': 'Post Date', 'post_title': 'Title', 'post_type': 'Type', 'show_in_menu': 'Show in menu'}"
p433
sS'global_site_url'
p434
S"'http://localhost:8001'"
p435
sS'DAL'
p436
S"<class 'gluon.dal.DAL'>"
p437
sS'TT'
p438
S"<class 'gluon.html.TT'>"
p439
sS'TR'
p440
S"<class 'gluon.html.TR'>"
p441
sS'this_app_url'
p442
S"'http://localhost:8001/a'"
p443
sS'LI'
p444
S"<class 'gluon.html.LI'>"
p445
sS'IFRAME'
p446
S"<class 'gluon.html.IFRAME'>"
p447
sS'TD'
p448
S"<class 'gluon.html.TD'>"
p449
sS'PluginManager'
p450
S"<class 'gluon.tools.PluginManager'>"
p451
sS'IS_URL'
p452
S"<class 'gluon.validators.IS_URL'>"
p453
sS'A'
S"<class 'gluon.html.A'>"
p454
sS'STYLE'
p455
S"<class 'gluon.html.STYLE'>"
p456
sS'rel_url_and_end_tags_finders'
p457
S'[<_sre.SRE_Pattern object at 0x85e0f40>]'
p458
sS'IS_DATETIME_IN_RANGE'
p459
S"<class 'gluon.validators.IS_DATETIME_IN_RANGE'>"
p460
sS'HTML'
p461
S"<class 'gluon.html.HTML'>"
p462
sS'FORM'
p463
S"<class 'gluon.html.FORM'>"
p464
sS'I'
S"<class 'gluon.html.I'>"
p465
sS'crud'
p466
S'<gluon.tools.Crud object at 0x8b5d76c>'
p467
sS'IS_NOT_IN_DB'
p468
S"<class 'gluon.validators.IS_NOT_IN_DB'>"
p469
sS'aConvert'
p470
S'<class __builtin__.aConvert at 0x8a7c2fc>'
p471
sS'app_config'
p472
S'<Row {\'APP_METAS\': ["molhokwai.net - \'a\' cm/dms"...elete_record\': <function <lambda> at 0x8b801b4>}>'
p473
sg148
S"<Storage {'body': <cStringIO.StringO object at 0...bda> at 0x891ed84>, 'view': 'default/page.html'}>"
p474
sS'THEAD'
p475
S"<class 'gluon.html.THEAD'>"
p476
sS'IS_NULL_OR'
p477
S"<class 'gluon.validators.IS_EMPTY_OR'>"
p478
sS'IS_FLOAT_IN_RANGE'
p479
S"<class 'gluon.validators.IS_FLOAT_IN_RANGE'>"
p480
sS'IS_EXPR'
p481
S"<class 'gluon.validators.IS_EXPR'>"
p482
sS'T'
S'<gluon.languages.translator object at 0x87074ac>'
p483
sS'RPXAccount'
p484
S"<class 'gluon.contrib.login_methods.rpx_account.RPXAccount'>"
p485
sS'IS_IN_SET'
p486
S"<class 'gluon.validators.IS_IN_SET'>"
p487
sS'IS_UPLOAD_FILENAME'
p488
S"<class 'gluon.validators.IS_UPLOAD_FILENAME'>"
p489
sS're'
p490
S"<module 're' from '/usr/local/lib/python2.5/re.pyc'>"
p491
sS'IS_DECIMAL_IN_RANGE'
p492
S"<class 'gluon.validators.IS_DECIMAL_IN_RANGE'>"
p493
sssS'traceback'
p494
S'Traceback (most recent call last):\n  File "/home/herve/development/workspaces/molhokwai.net/web/gluon/restricted.py", line 188, in restricted\n    exec ccode in environment\n  File "/home/herve/development/workspaces/molhokwai.net/web/applications/a/views/default/page.html", line 165, in <module>\nTypeError: \'NoneType\' object is not iterable\n'
p495
s.