(dp1
S'output'
p2
S''
sS'layer'
p3
S'/home/herve/development/workspaces/molhokwai.net/web/applications/cms/controllers/media.py'
p4
sS'code'
p5
S'from types import *\n\n###################################\n## CONTROLLER INITIALIZATION\n###################################    \ntry:\n    exec(\'from applications.%s.modules import common\' % this_app)\n    app_objects=Struct(**{\'details\':app_details,\'config\':app_config,\'log_wrapped\':log_wrapped,\'utilities\':utilities})\n    page_helper, post_helper = common.controller_init(request, response, session, cache, T, db, auth, app_objects)\nexcept Exception, ex:\n    log_wrapped(\'Er\', ex)\n\n# media_photos module\nexec(\'from applications.%s.modules import media_photos\' % this_app)\n\n# blogger module, Blogger class\nexec(\'from applications.%s.modules.blogger import Blogger\' % this_app)\n\n###################################\n## CONTROLLER FUNCTIONS\n###################################    \n\n# The main page\ndef index():\n    redirect(URL(r=request, f=\'picasa\', args=\'gallery\'))\n    return dict(nake=None)\n\n# Picasa\ndef picasa():\n    area = \'gallery\'\n    if len(request.args)>0:\n        area=request.args[0]\n\n    try:\n        picasa_manager = media_photos.Manage(app_config)\n        if auth.user and auth.user.is_admin:\n            if area in [\'upload\', \'albums\', \'add\', \'edit\', \'delete\'] and not session.gdata_user:\n                session.redirect_url=URL(r=request, f=\'picasa\', args=[area])\n                redirect(URL(r=request, f=\'picasa\', args=[\'login\']))\n            else:\n                picasa_manager = media_photos.Manage(app_config, gdata_user=None, session=session)\n        \n            if area == \'login\':\n                form=FORM(INPUT(_type=\'email\', _name=\'email\', value=auth.user.email),\n                            INPUT(_type=\'password\', _name=\'password\'),\n                            INPUT(_type=\'submit\', _value=T(\'submit\'))\n                )\n                if form.accepts(request.vars, session):\n                    try:\n                        gdata_user={\n                            \'email\' : request.vars.email,\n                            \'password\' : request.vars.password\n                        }\n                        # programmatic login encapsulated in construction\n                        media_photos.Manage(app_config, gdata_user=gdata_user)\n                        session.gdata_user=gdata_user\n        \n                        session.flash = T(\'Login successfull\')\n                        if session.redirect_url:\n                            redirect(session.redirect_url)\n                        else:\n                            redirect(URL(r=request, args=[\'albums\']))\n                    except Exception, ex:\n                        log_wrapped(\'Error\', ex)\n                return dict(nake=None, area=area, form=form, item=\'user\')\n                \n            if area in [\'add\', \'edit\', \'delete\', \'upload\']:\n                # item : album || picture\n                item=request.args[1]\n    \n                if item==\'album\':\n                    if area == \'add\':\n        \n                        form=FORM(DIV(INPUT(_type=\'text\', _name=\'title\'), \n                                        TEXTAREA(_name=\'summary\'),\n                                        INPUT(_type=\'submit\', _value=T(\'submit\'))\n                                      )\n                                )\n                        if form.accepts(request.vars, session):\n                            if area == \'add\':\n                                try:\n                                    album = picasa_manager.client.InsertAlbum(title=request.vars.title, summary=request.vars.summary)\n                                    session.flash = T(\'Album successfully added\')\n                                    redirect(URL(r=request, args=[\'albums\']))\n                                except Exception, ex:\n                                    log_wrapped(\'Error\', ex)\n                                    response.flash = T(\'An error occured: %(error)s. You can retry or contact the administrator\', dict(error=str(ex)))\n        \n                        return dict(nake=None, area=area, form=form, item=item)\n        \n                    elif area == \'edit\':\n                        album_id=request.args[2]\n                        album_feed=picasa_manager.get_album_by_id(album_id)\n                        album_photos=picasa_manager.get_album_photos(\n                                            album_id, \n                                            username=session.gdata_user[\'email\'].replace(\'@gmail.com\', \'\'), \n                                            limit=10\n                                            )\n        \n                        form=FORM(DIV(INPUT(_type=\'text\', _name=\'title\', _value=album_feed.title.text), \n                                        TEXTAREA(_name=\'summary\',  value=album_feed.summary.text),\n                                        INPUT(_type=\'submit\', _value=T(\'submit\'))\n                                      )\n                                )\n                        if form.accepts(request.vars, session):\n                                try:\n                                    album_feed.title.text=request.vars.title\n                                    album_feed.summary.text=request.vars.summary\n                \n                                    updated_album = picasa_manager.client.Put(album_feed, album_feed.GetEditLink().href, converter=gdata.photos.AlbumEntryFromString)\n                                    session.flash = T(\'Album successfully updated\')\n                                    redirect(URL(r=request, args=[\'albums\']))\n                                except Exception, ex:\n                                    log_wrapped(\'Error\', ex)\n                                    response.flash = T(\'An error occured: %(error)s. You can retry or contact the administrator\', dict(error=str(ex)))\n        \n                        return dict(nake=None, area=area, form=form, item=item, album=album_photos, album_id=album_id)\n        \n                    elif area == \'delete\':\n                        album_id=request.args[2]\n                        album_feed=picasa_manager.get_album_by_id(album_id)\n                        album_photos=picasa_manager.get_album_photos(\n                                          album_id, \n                                          username=session.gdata_user[\'email\'].replace(\'@gmail.com\', \'\'), \n                                          limit=10\n                                          )\n        \n                        form=FORM(DIV(INPUT(_type=\'text\', _name=\'title\', _value=album_feed.title.text), \n                                        TEXTAREA(_name=\'summary\',  value=album_feed.summary.text),\n                                        INPUT(_type=\'submit\', _value=T(\'delete\'))\n                                      )\n                                )\n                        if form.accepts(request.vars, session):\n                            try:\n                                picasa_manager.client.Delete(album_feed)\n                                session.flash = T(\'Album deleted\')\n                                redirect(URL(r=request, args=[\'albums\']))\n                            except Exception, ex:\n                                log_wrapped(\'Error\', ex)\n                                response.flash = T(\'An error occured: %(error)s. You can retry or contact the administrator\', dict(error=str(ex)))\n        \n                        return dict(nake=None, area=area, form=form, item=item, album=album_photos, album_id=album_id)\n    \n                elif item==\'picture\':\n    \n                    if area == \'upload\':\n                        upload_nr=5\n                        album_id=request.args[2]\n                        album_url = \'/data/feed/api/user/%s/albumid/%s\' % (session.gdata_user[\'email\'], album_id)\n        \n                        form=FORM()\n                        for i in range(upload_nr):\n                            form.append(DIV(INPUT(_type=\'file\', _name=\'file_%i\' % i), \n                                            INPUT(_type=\'text\', _name=\'title_%i\' % i))\n                            )\n                        form.append(INPUT(_type=\'submit\', _value=T(\'submit\')))\n                        if form.accepts(request.vars, session):\n                            import gluon.contenttype as contenttype\n                            _exceptions=[]\n                            _file_tuples=[]\n                            for i in range(upload_nr):\n                                _file,filename,filetitle=None,\'\',\'\'\n                                for v in request.post_vars:\n                                    if v==\'file_%i\' % i:\n                                        try: \n                                            _file=request.post_vars[v].file\n                                            filename=request.post_vars[v].filename\n                                        except Exception, ex: log_wrapped(\'exception\', ex)\n    \n                                    elif v==\'title_%i\' % i:\n                                        filetitle=request.post_vars[v]\n    \n                                if _file:\n                                    if not filetitle:\n                                        if filename.find(\'\\\\\')>0: f_n_s=filename.split(\'\\\\\')\n                                        else: f_n_s=filename.split(\'/\')\n                                        filetitle=f_n_s[len(f_n_s)-1]\n                                    _file_tuples.append((_file, filename, filetitle))\n    \n                            for i in range(len(_file_tuples)):\n                                try:\n                                    photo = picasa_manager.client.InsertPhotoSimple(album_url, _file_tuples[i][2],\n                                                                    \'Uploaded using the API\', _file_tuples[i][0], \n                                                                    content_type=contenttype.contenttype(_file_tuples[i][1]))\n                                except Exception, ex:\n                                    _exceptions.append(ex)\n                                    \n                            if len(_exceptions)>0:\n                                response.flash=T(\'There were %i errors during the upload(s): %s\' % (len(_exceptions), str(_exceptions)))\n                                log_wrapped(\'exceptions\', str(_exceptions))\n                            else:\n                                redirect(URL(r=request, f=\'picasa\', args=[\'album\', album_id]))\n        \n                        return dict(nake=None, area=area, form=form, item=item)\n    \n                    elif area == \'edit\':\n                        photo_id, album_id=request.args[2], request.args[3]\n                        photo=picasa_manager.get_album_photo_by_id(\n                                            album_id, photo_id, \n                                            username=session.gdata_user[\'email\'].replace(\'@gmail.com\', \'\'), \n                                            raw_feed=True\n                                            )\n                        picasa_manager.initialize_photo_metadata(photo)\n        \n                        form=FORM(\n                                DIV(LABEL(T(\'title\')), INPUT(_type=\'text\', _name=\'title\', _value=photo.title.text)),\n                                DIV(LABEL(T(\'summary\')), TEXTAREA(_name=\'summary\', value=photo.summary.text)),\n                                DIV(LABEL(T(\'keywords\')), INPUT(_type=\'text\', _name=\'keywords\', _value=photo.media.keywords.text)),\n                                DIV(LABEL(XML(\'&nbsp;\')), INPUT(_type=\'submit\', _value=T(\'submit\')))\n                            )\n                        if form.accepts(request.vars, session):\n                            try:\n                                photo.title.text = request.vars.title\n                                photo.summary.text = request.vars.summary\n                                photo.media.keywords.text = request.vars.keywords\n                                updated_photo = picasa_manager.client.UpdatePhotoMetadata(photo)\n                                \n                                session.flash = T(\'Photo successfully updated\')\n                                redirect(URL(r=request, args=[\'edit\', \'album\', album_id]))\n                            except Exception, ex:\n                                log_wrapped(\'Error\', ex)\n                                response.flash = T(\'An error occured: %(error)s. You can retry or contact the administrator\', dict(error=str(ex)))\n    \n                        return dict(nake=None, area=area, form=form, item=item, photo=photo)\n        \n                    elif area == \'delete\':                        \n                        photo_id, album_id=request.args[2], request.args[3]\n                        photo=picasa_manager.get_album_photo_by_id(\n                                            album_id, photo_id, \n                                            username=session.gdata_user[\'email\'].replace(\'@gmail.com\', \'\'), \n                                            raw_feed=True\n                                            )\n                        form=FORM(\n                                DIV(LABEL(T(\'title\')), INPUT(_type=\'text\', _name=\'title\', _value=photo.title.text)),\n                                DIV(LABEL(T(\'summary\')), TEXTAREA(_name=\'summary\', value=photo.summary.text)),\n                                DIV(LABEL(T(\'keywords\')), INPUT(_type=\'text\', _name=\'keywords\', _value=photo.media.keywords.text)),\n                                DIV(LABEL(XML(\'&nbsp;\')), INPUT(_type=\'submit\', _value=T(\'delete\')))\n                            )\n                        if form.accepts(request.vars, session):\n                            try:\n                                picasa_manager.client.Delete(photo)\n                                session.flash = T(\'Photo deleted\')\n                                redirect(URL(r=request, args=[\'edit\', \'album\', album_id]))\n                            except Exception, ex:\n                                log_wrapped(\'Error\', ex)\n                                response.flash = T(\'An error occured: %(error)s. You can retry or contact the administrator\', dict(error=str(ex)))\n    \n                        return dict(nake=None, area=area, form=form, item=item, photo=photo)\n    \n    \n            elif area == \'albums\':\n                albums_feed=picasa_manager.get_albums_feed()\n                \n                form=DIV()\n                albums=TABLE(TR(TH(T(\'title\')), TH(T(\'nr of pictures\')), TH(), TH(), TH(), TH()))\n                for entry in albums_feed:\n                    albums.append(TR(\n                                        TD(entry.title.text),\n                                        TD(entry.numphotos.text),\n                                        TD(A(T(\'view\'), _href=URL(r=request, args=[\'album\', entry.gphoto_id.text]))), \n                                        TD( A(T(\'edit\'), _href=URL(r=request, args=[\'edit\', \'album\', entry.gphoto_id.text]))),\n                                        TD( A(T(\'delete\'), _href=URL(r=request, args=[\'delete\', \'album\', entry.gphoto_id.text]))),\n                                        TD( A(T(\'upload to\'), _href=URL(r=request, args=[\'upload\', \'picture\',  entry.gphoto_id.text]))),\n                                    )\n                            )\n                form.append(A(T(\'add\'), _class=\'display-block width100pc text-alignr\', _href=URL(r=request, args=[\'add\', \'album\'])))\n                form.append(albums)\n                return dict(nake=None, area=area, form=form, item=None)\n    \n    ## PUBLIC SECTION\n        if area == \'gallery\':\n            recent=picasa_manager.get_recent_photos()\n            gallery=picasa_manager.get_album_gallery()\n            return dict(nake=None, area=area, item=None, recent=recent, gallery=gallery)\n            \n        if area == \'album\':\n            album_id=request.args[1]\n            album=picasa_manager.get_album_photos(album_id)\n            return dict(nake=None, area=area, item=None, album=album, album_id=album_id)\n            \n        elif area == \'slideshow\':\n            album_id=request.args[1]\n            album=picasa_manager.get_album_photos(album_id)\n            if not session.current_photo or int(session.current_photo)>len(album)-1:\n                session.current_photo=0\n            photo=album[int(session.current_photo)]\n            session.current_photo+=1\n            response.refresh=\'<meta http-equiv="refresh" content="%i;%s" />\' % (2, URL(r=request, args=[\'slideshow\', album_id]))\n            return dict(nake=True, area=area, item=None, photo=photo, album_id=album_id)\n    \n    except Exception, ex:\n        log_wrapped(\'Exception\', ex)\n        if str(ex).lower().find(\'unknown user\')>=0:\n            session.flash = T(\'User is unknown by the Google Photos (Picasa) Service. User must be registered there: %(picasa_link)s\', \n                                dict(picasa_link=\'http://picasaweb.google.com\'))\n        if str(ex).lower().find(\'captcha required\')>=0:\n            session.flash = T(\'User credentials are unknown to the Google Photos (Picasa) Service. User should be modified by an administrator, in service setup.\')\n        redirect(URL(r=request, c=\'default\', f=\'error\'))\n\ndef social():\n    area = \'twitter\'\n    sub_area=None\n    _items=[]\n    if request.args[0] == \'twitter\' or request.args[0] == \'twitter.json\':\n        exec(\'from applications.%s.modules import twitter\' % request.application)\n        try:\n            if len(request.args)>1:\n                sub_area = request.args[1]\n                if sub_area == \'user\':\n                    api_config=db(db.app_config.id>0).select()[0].TWITTER_API\n                    _username=api_config[0]\n                    twitter = twitter.Manager(_username)\n                    _items = twitter.get_user_tweets()\n                    if type(_items)==DictType and \'error\' in _items:\n                        _items=[_items[\'request\'], _items[\'error\']]\n        except Exception, ex:\n            log_wrapped(\'Error\', ex)\n            if str(ex).lower().find(str(\'No JSON object could be decoded\').lower())>=0:\n                response.flash=T(\'No tweets for username and/or hash found (error: %(err)s)\', dict(err=str(ex)))\n            else:\n                response.flash=T(\'Error occured: : %(err)s\', dict(err=str(ex)))\n\n    return dict(nake=False, area=area, sub_area=sub_area, items=_items)\n\ndef twitter():\n    api_config=db(db.app_config.id>0).select()[0].TWITTER_API\n    _username = api_config[0]\n    _hashes, _filters = api_config[2], api_config[3]\n    _filter = \'#%s %s\' % (\' \'.join(_filters.split(\',\')), \' #\'.join(_hashes.split(\',\')))\n\n    exec(\'from applications.%s.modules import twitter\' % request.application)\n    twitter = twitter.Manager(_username)\n    _items = twitter.search_tweets(_hashes)\n\n    import gluon.contrib.simplejson as simplejson\n    return simplejson.dumps(_items)\n\ndef blogger():\n    """UTILITIES"""\n    def blogger_languages_get():\n        c = utilities.get_cookie(\'blogger_languages\')\n        if c:\n            return c.value\n        elif session.blogger_languages:\n            return session.blogger_languages\n        else:\n            return T.current_languages\n            \n    def themes_cookie_redirect():\n        if request.vars.blogger_themes:\n            utilities.set_cookie(\'blogger_themes\', request.vars.blogger_themes)\n            session.blogger_themes = request.vars.blogger_themes\n            redirect(URL(r = request, f = \'blogger\', args = [\'themes\', request.vars.blogger_themes]))\n            return True\n        else:\n            return False\n            \n    """FUNCTION OUTPUT"""\n    if (not app_config.BLOGGER_API or not app_config.BLOGGER_BLOGS_THEMES or not app_config.BLOGGER_BLOGS_LANGUAGES\n        or not len(app_config.BLOGGER_API)>0 or not len(app_config.BLOGGER_BLOGS_THEMES)>0 or not len(app_config.BLOGGER_BLOGS_LANGUAGES)>0):\n        response.flash = T(\'Blogger api credentials and config data not set in setup.\')\n        return dict(area = \'\', nake = False)\n\n    else:\n        _Blogger = Blogger(app_config.BLOGGER_API, app_config.BLOGGER_BLOGS_THEMES, \n                          app_config.BLOGGER_BLOGS_LANGUAGES, posts = blogger_blogs_data())\n        area = request.args[0]\n        \n        if area in [\'themes_choice\']:\n            import pdb\n            pdb.set_trace()\n            \n            themes = []\n            session.blogger_languages = blogger_languages_get()\n            blogger_languages = session.blogger_languages.split(\',\')\n            \n            form = FORM()\n            checked = {}\n            for lang in T.current_languages:\n                checked[lang] = lang in blogger_languages\n            form.append(gluon.widget.Checkboxes(\'blogger_languages\', T.current_languages, checked=checked[lang], _checked=checked[lang]))\n            form.append(INPUT(_type="submit", _value=T(\'Submit\')))            \n            if form.accepts(request.vars, session):\n                log_wrapped(\'form.vars.blogger_languages\', form.vars.blogger_languages)\n            \n            if not themes_cookies_redirect():\n                themes = [(_themes, \'/%s/media/blogger/themes/%s\' % (this_app, \'-\'.join(_themes))) for _themes in _Blogger.themes_by_languages(blogger_languages)]\n            return dict(area = area, nake = False, themes = themes)\n            \n        elif area in [\'themes\']:\n            form = FORM(_class="right width50pc")\n            lang_id_prefix = "languages_"\n            for lang in T.current_languages:\n                form.append(INPUT(_type=\'checkbox\', _name="languages", id=lang_id_prefix+lang, \n                            _checked=lang in session.blogger_languages if session.blogger_languages else False,\n                            _class="left"))\n            form.append(INPUT(_type=\'submit\', _value=T(\'Submit\'), _class="left"))\n            form.append(DIV(_class="clear"))\n            \n            if form.accepts(request.vars, session):\n                langs = []\n                for lang in T.current_languages:\n                    # exec "val = request.vars.%s" % (lang_id_prefix+lang)\n                    if val.lower() == "on":\n                      langs.append(val)\n                if len(langs)==0:\n                    response.flash = T(\'At least one language required.\')\n                else:\n                    utilities.set_cookie(\'blogger_languages\', \',\'.join(langs))\n                    session.flash = T(\'Language(s) set.\')\n                    redirect(URL(r = request))\n                \n            blogger_languages_set()\n            \n            tags = []\n            if len(request.args)<2:\n                if not session.blogger_themes:\n                    if request.cookies.has_key(\'blogger_themes\'):\n                        session.blogger_themes = request.cookies[\'blogger_themes\'].value\n                        \n                    elif not themes_cookie_redirect():\n                        redirect(URL(r = request, f = \'blogger\', args = [\'themes_choice\']))\n            else:\n                session.blogger_themes = request.args[1]\n                \n            if session.blogger_themes:\n                tags = [{_themes : (_tags, \'/%s/media/blogger/tags/%s\' % (this_app, \'-\'.join(_tags)))} \n                                            for _tags in _Blogger.tags_by_themes(session.blogger_themes.split(\'-\'))]\n            return dict(area = area, nake = False, tags = tags)\n            \n        elif area in [\'tags\']:\n            posts = []\n            if len(request.args)<2:\n                if not session.blogger_tags:\n                    redirect(URL(r = request, f = \'blogger\', args = [\'tags\']))\n            else:\n                session.blogger_tags = request.args[1]\n                \n            if session.blogger_tags:\n                posts = [{_tags : _post} \n                            for _post in _Blogger.posts_by_tags(\n                                                        session.blogger_tags.split(\'-\'), \n                                                        session.blogger_themes.split(\'-\'))]\n            return dict(area = area, nake = False, posts = posts)\n\ndef blogger_blogs_data():\n    _Blogger = Blogger(app_config.BLOGGER_API, app_config.BLOGGER_BLOGS_THEMES, \n                      app_config.BLOGGER_BLOGS_LANGUAGES)\n    _Blogger.blogs\n    _Blogger.blogs_datas\n    t = cache.ram(\'blogger_blogs_data\', _Blogger.blogs_datas, time_expire=60*60)\n    return t\n\nresponse._vars=response._caller(blogger)\n'
p6
sS'snapshot'
p7
(dp8
S'exception'
p9
(dp10
S'__hash__'
p11
S"<method-wrapper '__hash__' of exceptions.TypeError object at 0x8e9d12c>"
p12
sS'__setattr__'
p13
S"<method-wrapper '__setattr__' of exceptions.TypeError object at 0x8e9d12c>"
p14
sS'__reduce_ex__'
p15
S'<built-in method __reduce_ex__ of exceptions.TypeError object at 0x8e9d12c>'
p16
sS'__getslice__'
p17
S"<method-wrapper '__getslice__' of exceptions.TypeError object at 0x8e9d12c>"
p18
sS'__getitem__'
p19
S"<method-wrapper '__getitem__' of exceptions.TypeError object at 0x8e9d12c>"
p20
sS'__setstate__'
p21
S'<built-in method __setstate__ of exceptions.TypeError object at 0x8e9d12c>'
p22
sS'__reduce__'
p23
S'<built-in method __reduce__ of exceptions.TypeError object at 0x8e9d12c>'
p24
sS'__str__'
p25
S"<method-wrapper '__str__' of exceptions.TypeError object at 0x8e9d12c>"
p26
sS'args'
p27
S'("\'list\' object is not callable",)'
p28
sS'__getattribute__'
p29
S"<method-wrapper '__getattribute__' of exceptions.TypeError object at 0x8e9d12c>"
p30
sS'__class__'
p31
S"<type 'exceptions.TypeError'>"
p32
sS'__delattr__'
p33
S"<method-wrapper '__delattr__' of exceptions.TypeError object at 0x8e9d12c>"
p34
sS'__repr__'
p35
S"<method-wrapper '__repr__' of exceptions.TypeError object at 0x8e9d12c>"
p36
sS'__dict__'
p37
S'{}'
p38
sS'__doc__'
p39
S"'Inappropriate argument type.'"
p40
sS'__init__'
p41
S"<method-wrapper '__init__' of exceptions.TypeError object at 0x8e9d12c>"
p42
sS'__new__'
p43
S'<built-in method __new__ of type object at 0x8239080>'
p44
ssS'evalue'
p45
S"'list' object is not callable"
p46
sS'request'
p47
(dp48
S'function'
p49
S"'blogger'"
p50
sS'body'
p51
S'<cStringIO.StringO object at 0x8b57d20>'
p52
sS'wsgi'
p53
S"<Storage {'start_response': <function <lambda> a...ING': 'gzip,deflate', 'HTTP_KEEP_ALIVE': '115'}}>"
p54
sS'extension'
p55
S"'html'"
p56
sS'vars'
p57
S'<Storage {}>'
p58
sS'cid'
p59
S'None'
p60
sS'url'
p61
S'<gluon.html.XML object at 0x8b57d4c>'
p62
sS'raw_extension'
p63
S'None'
p64
sg27
S"['themes_choice']"
p65
sS'controller'
p66
S"'media'"
p67
sS'cookies'
p68
S"<SimpleCookie: session_id_admin='127.0.0.1-b9035...0269e6a-c816-4c2a-bfa7-b84e9f72fe25' theme='cms'>"
p69
sS'application'
p70
S"'cms'"
p71
sS'ajax'
p72
S'False'
p73
sS'client'
p74
S"'127.0.0.1'"
p75
sS'env'
p76
S"<Storage {'wsgi_multithread': True, 'http_accept...nput': <socket._fileobject object at 0x8b15cdc>}>"
p77
sS'raw_args'
p78
S"'themes_choice'"
p79
sS'get_vars'
p80
S'<Storage {}>'
p81
sS'folder'
p82
S"'/home/herve/development/workspaces/molhokwai.net/web/applications/cms/'"
p83
sS'now'
p84
S'datetime.datetime(2011, 2, 28, 12, 8, 41, 140556)'
p85
sS'post_vars'
p86
S'<Storage {}>'
p87
ssS'frames'
p88
(lp89
(dp90
S'file'
p91
S'/home/herve/development/workspaces/molhokwai.net/web/gluon/restricted.py'
p92
sS'dump'
p93
(dp94
S'environment'
p95
S"{'A': <class 'gluon.html.A'>, 'AppDetails': <class __builtin__.AppDetails at 0x8b18fbc>, 'Auth': <class 'gluon.tools.Auth'>, 'B': <class 'gluon.html.B'>, 'BEAUTIFY': <class 'gluon.html.BEAUTIFY'>, 'BODY': <class 'gluon.html.BODY'>, 'BR': <class 'gluon.html.BR'>, 'Blogger': <class applications.cms.modules.blogger.Blogger at 0x8ebf1ac>, 'BooleanType': <type 'bool'>, 'BufferType': <type 'buffer'>, ...}"
p96
sS'ccode'
p97
S'<code object <module> at 0x8c44848, file "/home/...b/applications/cms/controllers/media.py", line 1>'
p98
ssS'lnum'
p99
I188
sS'lines'
p100
(dp101
I192
S'        # XXX Show exception in Wing IDE if running in debugger'
p102
sI183
S'        if type(code) == types.CodeType:'
p103
sI184
S'            ccode = code'
p104
sI185
S'        else:'
p105
sI186
S'            ccode = compile2(code,layer)'
p106
sI187
S''
sI188
S'        exec ccode in environment'
p107
sI189
S'    except HTTP:'
p108
sI190
S'        raise'
p109
sI191
S'    except Exception:'
p110
ssS'call'
p111
S"(code='from types import *\\n\\n###########################...turn t\\n\\nresponse._vars=response._caller(blogger)\\n', environment={'A': <class 'gluon.html.A'>, 'AppDetails': <class __builtin__.AppDetails at 0x8b18fbc>, 'Auth': <class 'gluon.tools.Auth'>, 'B': <class 'gluon.html.B'>, 'BEAUTIFY': <class 'gluon.html.BEAUTIFY'>, 'BODY': <class 'gluon.html.BODY'>, 'BR': <class 'gluon.html.BR'>, 'Blogger': <class applications.cms.modules.blogger.Blogger at 0x8ebf1ac>, 'BooleanType': <type 'bool'>, 'BufferType': <type 'buffer'>, ...}, layer='/home/herve/development/workspaces/molhokwai.net/web/applications/cms/controllers/media.py')"
p112
sS'func'
p113
S'restricted'
p114
sa(dp115
g91
S'/home/herve/development/workspaces/molhokwai.net/web/applications/cms/controllers/media.py'
p116
sg93
(dp117
sg99
I454
sg100
(dp118
I448
S'                      app_config.BLOGGER_BLOGS_LANGUAGES)'
p119
sI449
S'    _Blogger.blogs'
p120
sI450
S'    _Blogger.blogs_datas'
p121
sI451
S"    t = cache.ram('blogger_blogs_data', _Blogger.blogs_datas, time_expire=60*60)"
p122
sI452
S'    return t'
p123
sI443
S"                                                        session.blogger_themes.split('-'))]"
p124
sI444
S'            return dict(area = area, nake = False, posts = posts)'
p125
sI445
S''
sI446
S'def blogger_blogs_data():'
p126
sI447
S'    _Blogger = Blogger(app_config.BLOGGER_API, app_config.BLOGGER_BLOGS_THEMES,'
p127
ssg111
S'()'
p128
sg113
S'<module>'
p129
sa(dp130
g91
S'/home/herve/development/workspaces/molhokwai.net/web/gluon/globals.py'
p131
sg93
(dp132
S'self'
p133
S'undefined'
p134
sS'f'
S'<function blogger at 0x8ec0304>'
p135
ssg99
I95
sg100
(dp136
I96
S'        self._view_environment = None'
p137
sI97
S'        self._custom_commit = None'
p138
sI98
S'        self._custom_rollback = None'
p139
sI99
S''
sI90
S"        self.flash = ''           # used by the default view layout"
p140
sI91
S'        self.meta = Storage()     # used by web2py_ajax.html'
p141
sI92
S'        self.menu = []            # used by the default view layout'
p142
sI93
S'        self.files = []           # used by web2py_ajax.html'
p143
sI94
S'        self._vars = None'
p144
sI95
S'        self._caller = lambda f: f()'
p145
ssg111
S'(f=<function blogger at 0x8ec0304>)'
p146
sg113
S'<lambda>'
p147
sa(dp148
g91
S'/home/herve/development/workspaces/molhokwai.net/web/applications/cms/controllers/media.py'
p149
sg93
(dp150
S'global app_config'
p151
S'<Row {\'APP_METAS\': ["\'a\' cm/dms", "molhokwai.net...elete_record\': <function <lambda> at 0x8b5fdbc>}>'
p152
sS'global blogger_blogs_data'
p153
S'<function blogger_blogs_data at 0x8ec033c>'
p154
sS'app_config.BLOGGER_BLOGS_LANGUAGES'
p155
S"['en:molhokwai,ideasprojects-en', 'fr:molhokwai']"
p156
sS'posts'
p157
g134
ssg99
I366
sg100
(dp158
I361
S"        response.flash = T('Blogger api credentials and config data not set in setup.')"
p159
sI362
S"        return dict(area = '', nake = False)"
p160
sI363
S''
sI364
S'    else:'
p161
sI365
S'        _Blogger = Blogger(app_config.BLOGGER_API, app_config.BLOGGER_BLOGS_THEMES,'
p162
sI366
S'                          app_config.BLOGGER_BLOGS_LANGUAGES, posts = blogger_blogs_data())'
p163
sI367
S'        area = request.args[0]'
p164
sI368
S''
sI369
S"        if area in ['themes_choice']:"
p165
sI370
S'            import pdb'
p166
ssg111
S'()'
p167
sg113
S'blogger'
p168
sa(dp169
g91
S'/home/herve/development/workspaces/molhokwai.net/web/applications/cms/controllers/media.py'
p170
sg93
(dp171
S'_Blogger.blogs_datas'
p172
S'[{\'categories\': [], \'id\': \'2847443485812916000\', \'name\': \'jemengage\', \'posts\': [{\'blog\': \'2847443485812916000\', \'categories\': [], \'comments\': [], \'content\': \'<div dir="ltr" style="text-align: left;" trbidi=...ne peux que vous dire ceci: Ayez confiance.</div>\', \'id\': \'3259060544791224312\', \'tag\': \'blogger.com\', \'title\': \'Ayez confiance\', \'updated\': \'2011-01-24T07:08:18.738-08:00\', \'year\': \'1999\'}, {\'blog\': \'2847443485812916000\', \'categories\': [], \'comments\': [], \'content\': \'<div dir="ltr" style="text-align: left;" trbidi=...ez-vous la vie.<br /><br />Tout simplement.</div>\', \'id\': \'148174437390761322\', \'tag\': \'blogger.com\', \'title\': \'Placez-vous au dessus de tout \\xc3\\xa7a\', \'updated\': \'2011-01-23T00:19:03.178-08:00\', \'year\': \'1999\'}, {\'blog\': \'2847443485812916000\', \'categories\': [], \'comments\': [], \'content\': \'<div dir="ltr" style="text-align: left;" trbidi=... a aid\\xc3\\xa9, j\\\'aimerai savoir.</i></div></div></div>\', \'id\': \'3719634868756917780\', \'tag\': \'blogger.com\', \'title\': \'Skype: Concurrence & \\xc3\\x89thique\', \'updated\': \'2011-01-22T12:41:34.978-08:00\', \'year\': \'1999\'}, {\'blog\': \'2847443485812916000\', \'categories\': [], \'comments\': [], \'content\': \'<div dir="ltr" style="text-align: left;" trbidi=....<br />\\xc3\\x81 bient\\xc3\\xb4t, pour le premier message</div>\', \'id\': \'5421884131628997264\', \'tag\': \'blogger.com\', \'title\': "Je m\'engage", \'updated\': \'2011-01-21T06:54:01.523-08:00\', \'year\': \'1999\'}], \'tag\': \'blogger.com\', \'title\': "je m\'engage", \'user\': \'805854382143\', \'year\': \'1999\'}, {\'categories\': [], \'id\': \'8515968611599727017\', \'name\': \'my-pledge\', \'posts\': [{\'blog\': \'8515968611599727017\', \'categories\': [], \'comments\': [], \'content\': \'<div dir="ltr" style="text-align: left;" trbidi=...e good thing is that it is becoming easier.</div>\', \'id\': \'8888437007425196562\', \'tag\': \'blogger.com\', \'title\': \'Stand above\', \'updated\': \'2011-01-23T00:02:51.680-08:00\', \'year\': \'1999\'}, {\'blog\': \'8515968611599727017\', \'categories\': [], \'comments\': [], \'content\': \'<div dir="ltr" style="text-align: left;" trbidi=...></ul><div>Just: do your thing.</div></div></div>\', \'id\': \'7900403146400480065\', \'tag\': \'blogger.com\', \'title\': \'Skype Ethics: Competition\', \'updated\': \'2011-01-22T12:41:00.994-08:00\', \'year\': \'1999\'}, {\'blog\': \'8515968611599727017\', \'categories\': [], \'comments\': [], \'content\': \'<div dir="ltr" style="text-align: left;" trbidi=...I would like to know.</i></div></div></div></div>\', \'id\': \'8161338232528169393\', \'tag\': \'blogger.com\', \'title\': \'Skype Ethics\', \'updated\': \'2011-01-22T23:48:28.466-08:00\', \'year\': \'1999\'}, {\'blog\': \'8515968611599727017\', \'categories\': [], \'comments\': [], \'content\': \'<div dir="ltr" style="text-align: left;" trbidi="on"><br />...<br /><br /></div>\', \'id\': \'8178444972421752159\', \'tag\': \'blogger.com\', \'title\': \'My pledge\', \'updated\': \'2011-01-22T09:09:21.624-08:00\', \'year\': \'1999\'}], \'tag\': \'blogger.com\', \'title\': \'my pledge\', \'user\': \'805854382143\', \'year\': \'1999\'}, {\'categories\': [\'changement\', \'shift\', \'r\\xc3\\xa9v\\xc3\\xa9lation\', \'r\\xc3\\xa9alit\\xc3\\xa9\', \'verb\', \'incantation\', \'verbe\', \'mot\', \'\\xc3\\xa9l\\xc3\\xa9vation\', \'amour\', \'word\', \'reality\'], \'id\': \'7966479155905584950\', \'name\': \'molhokwai\', \'posts\': [{\'blog\': \'7966479155905584950\', \'categories\': [], \'comments\': [], \'content\': \'<p style="background-color:#ffffff"><br><br></p>...style="background-color:transparent"><br></p><br>\', \'id\': \'2542996125096405668\', \'tag\': \'blogger.com\', \'title\': \'G\\xc3\\xa9n\\xc3\\xa8se\', \'updated\': \'2010-07-17T03:44:49.264-07:00\', \'year\': \'1999\'}, {\'blog\': \'7966479155905584950\', \'categories\': [], \'comments\': [], \'content\': "Permettez-moi l\'expression...<br /><br />J\'en ai...dernier message de ce blog.<br /><br />Au revoir.", \'id\': \'4927944410186949600\', \'tag\': \'blogger.com\', \'title\': \'foutaises & v\\xc3\\xa9rit\\xc3\\xa9s...\', \'updated\': \'2010-03-20T08:07:00.532-07:00\', \'year\': \'1999\'}, {\'blog\': \'7966479155905584950\', \'categories\': [\'changement\', \'shift\'], \'comments\': [], \'content\': \'...visible ici:&nbsp;<a title="cliquer sur le li...lpod.com/travel-blog/molhokwai/1/tpod.html</a>...\', \'id\': \'8255558481386188529\', \'tag\': \'blogger.com\', \'title\': \'blog de voyage...\', \'updated\': \'2010-03-07T03:49:35.501-08:00\', \'year\': \'1999\'}, {\'blog\': \'7966479155905584950\', \'categories\': [\'r\\xc3\\xa9v\\xc3\\xa9lation\', \'r\\xc3\\xa9alit\\xc3\\xa9\'], \'comments\': [], \'content\': \'<blockquote>Acheter: [...] prendre pour chef*</b...nting-change/commerce/?lang=fr</a></i></span></i>\', \'id\': \'4506025511934326471\', \'tag\': \'blogger.com\', \'title\': \'Acheter, Payer...\', \'updated\': \'2010-03-05T02:55:18.770-08:00\', \'year\': \'1999\'}, {\'blog\': \'7966479155905584950\', \'categories\': [], \'comments\': [], \'content\': \'<span class="Apple-style-span" style="font-famil...an" style="font-size: 11px;"><br /></span></span>\', \'id\': \'3774782513906440650\', \'tag\': \'blogger.com\', \'title\': None, \'updated\': \'2010-02-16T14:22:52.384-08:00\', \'year\': \'1999\'}, {\'blog\': \'7966479155905584950\', \'categories\': [\'verb\', \'incantation\'], \'comments\': [], \'content\': \'Expect Nothing. From No One.<br />Except Love.<b...ect Everything From Love.<br />Anywhere. Anytime.\', \'id\': \'3092327214691150909\', \'tag\': \'blogger.com\', \'title\': \'Love\', \'updated\': \'2010-02-14T03:03:22.149-08:00\', \'year\': \'1999\'}, {\'blog\': \'7966479155905584950\', \'categories\': [\'r\\xc3\\xa9v\\xc3\\xa9lation\', \'verbe\', \'mot\'], \'comments\': [], \'content\': "Le terme exact ce serait plut\\xc3\\xb4t partager du pla...mour...<br /><br />...<br /><br />Faites l\'amour.", \'id\': \'3232671065974229953\', \'tag\': \'blogger.com\', \'title\': "Faire l\'amour...", \'updated\': \'2010-02-13T09:48:17.756-08:00\', \'year\': \'1999\'}, {\'blog\': \'7966479155905584950\', \'categories\': [], \'comments\': [], \'content\': \'Lorsque votre gorge est malade, ou tout simpleme...iv><div>Sentez la Puissance de votre Verbe.</div>\', \'id\': \'4080719920006300694\', \'tag\': \'blogger.com\', \'title\': \'La Gorge\', \'updated\': \'2010-02-11T12:22:58.212-08:00\', \'year\': \'1999\'}, {\'blog\': \'7966479155905584950\', \'categories\': [], \'comments\': [], \'content\': "La Perfection c\'est...", \'id\': \'2398438051553579064\', \'tag\': \'blogger.com\', \'title\': None, \'updated\': \'2010-02-11T12:09:04.456-08:00\', \'year\': \'1999\'}, {\'blog\': \'7966479155905584950\', \'categories\': [\'r\\xc3\\xa9v\\xc3\\xa9lation\', \'mot\'], \'comments\': [], \'content\': \'Aaaahh 2012 :-)... sujet de toutes les attentes,...iques. Merci pour votre <i>absolue beaut\\xc3\\xa9</i>...\', \'id\': \'6142404084595580778\', \'tag\': \'blogger.com\', \'title\': \'2012\', \'updated\': \'2010-02-10T05:51:27.646-08:00\', \'year\': \'1999\'}, {\'blog\': \'7966479155905584950\', \'categories\': [\'r\\xc3\\xa9v\\xc3\\xa9lation\', \'\\xc3\\xa9l\\xc3\\xa9vation\', \'r\\xc3\\xa9alit\\xc3\\xa9\', \'incantation\'], \'comments\': [], \'content\': \'Notre cerveau produit des (dizaines de) milliers...era le moment, plus tard, un autre jour...</span>\', \'id\': \'4760679713553497153\', \'tag\': \'blogger.com\', \'title\': \'Intention & Action\', \'updated\': \'2010-02-05T06:53:11.217-08:00\', \'year\': \'1999\'}, {\'blog\': \'7966479155905584950\', \'categories\': [], \'comments\': [], \'content\': "<blockquote>Je m\'engage \\xc3\\xa0 \\xc3\\x8atre le meilleur de ...toute autre \\xc3\\xa9motion qui nous <em>d\\xc3\\xa9centre</em>.", \'id\': \'5193588688498091407\', \'tag\': \'blogger.com\', \'title\': \'Engagement\', \'updated\': \'2010-02-01T03:27:24.551-08:00\', \'year\': \'1999\'}, {\'blog\': \'7966479155905584950\', \'categories\': [\'mot\', \'amour\', \'\\xc3\\xa9l\\xc3\\xa9vation\'], \'comments\': [], \'content\': \'M\\xc3\\xa9diter:<br /><blockquote>Se laisser conduire v..." style="font-size: x-small;"> dans google</span>\', \'id\': \'5318615708760758580\', \'tag\': \'blogger.com\', \'title\': \'La M\\xc3\\xa9ditation\', \'updated\': \'2010-02-02T16:34:26.470-08:00\', \'year\': \'1999\'}, {\'blog\': \'7966479155905584950\', \'categories\': [], \'comments\': [], \'content\': \'Il est temps de nous engager &agrave; notre <str...;sents</strong>. Soyons <strong>Entiers</strong>.\', \'id\': \'2986073785240345394\', \'tag\': \'blogger.com\', \'title\': \'Intention\', \'updated\': \'2010-01-16T08:45:15.036-08:00\', \'year\': \'1999\'}, {\'blog\': \'7966479155905584950\', \'categories\': [], \'comments\': [], \'content\': "Nous vivons en <i>Manich\\xc3\\xa9anisme</i>, en Dualit\\xc3... formes de Dualit\\xc3\\xa9 que vous avez \\xc3\\xa0 l\'esprit</i>", \'id\': \'7359706515654842888\', \'tag\': \'blogger.com\', \'title\': \'Dualit\\xc3\\xa9, Polarit\\xc3\\xa9, Manich\\xc3\\xa9anisme & La Suite\', \'updated\': \'2010-01-15T06:39:58.630-08:00\', \'year\': \'1999\'}, {\'blog\': \'7966479155905584950\', \'categories\': [], \'comments\': [], \'content\': \'Je suis (juste) un <b>Messager</b>, et je suis h...polarit\\xc3\\xa9, de dualit\\xc3\\xa9, de <b>Manich\\xc3\\xa9anisme</b>.\', \'id\': \'2133010561734903013\', \'tag\': \'blogger.com\', \'title\': \'...\', \'updated\': \'2010-01-15T04:11:53.522-08:00\', \'year\': \'1999\'}, {\'blog\': \'7966479155905584950\', \'categories\': [], \'comments\': [], \'content\': \'I am (just) a <b>Messenger</b>, and I am human, ...wn perfect polarity, my very own perfect duality.\', \'id\': \'338688646942442947\', \'tag\': \'blogger.com\', \'title\': \'...\', \'updated\': \'2010-01-15T04:01:41.019-08:00\', \'year\': \'1999\'}, {\'blog\': \'7966479155905584950\', \'categories\': [\'mot\', \'incantation\'], \'comments\': [], \'content\': \'Il est temps de nous engager \\xc3\\xa0 notre <b>Intenti...le travail que vous avez vous aussi \\xc3\\xa0 accomplir.\', \'id\': \'7939842994443355672\', \'tag\': \'blogger.com\', \'title\': \'Qui je suis\', \'updated\': \'2010-01-10T18:34:52.441-08:00\', \'year\': \'1999\'}, {\'blog\': \'7966479155905584950\', \'categories\': [], \'comments\': [], \'content\': \'Bon...\', \'id\': \'3201026903407192300\', \'tag\': \'blogger.com\', \'title\': \'Qui je suis\', \'updated\': \'2010-01-10T16:42:47.956-08:00\', \'year\': \'1999\'}, {\'blog\': \'7966479155905584950\', \'categories\': [\'r\\xc3\\xa9v\\xc3\\xa9lation\', \'verbe\', \'\\xc3\\xa9l\\xc3\\xa9vation\', \'r\\xc3\\xa9alit\\xc3\\xa9\'], \'comments\': [], \'content\': \'Toute cette Existence, cette R\\xc3\\xa9alit\\xc3\\xa9, cette po...\\xc3\\xa0, et uniquement \\xc3\\xa0 ces moments l\\xc3\\xa0, un Artiste.\', \'id\': \'6165806538185625539\', \'tag\': \'blogger.com\', \'title\': \'Art & Artistes\', \'updated\': \'2010-01-15T02:33:42.678-08:00\', \'year\': \'1999\'}, ...], \'tag\': \'blogger.com\', \'title\': \'molhokwai: existence et essence\', \'user\': \'805854382143\', \'year\': \'1999\'}, {\'categories\': [], \'id\': \'2881232117151438570\', \'name\': \'auxoeuvreurs\', \'posts\': [{\'blog\': \'2881232117151438570\', \'categories\': [], \'comments\': [], \'content\': "<i>Ce \'bouquin\' est fait pour \\xc3\\xaatre utile, pour ...uation Collective.&nbsp;</blockquote><br /></div>", \'id\': \'9011777537783311084\', \'tag\': \'blogger.com\', \'title\': None, \'updated\': \'2010-04-06T07:11:12.236-07:00\', \'year\': \'1999\'}], \'tag\': \'blogger.com\', \'title\': \'Aux Oeuvreurs\', \'user\': \'805854382143\', \'year\': \'1999\'}, {\'categories\': [\'word\', \'machine\', \'interface\', \'human\', \'development\', \'association\', \'free\', \'art\', \'collective\'], \'id\': \'4979118888770430827\', \'name\': \'ideasprojects-en\', \'posts\': [{\'blog\': \'4979118888770430827\', \'categories\': [], \'comments\': [], \'content\': \'Another idea, linking the <a href="http://ideasp...naturally give birth to a <i>liste compl\\xc3\\xa8te</i>.\', \'id\': \'1520647972633088874\', \'tag\': \'blogger.com\', \'title\': \'Search Based Operating System: Addendum\', \'updated\': \'2010-03-30T08:47:10.508-07:00\', \'year\': \'1999\'}, {\'blog\': \'4979118888770430827\', \'categories\': [\'word\', \'machine\', \'interface\', \'human\'], \'comments\': [], \'content\': \'<span style="font-weight:bold;">Principles</span...e user\\\'s</span></li><br /><li>...</li><br /></ul>\', \'id\': \'127621965222039991\', \'tag\': \'blogger.com\', \'title\': \'human machine interface\', \'updated\': \'2009-05-16T08:49:24.722-07:00\', \'year\': \'1999\'}, {\'blog\': \'4979118888770430827\', \'categories\': [\'machine\', \'development\', \'association\', \'interface\', \'human\'], \'comments\': [], \'content\': \'<span style="font-weight:bold;">principle</span>...s the relations...</li><br /></ul><br />Voil\\xc3\\xa0...\', \'id\': \'8811040142030984749\', \'tag\': \'blogger.com\', \'title\': \'3rd dimensional association map\', \'updated\': \'2009-05-16T07:54:44.399-07:00\', \'year\': \'1999\'}, {\'blog\': \'4979118888770430827\', \'categories\': [\'machine\', \'free\', \'development\'], \'comments\': [], \'content\': \'The true purpose of machine/software as a utilit...ligence of the machine we should be working on...\', \'id\': \'776559635816925244\', \'tag\': \'blogger.com\', \'title\': \'no maintenance software\', \'updated\': \'2009-04-26T02:04:41.408-07:00\', \'year\': \'1999\'}, {\'blog\': \'4979118888770430827\', \'categories\': [\'machine\', \'development\', \'interface\', \'human\'], \'comments\': [], \'content\': \'<span style="font-weight:bold;">parallels</span>...ss (free & open source software) isbos / sibos...\', \'id\': \'7206289283476661869\', \'tag\': \'blogger.com\', \'title\': \'Search Based Operating System (2): Internet Based Operating System\', \'updated\': \'2009-04-26T02:09:43.591-07:00\', \'year\': \'1999\'}, {\'blog\': \'4979118888770430827\', \'categories\': [\'machine\', \'development\', \'interface\', \'human\'], \'comments\': [], \'content\': \'<span style="font-weight:bold;">Idea </span><br ... see full size" alt="click to see image..."/></a>\', \'id\': \'4963005638433911031\', \'tag\': \'blogger.com\', \'title\': \'Search Based Operating System\', \'updated\': \'2009-03-14T07:36:45.523-07:00\', \'year\': \'1999\'}, {\'blog\': \'4979118888770430827\', \'categories\': [\'art\', \'collective\', \'free\', \'development\', \'association\'], \'comments\': [], \'content\': \'<span style="font-weight:bold;">Idea</span><br /...g is that it has ever been done so consciously...\', \'id\': \'4277337953102576126\', \'tag\': \'blogger.com\', \'title\': \'Free choreography production\', \'updated\': \'2009-02-03T12:34:51.537-08:00\', \'year\': \'1999\'}, {\'blog\': \'4979118888770430827\', \'categories\': [\'art\', \'collective\', \'free\', \'development\', \'association\'], \'comments\': [], \'content\': \'<span style="font-weight:bold;">Idea</span><br /...l free to spread the word and / or contact me ...\', \'id\': \'8774950748386478502\', \'tag\': \'blogger.com\', \'title\': \'Free movie production\', \'updated\': \'2009-05-27T01:30:05.268-07:00\', \'year\': \'1999\'}], \'tag\': \'blogger.com\', \'title\': \'ideas & projects\', \'user\': \'805854382143\', \'year\': \'1999\'}, {\'categories\': [\'meditation\', \'incantation\'], \'id\': \'2667339560134489348\', \'name\': \'molhokwai-spiritualwork\', \'posts\': [{\'blog\': \'2667339560134489348\', \'categories\': [], \'comments\': [], \'content\': "I felt the kundalini serpent uncoiling from its ... only imagine the \'Tremens\' for the unprepared...", \'id\': \'520086820583021315\', \'tag\': \'blogger.com\', \'title\': \'The Kundalini Serpent\', \'updated\': \'2010-03-19T23:31:52.952-07:00\', \'year\': \'1999\'}, {\'blog\': \'2667339560134489348\', \'categories\': [], \'comments\': [], \'content\': None, \'id\': \'4757634367868106267\', \'tag\': \'blogger.com\', \'title\': \'the kundalini serpent\', \'updated\': \'2010-03-19T21:00:46.627-07:00\', \'year\': \'1999\'}, {\'blog\': \'2667339560134489348\', \'categories\': [], \'comments\': [], \'content\': \'A <i>Friend</i> repeated it to me over and over ...ho know and let it.</blockquote><div><br /></div>\', \'id\': \'856467195326253961\', \'tag\': \'blogger.com\', \'title\': None, \'updated\': \'2010-02-12T01:06:04.397-08:00\', \'year\': \'1999\'}, {\'blog\': \'2667339560134489348\', \'categories\': [], \'comments\': [], \'content\': \'I am invested with the Power of God...<br />I am...ower...<br />I am invested with the Power of God.\', \'id\': \'2296865965774687559\', \'tag\': \'blogger.com\', \'title\': None, \'updated\': \'2010-02-11T11:02:23.944-08:00\', \'year\': \'1999\'}, {\'blog\': \'2667339560134489348\', \'categories\': [], \'comments\': [], \'content\': \'These are the themes of the Moment.<br /><br /><...to be. <b>Silence</b> and <b>Total Listening</b>.\', \'id\': \'4531683412343235844\', \'tag\': \'blogger.com\', \'title\': \'Power & Silence\', \'updated\': \'2010-01-19T04:39:59.494-08:00\', \'year\': \'1999\'}, {\'blog\': \'2667339560134489348\', \'categories\': [], \'comments\': [], \'content\': "It\'s like my Ego had been supporting me for... w...g, any path I chose to take...<br /><br />Voil\\xc3\\xa0.", \'id\': \'6515277208959708925\', \'tag\': \'blogger.com\', \'title\': \'Embracing my Ego\', \'updated\': \'2010-01-18T06:42:19.572-08:00\', \'year\': \'1999\'}, {\'blog\': \'2667339560134489348\', \'categories\': [], \'comments\': [], \'content\': \'<span style="font-size:1em;font-style:italic;">I...naly</b>, and <b>Be Together</b>... <br /></span>\', \'id\': \'169881469879331779\', \'tag\': \'blogger.com\', \'title\': \'Oneness appendix: destinations\', \'updated\': \'2010-01-15T03:35:58.840-08:00\', \'year\': \'1999\'}, {\'blog\': \'2667339560134489348\', \'categories\': [], \'comments\': [], \'content\': \'<span style="font-size:1em;font-style:italic;">S...ing at different levels of the Experience.</span>\', \'id\': \'1651686709615127645\', \'tag\': \'blogger.com\', \'title\': \'Oneness appendix: fighting\', \'updated\': \'2010-01-15T03:36:27.612-08:00\', \'year\': \'1999\'}, {\'blog\': \'2667339560134489348\', \'categories\': [], \'comments\': [], \'content\': \'I am (just) a <b>Messenger</b>, and I am human, ... meet, unconditionnaly, and <b>Be Together</b>...\', \'id\': \'2196240913590810337\', \'tag\': \'blogger.com\', \'title\': \'Oneness\', \'updated\': \'2010-01-15T04:00:45.806-08:00\', \'year\': \'1999\'}, {\'blog\': \'2667339560134489348\', \'categories\': [\'meditation\'], \'comments\': [], \'content\': "Today\'s topic: teaching.<br /><br />Write down y...li></ul><br />Your teachings are provided freely.", \'id\': \'3604909192808397832\', \'tag\': \'blogger.com\', \'title\': \'...\', \'updated\': \'2010-01-04T12:25:13.307-08:00\', \'year\': \'1999\'}, {\'blog\': \'2667339560134489348\', \'categories\': [\'meditation\'], \'comments\': [], \'content\': \'Deeper than ever...<br /><br />Got out and staye...ment the pieces of information received</li></ul>\', \'id\': \'1693550073784608666\', \'tag\': \'blogger.com\', \'title\': \'...\', \'updated\': \'2010-01-04T12:26:00.227-08:00\', \'year\': \'1999\'}, {\'blog\': \'2667339560134489348\', \'categories\': [], \'comments\': [], \'content\': \'"Feelings are the language of the Soul"<br /><br...ne of them, or just let them be...<br /><br />...\', \'id\': \'6411808994269437604\', \'tag\': \'blogger.com\', \'title\': \'do what you feel...\', \'updated\': \'2009-12-04T12:05:36.322-08:00\', \'year\': \'1999\'}, {\'blog\': \'2667339560134489348\', \'categories\': [], \'comments\': [], \'content\': \'Hello,<br /><br />First, my knowledge is limited...hope I will be able to share this with you, soon.\', \'id\': \'7941296691130862055\', \'tag\': \'blogger.com\', \'title\': \'path\', \'updated\': \'2009-11-30T23:33:24.896-08:00\', \'year\': \'1999\'}, {\'blog\': \'2667339560134489348\', \'categories\': [], \'comments\': [], \'content\': \'Let me question everything I know, to see...<br ...t I am expanding, by freeing my Ego mind...<br />\', \'id\': \'8187357307744789925\', \'tag\': \'blogger.com\', \'title\': \'...\', \'updated\': \'2009-08-15T11:51:53.072-07:00\', \'year\': \'1999\'}, {\'blog\': \'2667339560134489348\', \'categories\': [], \'comments\': [], \'content\': \'Nous traversons tous une grande p\\xc3\\xa9riode de chan...ne">wikip\\xc3\\xa9dia</a>, et beaucoup d\\\'autres )</span>\', \'id\': \'3540768982886600436\', \'tag\': \'blogger.com\', \'title\': "Aux travailleurs de l\'Esprit/To the workers of Spirit", \'updated\': \'2009-09-01T15:37:55.462-07:00\', \'year\': \'1999\'}, {\'blog\': \'2667339560134489348\', \'categories\': [\'incantation\'], \'comments\': [], \'content\': \'(<span style="font-style:italic;">ma</span>(?) v...r />Que Lumi\\xc3\\xa8re et Amour se restaurent sur Terre\', \'id\': \'4135721794084936148\', \'tag\': \'blogger.com\', \'title\': \'la Grande Invocation\', \'updated\': \'2009-07-26T02:34:48.448-07:00\', \'year\': \'1999\'}, {\'blog\': \'2667339560134489348\', \'categories\': [], \'comments\': [], \'content\': \'Started grouding my Self, and immediately felt "...o fast and was so intense, that I just stopped...\', \'id\': \'5434620681877477962\', \'tag\': \'blogger.com\', \'title\': \'...\', \'updated\': \'2009-02-25T15:24:15.256-08:00\', \'year\': \'1999\'}, {\'blog\': \'2667339560134489348\', \'categories\': [], \'comments\': [], \'content\': \'Started meditating, grounding myself...<br />Aft...ng cord, and felt it huge... Felt my Self huge...\', \'id\': \'8420532572329899802\', \'tag\': \'blogger.com\', \'title\': \'...\', \'updated\': \'2009-02-23T04:35:53.640-08:00\', \'year\': \'1999\'}], \'tag\': \'blogger.com\', \'title\': \'spiritual work\', \'user\': \'805854382143\', \'year\': \'1999\'}, {\'categories\': [\'philosophy\'], \'id\': \'5936136819991781356\', \'name\': \'car-pooling-be\', \'posts\': [{\'blog\': \'5936136819991781356\', \'categories\': [\'philosophy\'], \'comments\': [], \'content\': \'In an ideal world, we are living in green cities....<br /><br />Happy car-pooling, and Safe Route...\', \'id\': \'2596155641849338248\', \'tag\': \'blogger.com\', \'title\': \'philosophy\', \'updated\': \'2009-11-06T00:26:35.043-08:00\', \'year\': \'1999\'}], \'tag\': \'blogger.com\', \'title\': \'car-pool.net\', \'user\': \'805854382143\', \'year\': \'1999\'}, {\'categories\': [\'self\', \'soul\', \'change\', \'motion\', \'incantation\', \'word\', \'verb\', \'energy\', \'belief\'], \'id\': \'2853914466295661746\', \'name\': \'molhokwai-shadowwork\', \'posts\': [{\'blog\': \'2853914466295661746\', \'categories\': [], \'comments\': [], \'content\': \'It is just a reflection of your self...<br />So ... destruction... this is why I do not speak yet...\', \'id\': \'52334306755633764\', \'tag\': \'blogger.com\', \'title\': \'...\', \'updated\': \'2009-10-22T01:33:55.316-07:00\', \'year\': \'1999\'}, {\'blog\': \'2853914466295661746\', \'categories\': [], \'comments\': [], \'content\': \'Avec v., nus tous les deux, et moi qui veut la p...omme ne subsister que pour une courte p\\xc3\\xa9riode...\', \'id\': \'7551182809996539431\', \'tag\': \'blogger.com\', \'title\': \'...\', \'updated\': \'2009-09-15T02:56:42.793-07:00\', \'year\': \'1999\'}, {\'blog\': \'2853914466295661746\', \'categories\': [], \'comments\': [], \'content\': \'"Elle est moche, hein?"<br />"Ouais... je me dem...sprits perdus...<br />Des ombres... des ombres...\', \'id\': \'5361022232512442048\', \'tag\': \'blogger.com\', \'title\': \'...\', \'updated\': \'2009-09-14T06:39:16.538-07:00\', \'year\': \'1999\'}, {\'blog\': \'2853914466295661746\', \'categories\': [], \'comments\': [], \'content\': "D\'abord, tu vas commencer par ne t\'exprimer, pen...gagements que tu t\'es cr\\xc3\\xa9\\xc3\\xa9...<br /><br />Voil\\xc3\\xa0", \'id\': \'8043325786908613528\', \'tag\': \'blogger.com\', \'title\': \'...\', \'updated\': \'2009-08-29T03:15:54.950-07:00\', \'year\': \'1999\'}, {\'blog\': \'2853914466295661746\', \'categories\': [], \'comments\': [], \'content\': \'o. avec un "cerveau liquide", qui bout, litt\\xc3\\xa9ra...cytent d\\\'autres petites cr\\xc3\\xa9atures noir-sombre...\', \'id\': \'5905600019114645233\', \'tag\': \'blogger.com\', \'title\': \'...\', \'updated\': \'2009-08-23T16:24:04.268-07:00\', \'year\': \'1999\'}, {\'blog\': \'2853914466295661746\', \'categories\': [], \'comments\': [], \'content\': \'h. with dead eyes... following a. all over the p... to take a. with me, going out, and going back...\', \'id\': \'4183670454514448561\', \'tag\': \'blogger.com\', \'title\': \'...\', \'updated\': \'2009-08-01T06:36:43.133-07:00\', \'year\': \'1999\'}, {\'blog\': \'2853914466295661746\', \'categories\': [\'self\', \'soul\'], \'comments\': [], \'content\': "Je devrais avoir peur en ce moment pour mon aven...ort\\xc3\\xa9 toute la lumi\\xc3\\xa8re que j\'ai \\xc3\\xa0 y apporter...", \'id\': \'9069080669099841747\', \'tag\': \'blogger.com\', \'title\': \'...\', \'updated\': \'2009-06-23T03:18:47.678-07:00\', \'year\': \'1999\'}, {\'blog\': \'2853914466295661746\', \'categories\': [\'self\', \'change\', \'motion\'], \'comments\': [], \'content\': \'Tout est exactement comme il doit \\xc3\\xaatre... Tout ... pour avancer, tous ensemble...<br /><br />Voil\\xc3\\xa0\', \'id\': \'3355598975062147434\', \'tag\': \'blogger.com\', \'title\': \'il est temps...\', \'updated\': \'2009-05-31T03:55:03.865-07:00\', \'year\': \'1999\'}, {\'blog\': \'2853914466295661746\', \'categories\': [], \'comments\': [], \'content\': \'F. telling me the story of a Family of Eagles, w... when he realized that... they..."<br /><br />...\', \'id\': \'6426473936074510927\', \'tag\': \'blogger.com\', \'title\': \'...\', \'updated\': \'2009-05-11T12:21:43.469-07:00\', \'year\': \'1999\'}, {\'blog\': \'2853914466295661746\', \'categories\': [\'self\', \'soul\', \'incantation\'], \'comments\': [], \'content\': \'Oooh Child...<br />Show Your weaknesses, show Yo...of your Soul, say: I love You unconditionnally...\', \'id\': \'426964936751920116\', \'tag\': \'blogger.com\', \'title\': \'...\', \'updated\': \'2009-05-11T12:04:55.334-07:00\', \'year\': \'1999\'}, {\'blog\': \'2853914466295661746\', \'categories\': [\'self\', \'soul\', \'incantation\'], \'comments\': [], \'content\': \'You, who are looking...<br />Know that You belon...ionnaly...<br />Make it a Blessing, or a Curse...\', \'id\': \'7434542094486075483\', \'tag\': \'blogger.com\', \'title\': \'...\', \'updated\': \'2009-05-09T10:14:17.585-07:00\', \'year\': \'1999\'}, {\'blog\': \'2853914466295661746\', \'categories\': [\'word\', \'verb\', \'soul\'], \'comments\': [], \'content\': \'In tune with the Outer Universe<br />I can feel ...er Calling<br />To follow the Path of the Soul...\', \'id\': \'8275340837038324670\', \'tag\': \'blogger.com\', \'title\': \'free fall/rising\', \'updated\': \'2009-05-06T01:00:30.901-07:00\', \'year\': \'1999\'}, {\'blog\': \'2853914466295661746\', \'categories\': [\'incantation\'], \'comments\': [], \'content\': \'Je pourrais vous parler de mes peurs, mais cela ...n...<br /><br />Si n\\xc3\\xa9cessaire, donnez-les moi...\', \'id\': \'1830154053106689589\', \'tag\': \'blogger.com\', \'title\': \'...\', \'updated\': \'2009-04-28T14:47:56.939-07:00\', \'year\': \'1999\'}, {\'blog\': \'2853914466295661746\', \'categories\': [\'self\', \'energy\'], \'comments\': [], \'content\': "1st level: the physical, conscious one, with all...r /><br />I\'ll bring them forth... All of them...", \'id\': \'4862184192950132600\', \'tag\': \'blogger.com\', \'title\': \'...\', \'updated\': \'2009-04-13T08:48:41.829-07:00\', \'year\': \'1999\'}, {\'blog\': \'2853914466295661746\', \'categories\': [\'incantation\', \'energy\'], \'comments\': [], \'content\': \'I can only show you what you want to see...<br /...to you with Love, as you will one day, realize...\', \'id\': \'928346035803924905\', \'tag\': \'blogger.com\', \'title\': \'...\', \'updated\': \'2009-03-30T13:38:21.296-07:00\', \'year\': \'1999\'}, {\'blog\': \'2853914466295661746\', \'categories\': [], \'comments\': [], \'content\': \'A pale, cadaveric head, in a cold dark place...<...the cold dark place was warm, peaceful, loving...\', \'id\': \'8486459033521873014\', \'tag\': \'blogger.com\', \'title\': \'...\', \'updated\': \'2009-03-30T03:35:21.585-07:00\', \'year\': \'1999\'}, {\'blog\': \'2853914466295661746\', \'categories\': [], \'comments\': [], \'content\': "There actually is a more \'popular\' word for this... been at any point...<br /><br />Love<br /><br />", \'id\': \'5770822375766345911\', \'tag\': \'blogger.com\', \'title\': \'...\', \'updated\': \'2009-03-28T15:51:08.947-07:00\', \'year\': \'1999\'}, {\'blog\': \'2853914466295661746\', \'categories\': [\'self\', \'belief\', \'energy\'], \'comments\': [], \'content\': "I can see You doing your apache dance all around...re\'s anything else you can (should?) do anyway...", \'id\': \'897029240368237504\', \'tag\': \'blogger.com\', \'title\': \'...\', \'updated\': \'2009-03-26T15:50:32.511-07:00\', \'year\': \'1999\'}, {\'blog\': \'2853914466295661746\', \'categories\': [\'self\', \'change\', \'energy\', \'motion\'], \'comments\': [], \'content\': "I came across the Reconnections website somewher...l my Love to those I will \'never meet\' anymore...", \'id\': \'2199803366082324759\', \'tag\': \'blogger.com\', \'title\': \'ciao...\', \'updated\': \'2009-05-09T10:39:51.021-07:00\', \'year\': \'1999\'}, {\'blog\': \'2853914466295661746\', \'categories\': [\'self\', \'incantation\'], \'comments\': [], \'content\': \'sick and tired of those lock themselves in the s...s of my self? I will simply own them, by Truth...\', \'id\': \'7898233700927183452\', \'tag\': \'blogger.com\', \'title\': \'...\', \'updated\': \'2009-03-26T05:18:31.342-07:00\', \'year\': \'1999\'}, ...], \'tag\': \'blogger.com\', \'title\': \'shadow work...\', \'user\': \'805854382143\', \'year\': \'1999\'}, {\'categories\': [\'machine\', \'development\', \'interface\', \'human\', \'art\', \'collective\', \'association\', \'complet\', \'language\', \'note\'], \'id\': \'7497965365848149570\', \'name\': \'ideasprojects\', \'posts\': [{\'blog\': \'7497965365848149570\', \'categories\': [\'machine\', \'development\', \'interface\', \'human\'], \'comments\': [], \'content\': \'<div dir="ltr" style="text-align: left;" trbidi=...mplte.html">/2009/01/liste-complte.html</a></div>\', \'id\': \'3783357872275828436\', \'tag\': \'blogger.com\', \'title\': "syst\\xc3\\xa8me d\'exploitation par recherche...", \'updated\': \'2011-01-21T06:14:26.189-08:00\', \'year\': \'1999\'}, {\'blog\': \'7497965365848149570\', \'categories\': [\'art\', \'collective\', \'development\', \'association\'], \'comments\': [], \'content\': \'<span style="font-weight:bold;">Id\\xc3\\xa9e</span><br ...est que cela ait \\xc3\\xa9t\\xc3\\xa9 fait consciemment...</div>\', \'id\': \'6733713332616431813\', \'tag\': \'blogger.com\', \'title\': \'production (chor\\xc3\\xa9ographique) libre\', \'updated\': \'2009-01-29T08:45:51.156-08:00\', \'year\': \'1999\'}, {\'blog\': \'7497965365848149570\', \'categories\': [\'art\', \'collective\', \'development\', \'association\'], \'comments\': [], \'content\': \'<span class="Apple-style-span" style="font-weigh...s \\xc3\\xa0 passer le mot et/ou \\xc3\\xa0 me contacter...</div>\', \'id\': \'43993985545505784\', \'tag\': \'blogger.com\', \'title\': \'production (cin\\xc3\\xa9matographique) libre\', \'updated\': \'2009-01-25T04:49:21.682-08:00\', \'year\': \'1999\'}, {\'blog\': \'7497965365848149570\', \'categories\': [\'association\', \'complet\', \'language\'], \'comments\': [], \'content\': \'<span class="Apple-style-span" style="font-weigh...us pour firefox fonctionne pour un exemple)</div>\', \'id\': \'3198901047105298474\', \'tag\': \'blogger.com\', \'title\': \'liste compl\\xc3\\xa8te\', \'updated\': \'2010-09-06T01:28:07.743-07:00\', \'year\': \'1999\'}, {\'blog\': \'7497965365848149570\', \'categories\': [\'development\', \'association\'], \'comments\': [], \'content\': \'<span class="Apple-style-span" style="font-weigh...ode.google.com/hosting/">google project</a></div>\', \'id\': \'1921427003054155476\', \'tag\': \'blogger.com\', \'title\': \'project collaboration\', \'updated\': \'2009-01-26T12:07:08.053-08:00\', \'year\': \'1999\'}, {\'blog\': \'7497965365848149570\', \'categories\': [\'note\'], \'comments\': [], \'content\': \'Le principe est de mettre toutes les id\\xc3\\xa9es poss...<div><br /></div><div>Voil\\xc3\\xa0... A suivre...</div>\', \'id\': \'6647285942842703899\', \'tag\': \'blogger.com\', \'title\': \'bon...\', \'updated\': \'2009-01-26T09:48:26.650-08:00\', \'year\': \'1999\'}], \'tag\': \'blogger.com\', \'title\': \'id\\xc3\\xa9es & projets\', \'user\': \'805854382143\', \'year\': \'1999\'}, {\'categories\': [\'aiko son\'], \'id\': \'3201538109092870002\', \'name\': \'molhokwai-aiko\', \'posts\': [{\'blog\': \'3201538109092870002\', \'categories\': [\'aiko son\'], \'comments\': [], \'content\': \'Des photos et encore des photos de toi...<br /><...</div></a><div style="color:#808080"></div></div>\', \'id\': \'1358323303379117037\', \'tag\': \'blogger.com\', \'title\': None, \'updated\': \'2007-02-28T10:41:59.907-08:00\', \'year\': \'1999\'}, {\'blog\': \'3201538109092870002\', \'categories\': [\'aiko son\'], \'comments\': [], \'content\': \'Ton blog petit bonhomme...<br /><div style="text...</div></a><div style="color:#808080"></div></div>\', \'id\': \'3625357219623862920\', \'tag\': \'blogger.com\', \'title\': None, \'updated\': \'2007-02-28T10:44:19.652-08:00\', \'year\': \'1999\'}], \'tag\': \'blogger.com\', \'title\': \'aiko\', \'user\': \'805854382143\', \'year\': \'1999\'}]'
p173
sS'_Blogger'
p174
S'<applications.cms.modules.blogger.Blogger instance at 0x8ca06cc>'
p175
sS'global cache'
p176
S'<gluon.cache.Cache object at 0x8b5c96c>'
p177
sS't'
g134
sS'time_expire'
p178
g134
sS'cache.ram'
p179
S'<gluon.cache.CacheInRam object at 0x8b5ca0c>'
p180
ssg99
I451
sg100
(dp181
I448
S'                      app_config.BLOGGER_BLOGS_LANGUAGES)'
p182
sI449
S'    _Blogger.blogs'
p183
sI450
S'    _Blogger.blogs_datas'
p184
sI451
S"    t = cache.ram('blogger_blogs_data', _Blogger.blogs_datas, time_expire=60*60)"
p185
sI452
S'    return t'
p186
sI443
S"                                                        session.blogger_themes.split('-'))]"
p187
sI444
S'            return dict(area = area, nake = False, posts = posts)'
p188
sI445
S''
sI446
S'def blogger_blogs_data():'
p189
sI447
S'    _Blogger = Blogger(app_config.BLOGGER_API, app_config.BLOGGER_BLOGS_THEMES,'
p190
ssg111
S'()'
p191
sg113
S'blogger_blogs_data'
p192
sa(dp193
g91
S'/home/herve/development/workspaces/molhokwai.net/web/gluon/cache.py'
p194
sg93
(dp195
S'value'
p196
g134
sS'f'
S'[{\'categories\': [], \'id\': \'2847443485812916000\', \'name\': \'jemengage\', \'posts\': [{\'blog\': \'2847443485812916000\', \'categories\': [], \'comments\': [], \'content\': \'<div dir="ltr" style="text-align: left;" trbidi=...ne peux que vous dire ceci: Ayez confiance.</div>\', \'id\': \'3259060544791224312\', \'tag\': \'blogger.com\', \'title\': \'Ayez confiance\', \'updated\': \'2011-01-24T07:08:18.738-08:00\', \'year\': \'1999\'}, {\'blog\': \'2847443485812916000\', \'categories\': [], \'comments\': [], \'content\': \'<div dir="ltr" style="text-align: left;" trbidi=...ez-vous la vie.<br /><br />Tout simplement.</div>\', \'id\': \'148174437390761322\', \'tag\': \'blogger.com\', \'title\': \'Placez-vous au dessus de tout \\xc3\\xa7a\', \'updated\': \'2011-01-23T00:19:03.178-08:00\', \'year\': \'1999\'}, {\'blog\': \'2847443485812916000\', \'categories\': [], \'comments\': [], \'content\': \'<div dir="ltr" style="text-align: left;" trbidi=... a aid\\xc3\\xa9, j\\\'aimerai savoir.</i></div></div></div>\', \'id\': \'3719634868756917780\', \'tag\': \'blogger.com\', \'title\': \'Skype: Concurrence & \\xc3\\x89thique\', \'updated\': \'2011-01-22T12:41:34.978-08:00\', \'year\': \'1999\'}, {\'blog\': \'2847443485812916000\', \'categories\': [], \'comments\': [], \'content\': \'<div dir="ltr" style="text-align: left;" trbidi=....<br />\\xc3\\x81 bient\\xc3\\xb4t, pour le premier message</div>\', \'id\': \'5421884131628997264\', \'tag\': \'blogger.com\', \'title\': "Je m\'engage", \'updated\': \'2011-01-21T06:54:01.523-08:00\', \'year\': \'1999\'}], \'tag\': \'blogger.com\', \'title\': "je m\'engage", \'user\': \'805854382143\', \'year\': \'1999\'}, {\'categories\': [], \'id\': \'8515968611599727017\', \'name\': \'my-pledge\', \'posts\': [{\'blog\': \'8515968611599727017\', \'categories\': [], \'comments\': [], \'content\': \'<div dir="ltr" style="text-align: left;" trbidi=...e good thing is that it is becoming easier.</div>\', \'id\': \'8888437007425196562\', \'tag\': \'blogger.com\', \'title\': \'Stand above\', \'updated\': \'2011-01-23T00:02:51.680-08:00\', \'year\': \'1999\'}, {\'blog\': \'8515968611599727017\', \'categories\': [], \'comments\': [], \'content\': \'<div dir="ltr" style="text-align: left;" trbidi=...></ul><div>Just: do your thing.</div></div></div>\', \'id\': \'7900403146400480065\', \'tag\': \'blogger.com\', \'title\': \'Skype Ethics: Competition\', \'updated\': \'2011-01-22T12:41:00.994-08:00\', \'year\': \'1999\'}, {\'blog\': \'8515968611599727017\', \'categories\': [], \'comments\': [], \'content\': \'<div dir="ltr" style="text-align: left;" trbidi=...I would like to know.</i></div></div></div></div>\', \'id\': \'8161338232528169393\', \'tag\': \'blogger.com\', \'title\': \'Skype Ethics\', \'updated\': \'2011-01-22T23:48:28.466-08:00\', \'year\': \'1999\'}, {\'blog\': \'8515968611599727017\', \'categories\': [], \'comments\': [], \'content\': \'<div dir="ltr" style="text-align: left;" trbidi="on"><br />...<br /><br /></div>\', \'id\': \'8178444972421752159\', \'tag\': \'blogger.com\', \'title\': \'My pledge\', \'updated\': \'2011-01-22T09:09:21.624-08:00\', \'year\': \'1999\'}], \'tag\': \'blogger.com\', \'title\': \'my pledge\', \'user\': \'805854382143\', \'year\': \'1999\'}, {\'categories\': [\'changement\', \'shift\', \'r\\xc3\\xa9v\\xc3\\xa9lation\', \'r\\xc3\\xa9alit\\xc3\\xa9\', \'verb\', \'incantation\', \'verbe\', \'mot\', \'\\xc3\\xa9l\\xc3\\xa9vation\', \'amour\', \'word\', \'reality\'], \'id\': \'7966479155905584950\', \'name\': \'molhokwai\', \'posts\': [{\'blog\': \'7966479155905584950\', \'categories\': [], \'comments\': [], \'content\': \'<p style="background-color:#ffffff"><br><br></p>...style="background-color:transparent"><br></p><br>\', \'id\': \'2542996125096405668\', \'tag\': \'blogger.com\', \'title\': \'G\\xc3\\xa9n\\xc3\\xa8se\', \'updated\': \'2010-07-17T03:44:49.264-07:00\', \'year\': \'1999\'}, {\'blog\': \'7966479155905584950\', \'categories\': [], \'comments\': [], \'content\': "Permettez-moi l\'expression...<br /><br />J\'en ai...dernier message de ce blog.<br /><br />Au revoir.", \'id\': \'4927944410186949600\', \'tag\': \'blogger.com\', \'title\': \'foutaises & v\\xc3\\xa9rit\\xc3\\xa9s...\', \'updated\': \'2010-03-20T08:07:00.532-07:00\', \'year\': \'1999\'}, {\'blog\': \'7966479155905584950\', \'categories\': [\'changement\', \'shift\'], \'comments\': [], \'content\': \'...visible ici:&nbsp;<a title="cliquer sur le li...lpod.com/travel-blog/molhokwai/1/tpod.html</a>...\', \'id\': \'8255558481386188529\', \'tag\': \'blogger.com\', \'title\': \'blog de voyage...\', \'updated\': \'2010-03-07T03:49:35.501-08:00\', \'year\': \'1999\'}, {\'blog\': \'7966479155905584950\', \'categories\': [\'r\\xc3\\xa9v\\xc3\\xa9lation\', \'r\\xc3\\xa9alit\\xc3\\xa9\'], \'comments\': [], \'content\': \'<blockquote>Acheter: [...] prendre pour chef*</b...nting-change/commerce/?lang=fr</a></i></span></i>\', \'id\': \'4506025511934326471\', \'tag\': \'blogger.com\', \'title\': \'Acheter, Payer...\', \'updated\': \'2010-03-05T02:55:18.770-08:00\', \'year\': \'1999\'}, {\'blog\': \'7966479155905584950\', \'categories\': [], \'comments\': [], \'content\': \'<span class="Apple-style-span" style="font-famil...an" style="font-size: 11px;"><br /></span></span>\', \'id\': \'3774782513906440650\', \'tag\': \'blogger.com\', \'title\': None, \'updated\': \'2010-02-16T14:22:52.384-08:00\', \'year\': \'1999\'}, {\'blog\': \'7966479155905584950\', \'categories\': [\'verb\', \'incantation\'], \'comments\': [], \'content\': \'Expect Nothing. From No One.<br />Except Love.<b...ect Everything From Love.<br />Anywhere. Anytime.\', \'id\': \'3092327214691150909\', \'tag\': \'blogger.com\', \'title\': \'Love\', \'updated\': \'2010-02-14T03:03:22.149-08:00\', \'year\': \'1999\'}, {\'blog\': \'7966479155905584950\', \'categories\': [\'r\\xc3\\xa9v\\xc3\\xa9lation\', \'verbe\', \'mot\'], \'comments\': [], \'content\': "Le terme exact ce serait plut\\xc3\\xb4t partager du pla...mour...<br /><br />...<br /><br />Faites l\'amour.", \'id\': \'3232671065974229953\', \'tag\': \'blogger.com\', \'title\': "Faire l\'amour...", \'updated\': \'2010-02-13T09:48:17.756-08:00\', \'year\': \'1999\'}, {\'blog\': \'7966479155905584950\', \'categories\': [], \'comments\': [], \'content\': \'Lorsque votre gorge est malade, ou tout simpleme...iv><div>Sentez la Puissance de votre Verbe.</div>\', \'id\': \'4080719920006300694\', \'tag\': \'blogger.com\', \'title\': \'La Gorge\', \'updated\': \'2010-02-11T12:22:58.212-08:00\', \'year\': \'1999\'}, {\'blog\': \'7966479155905584950\', \'categories\': [], \'comments\': [], \'content\': "La Perfection c\'est...", \'id\': \'2398438051553579064\', \'tag\': \'blogger.com\', \'title\': None, \'updated\': \'2010-02-11T12:09:04.456-08:00\', \'year\': \'1999\'}, {\'blog\': \'7966479155905584950\', \'categories\': [\'r\\xc3\\xa9v\\xc3\\xa9lation\', \'mot\'], \'comments\': [], \'content\': \'Aaaahh 2012 :-)... sujet de toutes les attentes,...iques. Merci pour votre <i>absolue beaut\\xc3\\xa9</i>...\', \'id\': \'6142404084595580778\', \'tag\': \'blogger.com\', \'title\': \'2012\', \'updated\': \'2010-02-10T05:51:27.646-08:00\', \'year\': \'1999\'}, {\'blog\': \'7966479155905584950\', \'categories\': [\'r\\xc3\\xa9v\\xc3\\xa9lation\', \'\\xc3\\xa9l\\xc3\\xa9vation\', \'r\\xc3\\xa9alit\\xc3\\xa9\', \'incantation\'], \'comments\': [], \'content\': \'Notre cerveau produit des (dizaines de) milliers...era le moment, plus tard, un autre jour...</span>\', \'id\': \'4760679713553497153\', \'tag\': \'blogger.com\', \'title\': \'Intention & Action\', \'updated\': \'2010-02-05T06:53:11.217-08:00\', \'year\': \'1999\'}, {\'blog\': \'7966479155905584950\', \'categories\': [], \'comments\': [], \'content\': "<blockquote>Je m\'engage \\xc3\\xa0 \\xc3\\x8atre le meilleur de ...toute autre \\xc3\\xa9motion qui nous <em>d\\xc3\\xa9centre</em>.", \'id\': \'5193588688498091407\', \'tag\': \'blogger.com\', \'title\': \'Engagement\', \'updated\': \'2010-02-01T03:27:24.551-08:00\', \'year\': \'1999\'}, {\'blog\': \'7966479155905584950\', \'categories\': [\'mot\', \'amour\', \'\\xc3\\xa9l\\xc3\\xa9vation\'], \'comments\': [], \'content\': \'M\\xc3\\xa9diter:<br /><blockquote>Se laisser conduire v..." style="font-size: x-small;"> dans google</span>\', \'id\': \'5318615708760758580\', \'tag\': \'blogger.com\', \'title\': \'La M\\xc3\\xa9ditation\', \'updated\': \'2010-02-02T16:34:26.470-08:00\', \'year\': \'1999\'}, {\'blog\': \'7966479155905584950\', \'categories\': [], \'comments\': [], \'content\': \'Il est temps de nous engager &agrave; notre <str...;sents</strong>. Soyons <strong>Entiers</strong>.\', \'id\': \'2986073785240345394\', \'tag\': \'blogger.com\', \'title\': \'Intention\', \'updated\': \'2010-01-16T08:45:15.036-08:00\', \'year\': \'1999\'}, {\'blog\': \'7966479155905584950\', \'categories\': [], \'comments\': [], \'content\': "Nous vivons en <i>Manich\\xc3\\xa9anisme</i>, en Dualit\\xc3... formes de Dualit\\xc3\\xa9 que vous avez \\xc3\\xa0 l\'esprit</i>", \'id\': \'7359706515654842888\', \'tag\': \'blogger.com\', \'title\': \'Dualit\\xc3\\xa9, Polarit\\xc3\\xa9, Manich\\xc3\\xa9anisme & La Suite\', \'updated\': \'2010-01-15T06:39:58.630-08:00\', \'year\': \'1999\'}, {\'blog\': \'7966479155905584950\', \'categories\': [], \'comments\': [], \'content\': \'Je suis (juste) un <b>Messager</b>, et je suis h...polarit\\xc3\\xa9, de dualit\\xc3\\xa9, de <b>Manich\\xc3\\xa9anisme</b>.\', \'id\': \'2133010561734903013\', \'tag\': \'blogger.com\', \'title\': \'...\', \'updated\': \'2010-01-15T04:11:53.522-08:00\', \'year\': \'1999\'}, {\'blog\': \'7966479155905584950\', \'categories\': [], \'comments\': [], \'content\': \'I am (just) a <b>Messenger</b>, and I am human, ...wn perfect polarity, my very own perfect duality.\', \'id\': \'338688646942442947\', \'tag\': \'blogger.com\', \'title\': \'...\', \'updated\': \'2010-01-15T04:01:41.019-08:00\', \'year\': \'1999\'}, {\'blog\': \'7966479155905584950\', \'categories\': [\'mot\', \'incantation\'], \'comments\': [], \'content\': \'Il est temps de nous engager \\xc3\\xa0 notre <b>Intenti...le travail que vous avez vous aussi \\xc3\\xa0 accomplir.\', \'id\': \'7939842994443355672\', \'tag\': \'blogger.com\', \'title\': \'Qui je suis\', \'updated\': \'2010-01-10T18:34:52.441-08:00\', \'year\': \'1999\'}, {\'blog\': \'7966479155905584950\', \'categories\': [], \'comments\': [], \'content\': \'Bon...\', \'id\': \'3201026903407192300\', \'tag\': \'blogger.com\', \'title\': \'Qui je suis\', \'updated\': \'2010-01-10T16:42:47.956-08:00\', \'year\': \'1999\'}, {\'blog\': \'7966479155905584950\', \'categories\': [\'r\\xc3\\xa9v\\xc3\\xa9lation\', \'verbe\', \'\\xc3\\xa9l\\xc3\\xa9vation\', \'r\\xc3\\xa9alit\\xc3\\xa9\'], \'comments\': [], \'content\': \'Toute cette Existence, cette R\\xc3\\xa9alit\\xc3\\xa9, cette po...\\xc3\\xa0, et uniquement \\xc3\\xa0 ces moments l\\xc3\\xa0, un Artiste.\', \'id\': \'6165806538185625539\', \'tag\': \'blogger.com\', \'title\': \'Art & Artistes\', \'updated\': \'2010-01-15T02:33:42.678-08:00\', \'year\': \'1999\'}, ...], \'tag\': \'blogger.com\', \'title\': \'molhokwai: existence et essence\', \'user\': \'805854382143\', \'year\': \'1999\'}, {\'categories\': [], \'id\': \'2881232117151438570\', \'name\': \'auxoeuvreurs\', \'posts\': [{\'blog\': \'2881232117151438570\', \'categories\': [], \'comments\': [], \'content\': "<i>Ce \'bouquin\' est fait pour \\xc3\\xaatre utile, pour ...uation Collective.&nbsp;</blockquote><br /></div>", \'id\': \'9011777537783311084\', \'tag\': \'blogger.com\', \'title\': None, \'updated\': \'2010-04-06T07:11:12.236-07:00\', \'year\': \'1999\'}], \'tag\': \'blogger.com\', \'title\': \'Aux Oeuvreurs\', \'user\': \'805854382143\', \'year\': \'1999\'}, {\'categories\': [\'word\', \'machine\', \'interface\', \'human\', \'development\', \'association\', \'free\', \'art\', \'collective\'], \'id\': \'4979118888770430827\', \'name\': \'ideasprojects-en\', \'posts\': [{\'blog\': \'4979118888770430827\', \'categories\': [], \'comments\': [], \'content\': \'Another idea, linking the <a href="http://ideasp...naturally give birth to a <i>liste compl\\xc3\\xa8te</i>.\', \'id\': \'1520647972633088874\', \'tag\': \'blogger.com\', \'title\': \'Search Based Operating System: Addendum\', \'updated\': \'2010-03-30T08:47:10.508-07:00\', \'year\': \'1999\'}, {\'blog\': \'4979118888770430827\', \'categories\': [\'word\', \'machine\', \'interface\', \'human\'], \'comments\': [], \'content\': \'<span style="font-weight:bold;">Principles</span...e user\\\'s</span></li><br /><li>...</li><br /></ul>\', \'id\': \'127621965222039991\', \'tag\': \'blogger.com\', \'title\': \'human machine interface\', \'updated\': \'2009-05-16T08:49:24.722-07:00\', \'year\': \'1999\'}, {\'blog\': \'4979118888770430827\', \'categories\': [\'machine\', \'development\', \'association\', \'interface\', \'human\'], \'comments\': [], \'content\': \'<span style="font-weight:bold;">principle</span>...s the relations...</li><br /></ul><br />Voil\\xc3\\xa0...\', \'id\': \'8811040142030984749\', \'tag\': \'blogger.com\', \'title\': \'3rd dimensional association map\', \'updated\': \'2009-05-16T07:54:44.399-07:00\', \'year\': \'1999\'}, {\'blog\': \'4979118888770430827\', \'categories\': [\'machine\', \'free\', \'development\'], \'comments\': [], \'content\': \'The true purpose of machine/software as a utilit...ligence of the machine we should be working on...\', \'id\': \'776559635816925244\', \'tag\': \'blogger.com\', \'title\': \'no maintenance software\', \'updated\': \'2009-04-26T02:04:41.408-07:00\', \'year\': \'1999\'}, {\'blog\': \'4979118888770430827\', \'categories\': [\'machine\', \'development\', \'interface\', \'human\'], \'comments\': [], \'content\': \'<span style="font-weight:bold;">parallels</span>...ss (free & open source software) isbos / sibos...\', \'id\': \'7206289283476661869\', \'tag\': \'blogger.com\', \'title\': \'Search Based Operating System (2): Internet Based Operating System\', \'updated\': \'2009-04-26T02:09:43.591-07:00\', \'year\': \'1999\'}, {\'blog\': \'4979118888770430827\', \'categories\': [\'machine\', \'development\', \'interface\', \'human\'], \'comments\': [], \'content\': \'<span style="font-weight:bold;">Idea </span><br ... see full size" alt="click to see image..."/></a>\', \'id\': \'4963005638433911031\', \'tag\': \'blogger.com\', \'title\': \'Search Based Operating System\', \'updated\': \'2009-03-14T07:36:45.523-07:00\', \'year\': \'1999\'}, {\'blog\': \'4979118888770430827\', \'categories\': [\'art\', \'collective\', \'free\', \'development\', \'association\'], \'comments\': [], \'content\': \'<span style="font-weight:bold;">Idea</span><br /...g is that it has ever been done so consciously...\', \'id\': \'4277337953102576126\', \'tag\': \'blogger.com\', \'title\': \'Free choreography production\', \'updated\': \'2009-02-03T12:34:51.537-08:00\', \'year\': \'1999\'}, {\'blog\': \'4979118888770430827\', \'categories\': [\'art\', \'collective\', \'free\', \'development\', \'association\'], \'comments\': [], \'content\': \'<span style="font-weight:bold;">Idea</span><br /...l free to spread the word and / or contact me ...\', \'id\': \'8774950748386478502\', \'tag\': \'blogger.com\', \'title\': \'Free movie production\', \'updated\': \'2009-05-27T01:30:05.268-07:00\', \'year\': \'1999\'}], \'tag\': \'blogger.com\', \'title\': \'ideas & projects\', \'user\': \'805854382143\', \'year\': \'1999\'}, {\'categories\': [\'meditation\', \'incantation\'], \'id\': \'2667339560134489348\', \'name\': \'molhokwai-spiritualwork\', \'posts\': [{\'blog\': \'2667339560134489348\', \'categories\': [], \'comments\': [], \'content\': "I felt the kundalini serpent uncoiling from its ... only imagine the \'Tremens\' for the unprepared...", \'id\': \'520086820583021315\', \'tag\': \'blogger.com\', \'title\': \'The Kundalini Serpent\', \'updated\': \'2010-03-19T23:31:52.952-07:00\', \'year\': \'1999\'}, {\'blog\': \'2667339560134489348\', \'categories\': [], \'comments\': [], \'content\': None, \'id\': \'4757634367868106267\', \'tag\': \'blogger.com\', \'title\': \'the kundalini serpent\', \'updated\': \'2010-03-19T21:00:46.627-07:00\', \'year\': \'1999\'}, {\'blog\': \'2667339560134489348\', \'categories\': [], \'comments\': [], \'content\': \'A <i>Friend</i> repeated it to me over and over ...ho know and let it.</blockquote><div><br /></div>\', \'id\': \'856467195326253961\', \'tag\': \'blogger.com\', \'title\': None, \'updated\': \'2010-02-12T01:06:04.397-08:00\', \'year\': \'1999\'}, {\'blog\': \'2667339560134489348\', \'categories\': [], \'comments\': [], \'content\': \'I am invested with the Power of God...<br />I am...ower...<br />I am invested with the Power of God.\', \'id\': \'2296865965774687559\', \'tag\': \'blogger.com\', \'title\': None, \'updated\': \'2010-02-11T11:02:23.944-08:00\', \'year\': \'1999\'}, {\'blog\': \'2667339560134489348\', \'categories\': [], \'comments\': [], \'content\': \'These are the themes of the Moment.<br /><br /><...to be. <b>Silence</b> and <b>Total Listening</b>.\', \'id\': \'4531683412343235844\', \'tag\': \'blogger.com\', \'title\': \'Power & Silence\', \'updated\': \'2010-01-19T04:39:59.494-08:00\', \'year\': \'1999\'}, {\'blog\': \'2667339560134489348\', \'categories\': [], \'comments\': [], \'content\': "It\'s like my Ego had been supporting me for... w...g, any path I chose to take...<br /><br />Voil\\xc3\\xa0.", \'id\': \'6515277208959708925\', \'tag\': \'blogger.com\', \'title\': \'Embracing my Ego\', \'updated\': \'2010-01-18T06:42:19.572-08:00\', \'year\': \'1999\'}, {\'blog\': \'2667339560134489348\', \'categories\': [], \'comments\': [], \'content\': \'<span style="font-size:1em;font-style:italic;">I...naly</b>, and <b>Be Together</b>... <br /></span>\', \'id\': \'169881469879331779\', \'tag\': \'blogger.com\', \'title\': \'Oneness appendix: destinations\', \'updated\': \'2010-01-15T03:35:58.840-08:00\', \'year\': \'1999\'}, {\'blog\': \'2667339560134489348\', \'categories\': [], \'comments\': [], \'content\': \'<span style="font-size:1em;font-style:italic;">S...ing at different levels of the Experience.</span>\', \'id\': \'1651686709615127645\', \'tag\': \'blogger.com\', \'title\': \'Oneness appendix: fighting\', \'updated\': \'2010-01-15T03:36:27.612-08:00\', \'year\': \'1999\'}, {\'blog\': \'2667339560134489348\', \'categories\': [], \'comments\': [], \'content\': \'I am (just) a <b>Messenger</b>, and I am human, ... meet, unconditionnaly, and <b>Be Together</b>...\', \'id\': \'2196240913590810337\', \'tag\': \'blogger.com\', \'title\': \'Oneness\', \'updated\': \'2010-01-15T04:00:45.806-08:00\', \'year\': \'1999\'}, {\'blog\': \'2667339560134489348\', \'categories\': [\'meditation\'], \'comments\': [], \'content\': "Today\'s topic: teaching.<br /><br />Write down y...li></ul><br />Your teachings are provided freely.", \'id\': \'3604909192808397832\', \'tag\': \'blogger.com\', \'title\': \'...\', \'updated\': \'2010-01-04T12:25:13.307-08:00\', \'year\': \'1999\'}, {\'blog\': \'2667339560134489348\', \'categories\': [\'meditation\'], \'comments\': [], \'content\': \'Deeper than ever...<br /><br />Got out and staye...ment the pieces of information received</li></ul>\', \'id\': \'1693550073784608666\', \'tag\': \'blogger.com\', \'title\': \'...\', \'updated\': \'2010-01-04T12:26:00.227-08:00\', \'year\': \'1999\'}, {\'blog\': \'2667339560134489348\', \'categories\': [], \'comments\': [], \'content\': \'"Feelings are the language of the Soul"<br /><br...ne of them, or just let them be...<br /><br />...\', \'id\': \'6411808994269437604\', \'tag\': \'blogger.com\', \'title\': \'do what you feel...\', \'updated\': \'2009-12-04T12:05:36.322-08:00\', \'year\': \'1999\'}, {\'blog\': \'2667339560134489348\', \'categories\': [], \'comments\': [], \'content\': \'Hello,<br /><br />First, my knowledge is limited...hope I will be able to share this with you, soon.\', \'id\': \'7941296691130862055\', \'tag\': \'blogger.com\', \'title\': \'path\', \'updated\': \'2009-11-30T23:33:24.896-08:00\', \'year\': \'1999\'}, {\'blog\': \'2667339560134489348\', \'categories\': [], \'comments\': [], \'content\': \'Let me question everything I know, to see...<br ...t I am expanding, by freeing my Ego mind...<br />\', \'id\': \'8187357307744789925\', \'tag\': \'blogger.com\', \'title\': \'...\', \'updated\': \'2009-08-15T11:51:53.072-07:00\', \'year\': \'1999\'}, {\'blog\': \'2667339560134489348\', \'categories\': [], \'comments\': [], \'content\': \'Nous traversons tous une grande p\\xc3\\xa9riode de chan...ne">wikip\\xc3\\xa9dia</a>, et beaucoup d\\\'autres )</span>\', \'id\': \'3540768982886600436\', \'tag\': \'blogger.com\', \'title\': "Aux travailleurs de l\'Esprit/To the workers of Spirit", \'updated\': \'2009-09-01T15:37:55.462-07:00\', \'year\': \'1999\'}, {\'blog\': \'2667339560134489348\', \'categories\': [\'incantation\'], \'comments\': [], \'content\': \'(<span style="font-style:italic;">ma</span>(?) v...r />Que Lumi\\xc3\\xa8re et Amour se restaurent sur Terre\', \'id\': \'4135721794084936148\', \'tag\': \'blogger.com\', \'title\': \'la Grande Invocation\', \'updated\': \'2009-07-26T02:34:48.448-07:00\', \'year\': \'1999\'}, {\'blog\': \'2667339560134489348\', \'categories\': [], \'comments\': [], \'content\': \'Started grouding my Self, and immediately felt "...o fast and was so intense, that I just stopped...\', \'id\': \'5434620681877477962\', \'tag\': \'blogger.com\', \'title\': \'...\', \'updated\': \'2009-02-25T15:24:15.256-08:00\', \'year\': \'1999\'}, {\'blog\': \'2667339560134489348\', \'categories\': [], \'comments\': [], \'content\': \'Started meditating, grounding myself...<br />Aft...ng cord, and felt it huge... Felt my Self huge...\', \'id\': \'8420532572329899802\', \'tag\': \'blogger.com\', \'title\': \'...\', \'updated\': \'2009-02-23T04:35:53.640-08:00\', \'year\': \'1999\'}], \'tag\': \'blogger.com\', \'title\': \'spiritual work\', \'user\': \'805854382143\', \'year\': \'1999\'}, {\'categories\': [\'philosophy\'], \'id\': \'5936136819991781356\', \'name\': \'car-pooling-be\', \'posts\': [{\'blog\': \'5936136819991781356\', \'categories\': [\'philosophy\'], \'comments\': [], \'content\': \'In an ideal world, we are living in green cities....<br /><br />Happy car-pooling, and Safe Route...\', \'id\': \'2596155641849338248\', \'tag\': \'blogger.com\', \'title\': \'philosophy\', \'updated\': \'2009-11-06T00:26:35.043-08:00\', \'year\': \'1999\'}], \'tag\': \'blogger.com\', \'title\': \'car-pool.net\', \'user\': \'805854382143\', \'year\': \'1999\'}, {\'categories\': [\'self\', \'soul\', \'change\', \'motion\', \'incantation\', \'word\', \'verb\', \'energy\', \'belief\'], \'id\': \'2853914466295661746\', \'name\': \'molhokwai-shadowwork\', \'posts\': [{\'blog\': \'2853914466295661746\', \'categories\': [], \'comments\': [], \'content\': \'It is just a reflection of your self...<br />So ... destruction... this is why I do not speak yet...\', \'id\': \'52334306755633764\', \'tag\': \'blogger.com\', \'title\': \'...\', \'updated\': \'2009-10-22T01:33:55.316-07:00\', \'year\': \'1999\'}, {\'blog\': \'2853914466295661746\', \'categories\': [], \'comments\': [], \'content\': \'Avec v., nus tous les deux, et moi qui veut la p...omme ne subsister que pour une courte p\\xc3\\xa9riode...\', \'id\': \'7551182809996539431\', \'tag\': \'blogger.com\', \'title\': \'...\', \'updated\': \'2009-09-15T02:56:42.793-07:00\', \'year\': \'1999\'}, {\'blog\': \'2853914466295661746\', \'categories\': [], \'comments\': [], \'content\': \'"Elle est moche, hein?"<br />"Ouais... je me dem...sprits perdus...<br />Des ombres... des ombres...\', \'id\': \'5361022232512442048\', \'tag\': \'blogger.com\', \'title\': \'...\', \'updated\': \'2009-09-14T06:39:16.538-07:00\', \'year\': \'1999\'}, {\'blog\': \'2853914466295661746\', \'categories\': [], \'comments\': [], \'content\': "D\'abord, tu vas commencer par ne t\'exprimer, pen...gagements que tu t\'es cr\\xc3\\xa9\\xc3\\xa9...<br /><br />Voil\\xc3\\xa0", \'id\': \'8043325786908613528\', \'tag\': \'blogger.com\', \'title\': \'...\', \'updated\': \'2009-08-29T03:15:54.950-07:00\', \'year\': \'1999\'}, {\'blog\': \'2853914466295661746\', \'categories\': [], \'comments\': [], \'content\': \'o. avec un "cerveau liquide", qui bout, litt\\xc3\\xa9ra...cytent d\\\'autres petites cr\\xc3\\xa9atures noir-sombre...\', \'id\': \'5905600019114645233\', \'tag\': \'blogger.com\', \'title\': \'...\', \'updated\': \'2009-08-23T16:24:04.268-07:00\', \'year\': \'1999\'}, {\'blog\': \'2853914466295661746\', \'categories\': [], \'comments\': [], \'content\': \'h. with dead eyes... following a. all over the p... to take a. with me, going out, and going back...\', \'id\': \'4183670454514448561\', \'tag\': \'blogger.com\', \'title\': \'...\', \'updated\': \'2009-08-01T06:36:43.133-07:00\', \'year\': \'1999\'}, {\'blog\': \'2853914466295661746\', \'categories\': [\'self\', \'soul\'], \'comments\': [], \'content\': "Je devrais avoir peur en ce moment pour mon aven...ort\\xc3\\xa9 toute la lumi\\xc3\\xa8re que j\'ai \\xc3\\xa0 y apporter...", \'id\': \'9069080669099841747\', \'tag\': \'blogger.com\', \'title\': \'...\', \'updated\': \'2009-06-23T03:18:47.678-07:00\', \'year\': \'1999\'}, {\'blog\': \'2853914466295661746\', \'categories\': [\'self\', \'change\', \'motion\'], \'comments\': [], \'content\': \'Tout est exactement comme il doit \\xc3\\xaatre... Tout ... pour avancer, tous ensemble...<br /><br />Voil\\xc3\\xa0\', \'id\': \'3355598975062147434\', \'tag\': \'blogger.com\', \'title\': \'il est temps...\', \'updated\': \'2009-05-31T03:55:03.865-07:00\', \'year\': \'1999\'}, {\'blog\': \'2853914466295661746\', \'categories\': [], \'comments\': [], \'content\': \'F. telling me the story of a Family of Eagles, w... when he realized that... they..."<br /><br />...\', \'id\': \'6426473936074510927\', \'tag\': \'blogger.com\', \'title\': \'...\', \'updated\': \'2009-05-11T12:21:43.469-07:00\', \'year\': \'1999\'}, {\'blog\': \'2853914466295661746\', \'categories\': [\'self\', \'soul\', \'incantation\'], \'comments\': [], \'content\': \'Oooh Child...<br />Show Your weaknesses, show Yo...of your Soul, say: I love You unconditionnally...\', \'id\': \'426964936751920116\', \'tag\': \'blogger.com\', \'title\': \'...\', \'updated\': \'2009-05-11T12:04:55.334-07:00\', \'year\': \'1999\'}, {\'blog\': \'2853914466295661746\', \'categories\': [\'self\', \'soul\', \'incantation\'], \'comments\': [], \'content\': \'You, who are looking...<br />Know that You belon...ionnaly...<br />Make it a Blessing, or a Curse...\', \'id\': \'7434542094486075483\', \'tag\': \'blogger.com\', \'title\': \'...\', \'updated\': \'2009-05-09T10:14:17.585-07:00\', \'year\': \'1999\'}, {\'blog\': \'2853914466295661746\', \'categories\': [\'word\', \'verb\', \'soul\'], \'comments\': [], \'content\': \'In tune with the Outer Universe<br />I can feel ...er Calling<br />To follow the Path of the Soul...\', \'id\': \'8275340837038324670\', \'tag\': \'blogger.com\', \'title\': \'free fall/rising\', \'updated\': \'2009-05-06T01:00:30.901-07:00\', \'year\': \'1999\'}, {\'blog\': \'2853914466295661746\', \'categories\': [\'incantation\'], \'comments\': [], \'content\': \'Je pourrais vous parler de mes peurs, mais cela ...n...<br /><br />Si n\\xc3\\xa9cessaire, donnez-les moi...\', \'id\': \'1830154053106689589\', \'tag\': \'blogger.com\', \'title\': \'...\', \'updated\': \'2009-04-28T14:47:56.939-07:00\', \'year\': \'1999\'}, {\'blog\': \'2853914466295661746\', \'categories\': [\'self\', \'energy\'], \'comments\': [], \'content\': "1st level: the physical, conscious one, with all...r /><br />I\'ll bring them forth... All of them...", \'id\': \'4862184192950132600\', \'tag\': \'blogger.com\', \'title\': \'...\', \'updated\': \'2009-04-13T08:48:41.829-07:00\', \'year\': \'1999\'}, {\'blog\': \'2853914466295661746\', \'categories\': [\'incantation\', \'energy\'], \'comments\': [], \'content\': \'I can only show you what you want to see...<br /...to you with Love, as you will one day, realize...\', \'id\': \'928346035803924905\', \'tag\': \'blogger.com\', \'title\': \'...\', \'updated\': \'2009-03-30T13:38:21.296-07:00\', \'year\': \'1999\'}, {\'blog\': \'2853914466295661746\', \'categories\': [], \'comments\': [], \'content\': \'A pale, cadaveric head, in a cold dark place...<...the cold dark place was warm, peaceful, loving...\', \'id\': \'8486459033521873014\', \'tag\': \'blogger.com\', \'title\': \'...\', \'updated\': \'2009-03-30T03:35:21.585-07:00\', \'year\': \'1999\'}, {\'blog\': \'2853914466295661746\', \'categories\': [], \'comments\': [], \'content\': "There actually is a more \'popular\' word for this... been at any point...<br /><br />Love<br /><br />", \'id\': \'5770822375766345911\', \'tag\': \'blogger.com\', \'title\': \'...\', \'updated\': \'2009-03-28T15:51:08.947-07:00\', \'year\': \'1999\'}, {\'blog\': \'2853914466295661746\', \'categories\': [\'self\', \'belief\', \'energy\'], \'comments\': [], \'content\': "I can see You doing your apache dance all around...re\'s anything else you can (should?) do anyway...", \'id\': \'897029240368237504\', \'tag\': \'blogger.com\', \'title\': \'...\', \'updated\': \'2009-03-26T15:50:32.511-07:00\', \'year\': \'1999\'}, {\'blog\': \'2853914466295661746\', \'categories\': [\'self\', \'change\', \'energy\', \'motion\'], \'comments\': [], \'content\': "I came across the Reconnections website somewher...l my Love to those I will \'never meet\' anymore...", \'id\': \'2199803366082324759\', \'tag\': \'blogger.com\', \'title\': \'ciao...\', \'updated\': \'2009-05-09T10:39:51.021-07:00\', \'year\': \'1999\'}, {\'blog\': \'2853914466295661746\', \'categories\': [\'self\', \'incantation\'], \'comments\': [], \'content\': \'sick and tired of those lock themselves in the s...s of my self? I will simply own them, by Truth...\', \'id\': \'7898233700927183452\', \'tag\': \'blogger.com\', \'title\': \'...\', \'updated\': \'2009-03-26T05:18:31.342-07:00\', \'year\': \'1999\'}, ...], \'tag\': \'blogger.com\', \'title\': \'shadow work...\', \'user\': \'805854382143\', \'year\': \'1999\'}, {\'categories\': [\'machine\', \'development\', \'interface\', \'human\', \'art\', \'collective\', \'association\', \'complet\', \'language\', \'note\'], \'id\': \'7497965365848149570\', \'name\': \'ideasprojects\', \'posts\': [{\'blog\': \'7497965365848149570\', \'categories\': [\'machine\', \'development\', \'interface\', \'human\'], \'comments\': [], \'content\': \'<div dir="ltr" style="text-align: left;" trbidi=...mplte.html">/2009/01/liste-complte.html</a></div>\', \'id\': \'3783357872275828436\', \'tag\': \'blogger.com\', \'title\': "syst\\xc3\\xa8me d\'exploitation par recherche...", \'updated\': \'2011-01-21T06:14:26.189-08:00\', \'year\': \'1999\'}, {\'blog\': \'7497965365848149570\', \'categories\': [\'art\', \'collective\', \'development\', \'association\'], \'comments\': [], \'content\': \'<span style="font-weight:bold;">Id\\xc3\\xa9e</span><br ...est que cela ait \\xc3\\xa9t\\xc3\\xa9 fait consciemment...</div>\', \'id\': \'6733713332616431813\', \'tag\': \'blogger.com\', \'title\': \'production (chor\\xc3\\xa9ographique) libre\', \'updated\': \'2009-01-29T08:45:51.156-08:00\', \'year\': \'1999\'}, {\'blog\': \'7497965365848149570\', \'categories\': [\'art\', \'collective\', \'development\', \'association\'], \'comments\': [], \'content\': \'<span class="Apple-style-span" style="font-weigh...s \\xc3\\xa0 passer le mot et/ou \\xc3\\xa0 me contacter...</div>\', \'id\': \'43993985545505784\', \'tag\': \'blogger.com\', \'title\': \'production (cin\\xc3\\xa9matographique) libre\', \'updated\': \'2009-01-25T04:49:21.682-08:00\', \'year\': \'1999\'}, {\'blog\': \'7497965365848149570\', \'categories\': [\'association\', \'complet\', \'language\'], \'comments\': [], \'content\': \'<span class="Apple-style-span" style="font-weigh...us pour firefox fonctionne pour un exemple)</div>\', \'id\': \'3198901047105298474\', \'tag\': \'blogger.com\', \'title\': \'liste compl\\xc3\\xa8te\', \'updated\': \'2010-09-06T01:28:07.743-07:00\', \'year\': \'1999\'}, {\'blog\': \'7497965365848149570\', \'categories\': [\'development\', \'association\'], \'comments\': [], \'content\': \'<span class="Apple-style-span" style="font-weigh...ode.google.com/hosting/">google project</a></div>\', \'id\': \'1921427003054155476\', \'tag\': \'blogger.com\', \'title\': \'project collaboration\', \'updated\': \'2009-01-26T12:07:08.053-08:00\', \'year\': \'1999\'}, {\'blog\': \'7497965365848149570\', \'categories\': [\'note\'], \'comments\': [], \'content\': \'Le principe est de mettre toutes les id\\xc3\\xa9es poss...<div><br /></div><div>Voil\\xc3\\xa0... A suivre...</div>\', \'id\': \'6647285942842703899\', \'tag\': \'blogger.com\', \'title\': \'bon...\', \'updated\': \'2009-01-26T09:48:26.650-08:00\', \'year\': \'1999\'}], \'tag\': \'blogger.com\', \'title\': \'id\\xc3\\xa9es & projets\', \'user\': \'805854382143\', \'year\': \'1999\'}, {\'categories\': [\'aiko son\'], \'id\': \'3201538109092870002\', \'name\': \'molhokwai-aiko\', \'posts\': [{\'blog\': \'3201538109092870002\', \'categories\': [\'aiko son\'], \'comments\': [], \'content\': \'Des photos et encore des photos de toi...<br /><...</div></a><div style="color:#808080"></div></div>\', \'id\': \'1358323303379117037\', \'tag\': \'blogger.com\', \'title\': None, \'updated\': \'2007-02-28T10:41:59.907-08:00\', \'year\': \'1999\'}, {\'blog\': \'3201538109092870002\', \'categories\': [\'aiko son\'], \'comments\': [], \'content\': \'Ton blog petit bonhomme...<br /><div style="text...</div></a><div style="color:#808080"></div></div>\', \'id\': \'3625357219623862920\', \'tag\': \'blogger.com\', \'title\': None, \'updated\': \'2007-02-28T10:44:19.652-08:00\', \'year\': \'1999\'}], \'tag\': \'blogger.com\', \'title\': \'aiko\', \'user\': \'805854382143\', \'year\': \'1999\'}]'
p197
ssg99
I184
sg100
(dp198
I179
S''
sI180
S'        if f is None:'
p199
sI181
S'            return None'
p200
sI182
S'        if item and (dt == None or item[0] > time.time() - dt):'
p201
sI183
S'            return item[1]'
p202
sI184
S'        value = f()'
p203
sI185
S''
sI186
S'        self.locker.acquire()'
p204
sI187
S'        self.storage[key] = (time.time(), value)'
p205
sI188
S"        self.storage[CacheAbstract.cache_stats_name]['misses'] += 1"
p206
ssg111
S'(self=<gluon.cache.CacheInRam object at 0x8b5ca0c>, key=\'blogger_blogs_data\', f=[{\'categories\': [], \'id\': \'2847443485812916000\', \'name\': \'jemengage\', \'posts\': [{\'blog\': \'2847443485812916000\', \'categories\': [], \'comments\': [], \'content\': \'<div dir="ltr" style="text-align: left;" trbidi=...ne peux que vous dire ceci: Ayez confiance.</div>\', \'id\': \'3259060544791224312\', \'tag\': \'blogger.com\', \'title\': \'Ayez confiance\', \'updated\': \'2011-01-24T07:08:18.738-08:00\', \'year\': \'1999\'}, {\'blog\': \'2847443485812916000\', \'categories\': [], \'comments\': [], \'content\': \'<div dir="ltr" style="text-align: left;" trbidi=...ez-vous la vie.<br /><br />Tout simplement.</div>\', \'id\': \'148174437390761322\', \'tag\': \'blogger.com\', \'title\': \'Placez-vous au dessus de tout \\xc3\\xa7a\', \'updated\': \'2011-01-23T00:19:03.178-08:00\', \'year\': \'1999\'}, {\'blog\': \'2847443485812916000\', \'categories\': [], \'comments\': [], \'content\': \'<div dir="ltr" style="text-align: left;" trbidi=... a aid\\xc3\\xa9, j\\\'aimerai savoir.</i></div></div></div>\', \'id\': \'3719634868756917780\', \'tag\': \'blogger.com\', \'title\': \'Skype: Concurrence & \\xc3\\x89thique\', \'updated\': \'2011-01-22T12:41:34.978-08:00\', \'year\': \'1999\'}, {\'blog\': \'2847443485812916000\', \'categories\': [], \'comments\': [], \'content\': \'<div dir="ltr" style="text-align: left;" trbidi=....<br />\\xc3\\x81 bient\\xc3\\xb4t, pour le premier message</div>\', \'id\': \'5421884131628997264\', \'tag\': \'blogger.com\', \'title\': "Je m\'engage", \'updated\': \'2011-01-21T06:54:01.523-08:00\', \'year\': \'1999\'}], \'tag\': \'blogger.com\', \'title\': "je m\'engage", \'user\': \'805854382143\', \'year\': \'1999\'}, {\'categories\': [], \'id\': \'8515968611599727017\', \'name\': \'my-pledge\', \'posts\': [{\'blog\': \'8515968611599727017\', \'categories\': [], \'comments\': [], \'content\': \'<div dir="ltr" style="text-align: left;" trbidi=...e good thing is that it is becoming easier.</div>\', \'id\': \'8888437007425196562\', \'tag\': \'blogger.com\', \'title\': \'Stand above\', \'updated\': \'2011-01-23T00:02:51.680-08:00\', \'year\': \'1999\'}, {\'blog\': \'8515968611599727017\', \'categories\': [], \'comments\': [], \'content\': \'<div dir="ltr" style="text-align: left;" trbidi=...></ul><div>Just: do your thing.</div></div></div>\', \'id\': \'7900403146400480065\', \'tag\': \'blogger.com\', \'title\': \'Skype Ethics: Competition\', \'updated\': \'2011-01-22T12:41:00.994-08:00\', \'year\': \'1999\'}, {\'blog\': \'8515968611599727017\', \'categories\': [], \'comments\': [], \'content\': \'<div dir="ltr" style="text-align: left;" trbidi=...I would like to know.</i></div></div></div></div>\', \'id\': \'8161338232528169393\', \'tag\': \'blogger.com\', \'title\': \'Skype Ethics\', \'updated\': \'2011-01-22T23:48:28.466-08:00\', \'year\': \'1999\'}, {\'blog\': \'8515968611599727017\', \'categories\': [], \'comments\': [], \'content\': \'<div dir="ltr" style="text-align: left;" trbidi="on"><br />...<br /><br /></div>\', \'id\': \'8178444972421752159\', \'tag\': \'blogger.com\', \'title\': \'My pledge\', \'updated\': \'2011-01-22T09:09:21.624-08:00\', \'year\': \'1999\'}], \'tag\': \'blogger.com\', \'title\': \'my pledge\', \'user\': \'805854382143\', \'year\': \'1999\'}, {\'categories\': [\'changement\', \'shift\', \'r\\xc3\\xa9v\\xc3\\xa9lation\', \'r\\xc3\\xa9alit\\xc3\\xa9\', \'verb\', \'incantation\', \'verbe\', \'mot\', \'\\xc3\\xa9l\\xc3\\xa9vation\', \'amour\', \'word\', \'reality\'], \'id\': \'7966479155905584950\', \'name\': \'molhokwai\', \'posts\': [{\'blog\': \'7966479155905584950\', \'categories\': [], \'comments\': [], \'content\': \'<p style="background-color:#ffffff"><br><br></p>...style="background-color:transparent"><br></p><br>\', \'id\': \'2542996125096405668\', \'tag\': \'blogger.com\', \'title\': \'G\\xc3\\xa9n\\xc3\\xa8se\', \'updated\': \'2010-07-17T03:44:49.264-07:00\', \'year\': \'1999\'}, {\'blog\': \'7966479155905584950\', \'categories\': [], \'comments\': [], \'content\': "Permettez-moi l\'expression...<br /><br />J\'en ai...dernier message de ce blog.<br /><br />Au revoir.", \'id\': \'4927944410186949600\', \'tag\': \'blogger.com\', \'title\': \'foutaises & v\\xc3\\xa9rit\\xc3\\xa9s...\', \'updated\': \'2010-03-20T08:07:00.532-07:00\', \'year\': \'1999\'}, {\'blog\': \'7966479155905584950\', \'categories\': [\'changement\', \'shift\'], \'comments\': [], \'content\': \'...visible ici:&nbsp;<a title="cliquer sur le li...lpod.com/travel-blog/molhokwai/1/tpod.html</a>...\', \'id\': \'8255558481386188529\', \'tag\': \'blogger.com\', \'title\': \'blog de voyage...\', \'updated\': \'2010-03-07T03:49:35.501-08:00\', \'year\': \'1999\'}, {\'blog\': \'7966479155905584950\', \'categories\': [\'r\\xc3\\xa9v\\xc3\\xa9lation\', \'r\\xc3\\xa9alit\\xc3\\xa9\'], \'comments\': [], \'content\': \'<blockquote>Acheter: [...] prendre pour chef*</b...nting-change/commerce/?lang=fr</a></i></span></i>\', \'id\': \'4506025511934326471\', \'tag\': \'blogger.com\', \'title\': \'Acheter, Payer...\', \'updated\': \'2010-03-05T02:55:18.770-08:00\', \'year\': \'1999\'}, {\'blog\': \'7966479155905584950\', \'categories\': [], \'comments\': [], \'content\': \'<span class="Apple-style-span" style="font-famil...an" style="font-size: 11px;"><br /></span></span>\', \'id\': \'3774782513906440650\', \'tag\': \'blogger.com\', \'title\': None, \'updated\': \'2010-02-16T14:22:52.384-08:00\', \'year\': \'1999\'}, {\'blog\': \'7966479155905584950\', \'categories\': [\'verb\', \'incantation\'], \'comments\': [], \'content\': \'Expect Nothing. From No One.<br />Except Love.<b...ect Everything From Love.<br />Anywhere. Anytime.\', \'id\': \'3092327214691150909\', \'tag\': \'blogger.com\', \'title\': \'Love\', \'updated\': \'2010-02-14T03:03:22.149-08:00\', \'year\': \'1999\'}, {\'blog\': \'7966479155905584950\', \'categories\': [\'r\\xc3\\xa9v\\xc3\\xa9lation\', \'verbe\', \'mot\'], \'comments\': [], \'content\': "Le terme exact ce serait plut\\xc3\\xb4t partager du pla...mour...<br /><br />...<br /><br />Faites l\'amour.", \'id\': \'3232671065974229953\', \'tag\': \'blogger.com\', \'title\': "Faire l\'amour...", \'updated\': \'2010-02-13T09:48:17.756-08:00\', \'year\': \'1999\'}, {\'blog\': \'7966479155905584950\', \'categories\': [], \'comments\': [], \'content\': \'Lorsque votre gorge est malade, ou tout simpleme...iv><div>Sentez la Puissance de votre Verbe.</div>\', \'id\': \'4080719920006300694\', \'tag\': \'blogger.com\', \'title\': \'La Gorge\', \'updated\': \'2010-02-11T12:22:58.212-08:00\', \'year\': \'1999\'}, {\'blog\': \'7966479155905584950\', \'categories\': [], \'comments\': [], \'content\': "La Perfection c\'est...", \'id\': \'2398438051553579064\', \'tag\': \'blogger.com\', \'title\': None, \'updated\': \'2010-02-11T12:09:04.456-08:00\', \'year\': \'1999\'}, {\'blog\': \'7966479155905584950\', \'categories\': [\'r\\xc3\\xa9v\\xc3\\xa9lation\', \'mot\'], \'comments\': [], \'content\': \'Aaaahh 2012 :-)... sujet de toutes les attentes,...iques. Merci pour votre <i>absolue beaut\\xc3\\xa9</i>...\', \'id\': \'6142404084595580778\', \'tag\': \'blogger.com\', \'title\': \'2012\', \'updated\': \'2010-02-10T05:51:27.646-08:00\', \'year\': \'1999\'}, {\'blog\': \'7966479155905584950\', \'categories\': [\'r\\xc3\\xa9v\\xc3\\xa9lation\', \'\\xc3\\xa9l\\xc3\\xa9vation\', \'r\\xc3\\xa9alit\\xc3\\xa9\', \'incantation\'], \'comments\': [], \'content\': \'Notre cerveau produit des (dizaines de) milliers...era le moment, plus tard, un autre jour...</span>\', \'id\': \'4760679713553497153\', \'tag\': \'blogger.com\', \'title\': \'Intention & Action\', \'updated\': \'2010-02-05T06:53:11.217-08:00\', \'year\': \'1999\'}, {\'blog\': \'7966479155905584950\', \'categories\': [], \'comments\': [], \'content\': "<blockquote>Je m\'engage \\xc3\\xa0 \\xc3\\x8atre le meilleur de ...toute autre \\xc3\\xa9motion qui nous <em>d\\xc3\\xa9centre</em>.", \'id\': \'5193588688498091407\', \'tag\': \'blogger.com\', \'title\': \'Engagement\', \'updated\': \'2010-02-01T03:27:24.551-08:00\', \'year\': \'1999\'}, {\'blog\': \'7966479155905584950\', \'categories\': [\'mot\', \'amour\', \'\\xc3\\xa9l\\xc3\\xa9vation\'], \'comments\': [], \'content\': \'M\\xc3\\xa9diter:<br /><blockquote>Se laisser conduire v..." style="font-size: x-small;"> dans google</span>\', \'id\': \'5318615708760758580\', \'tag\': \'blogger.com\', \'title\': \'La M\\xc3\\xa9ditation\', \'updated\': \'2010-02-02T16:34:26.470-08:00\', \'year\': \'1999\'}, {\'blog\': \'7966479155905584950\', \'categories\': [], \'comments\': [], \'content\': \'Il est temps de nous engager &agrave; notre <str...;sents</strong>. Soyons <strong>Entiers</strong>.\', \'id\': \'2986073785240345394\', \'tag\': \'blogger.com\', \'title\': \'Intention\', \'updated\': \'2010-01-16T08:45:15.036-08:00\', \'year\': \'1999\'}, {\'blog\': \'7966479155905584950\', \'categories\': [], \'comments\': [], \'content\': "Nous vivons en <i>Manich\\xc3\\xa9anisme</i>, en Dualit\\xc3... formes de Dualit\\xc3\\xa9 que vous avez \\xc3\\xa0 l\'esprit</i>", \'id\': \'7359706515654842888\', \'tag\': \'blogger.com\', \'title\': \'Dualit\\xc3\\xa9, Polarit\\xc3\\xa9, Manich\\xc3\\xa9anisme & La Suite\', \'updated\': \'2010-01-15T06:39:58.630-08:00\', \'year\': \'1999\'}, {\'blog\': \'7966479155905584950\', \'categories\': [], \'comments\': [], \'content\': \'Je suis (juste) un <b>Messager</b>, et je suis h...polarit\\xc3\\xa9, de dualit\\xc3\\xa9, de <b>Manich\\xc3\\xa9anisme</b>.\', \'id\': \'2133010561734903013\', \'tag\': \'blogger.com\', \'title\': \'...\', \'updated\': \'2010-01-15T04:11:53.522-08:00\', \'year\': \'1999\'}, {\'blog\': \'7966479155905584950\', \'categories\': [], \'comments\': [], \'content\': \'I am (just) a <b>Messenger</b>, and I am human, ...wn perfect polarity, my very own perfect duality.\', \'id\': \'338688646942442947\', \'tag\': \'blogger.com\', \'title\': \'...\', \'updated\': \'2010-01-15T04:01:41.019-08:00\', \'year\': \'1999\'}, {\'blog\': \'7966479155905584950\', \'categories\': [\'mot\', \'incantation\'], \'comments\': [], \'content\': \'Il est temps de nous engager \\xc3\\xa0 notre <b>Intenti...le travail que vous avez vous aussi \\xc3\\xa0 accomplir.\', \'id\': \'7939842994443355672\', \'tag\': \'blogger.com\', \'title\': \'Qui je suis\', \'updated\': \'2010-01-10T18:34:52.441-08:00\', \'year\': \'1999\'}, {\'blog\': \'7966479155905584950\', \'categories\': [], \'comments\': [], \'content\': \'Bon...\', \'id\': \'3201026903407192300\', \'tag\': \'blogger.com\', \'title\': \'Qui je suis\', \'updated\': \'2010-01-10T16:42:47.956-08:00\', \'year\': \'1999\'}, {\'blog\': \'7966479155905584950\', \'categories\': [\'r\\xc3\\xa9v\\xc3\\xa9lation\', \'verbe\', \'\\xc3\\xa9l\\xc3\\xa9vation\', \'r\\xc3\\xa9alit\\xc3\\xa9\'], \'comments\': [], \'content\': \'Toute cette Existence, cette R\\xc3\\xa9alit\\xc3\\xa9, cette po...\\xc3\\xa0, et uniquement \\xc3\\xa0 ces moments l\\xc3\\xa0, un Artiste.\', \'id\': \'6165806538185625539\', \'tag\': \'blogger.com\', \'title\': \'Art & Artistes\', \'updated\': \'2010-01-15T02:33:42.678-08:00\', \'year\': \'1999\'}, ...], \'tag\': \'blogger.com\', \'title\': \'molhokwai: existence et essence\', \'user\': \'805854382143\', \'year\': \'1999\'}, {\'categories\': [], \'id\': \'2881232117151438570\', \'name\': \'auxoeuvreurs\', \'posts\': [{\'blog\': \'2881232117151438570\', \'categories\': [], \'comments\': [], \'content\': "<i>Ce \'bouquin\' est fait pour \\xc3\\xaatre utile, pour ...uation Collective.&nbsp;</blockquote><br /></div>", \'id\': \'9011777537783311084\', \'tag\': \'blogger.com\', \'title\': None, \'updated\': \'2010-04-06T07:11:12.236-07:00\', \'year\': \'1999\'}], \'tag\': \'blogger.com\', \'title\': \'Aux Oeuvreurs\', \'user\': \'805854382143\', \'year\': \'1999\'}, {\'categories\': [\'word\', \'machine\', \'interface\', \'human\', \'development\', \'association\', \'free\', \'art\', \'collective\'], \'id\': \'4979118888770430827\', \'name\': \'ideasprojects-en\', \'posts\': [{\'blog\': \'4979118888770430827\', \'categories\': [], \'comments\': [], \'content\': \'Another idea, linking the <a href="http://ideasp...naturally give birth to a <i>liste compl\\xc3\\xa8te</i>.\', \'id\': \'1520647972633088874\', \'tag\': \'blogger.com\', \'title\': \'Search Based Operating System: Addendum\', \'updated\': \'2010-03-30T08:47:10.508-07:00\', \'year\': \'1999\'}, {\'blog\': \'4979118888770430827\', \'categories\': [\'word\', \'machine\', \'interface\', \'human\'], \'comments\': [], \'content\': \'<span style="font-weight:bold;">Principles</span...e user\\\'s</span></li><br /><li>...</li><br /></ul>\', \'id\': \'127621965222039991\', \'tag\': \'blogger.com\', \'title\': \'human machine interface\', \'updated\': \'2009-05-16T08:49:24.722-07:00\', \'year\': \'1999\'}, {\'blog\': \'4979118888770430827\', \'categories\': [\'machine\', \'development\', \'association\', \'interface\', \'human\'], \'comments\': [], \'content\': \'<span style="font-weight:bold;">principle</span>...s the relations...</li><br /></ul><br />Voil\\xc3\\xa0...\', \'id\': \'8811040142030984749\', \'tag\': \'blogger.com\', \'title\': \'3rd dimensional association map\', \'updated\': \'2009-05-16T07:54:44.399-07:00\', \'year\': \'1999\'}, {\'blog\': \'4979118888770430827\', \'categories\': [\'machine\', \'free\', \'development\'], \'comments\': [], \'content\': \'The true purpose of machine/software as a utilit...ligence of the machine we should be working on...\', \'id\': \'776559635816925244\', \'tag\': \'blogger.com\', \'title\': \'no maintenance software\', \'updated\': \'2009-04-26T02:04:41.408-07:00\', \'year\': \'1999\'}, {\'blog\': \'4979118888770430827\', \'categories\': [\'machine\', \'development\', \'interface\', \'human\'], \'comments\': [], \'content\': \'<span style="font-weight:bold;">parallels</span>...ss (free & open source software) isbos / sibos...\', \'id\': \'7206289283476661869\', \'tag\': \'blogger.com\', \'title\': \'Search Based Operating System (2): Internet Based Operating System\', \'updated\': \'2009-04-26T02:09:43.591-07:00\', \'year\': \'1999\'}, {\'blog\': \'4979118888770430827\', \'categories\': [\'machine\', \'development\', \'interface\', \'human\'], \'comments\': [], \'content\': \'<span style="font-weight:bold;">Idea </span><br ... see full size" alt="click to see image..."/></a>\', \'id\': \'4963005638433911031\', \'tag\': \'blogger.com\', \'title\': \'Search Based Operating System\', \'updated\': \'2009-03-14T07:36:45.523-07:00\', \'year\': \'1999\'}, {\'blog\': \'4979118888770430827\', \'categories\': [\'art\', \'collective\', \'free\', \'development\', \'association\'], \'comments\': [], \'content\': \'<span style="font-weight:bold;">Idea</span><br /...g is that it has ever been done so consciously...\', \'id\': \'4277337953102576126\', \'tag\': \'blogger.com\', \'title\': \'Free choreography production\', \'updated\': \'2009-02-03T12:34:51.537-08:00\', \'year\': \'1999\'}, {\'blog\': \'4979118888770430827\', \'categories\': [\'art\', \'collective\', \'free\', \'development\', \'association\'], \'comments\': [], \'content\': \'<span style="font-weight:bold;">Idea</span><br /...l free to spread the word and / or contact me ...\', \'id\': \'8774950748386478502\', \'tag\': \'blogger.com\', \'title\': \'Free movie production\', \'updated\': \'2009-05-27T01:30:05.268-07:00\', \'year\': \'1999\'}], \'tag\': \'blogger.com\', \'title\': \'ideas & projects\', \'user\': \'805854382143\', \'year\': \'1999\'}, {\'categories\': [\'meditation\', \'incantation\'], \'id\': \'2667339560134489348\', \'name\': \'molhokwai-spiritualwork\', \'posts\': [{\'blog\': \'2667339560134489348\', \'categories\': [], \'comments\': [], \'content\': "I felt the kundalini serpent uncoiling from its ... only imagine the \'Tremens\' for the unprepared...", \'id\': \'520086820583021315\', \'tag\': \'blogger.com\', \'title\': \'The Kundalini Serpent\', \'updated\': \'2010-03-19T23:31:52.952-07:00\', \'year\': \'1999\'}, {\'blog\': \'2667339560134489348\', \'categories\': [], \'comments\': [], \'content\': None, \'id\': \'4757634367868106267\', \'tag\': \'blogger.com\', \'title\': \'the kundalini serpent\', \'updated\': \'2010-03-19T21:00:46.627-07:00\', \'year\': \'1999\'}, {\'blog\': \'2667339560134489348\', \'categories\': [], \'comments\': [], \'content\': \'A <i>Friend</i> repeated it to me over and over ...ho know and let it.</blockquote><div><br /></div>\', \'id\': \'856467195326253961\', \'tag\': \'blogger.com\', \'title\': None, \'updated\': \'2010-02-12T01:06:04.397-08:00\', \'year\': \'1999\'}, {\'blog\': \'2667339560134489348\', \'categories\': [], \'comments\': [], \'content\': \'I am invested with the Power of God...<br />I am...ower...<br />I am invested with the Power of God.\', \'id\': \'2296865965774687559\', \'tag\': \'blogger.com\', \'title\': None, \'updated\': \'2010-02-11T11:02:23.944-08:00\', \'year\': \'1999\'}, {\'blog\': \'2667339560134489348\', \'categories\': [], \'comments\': [], \'content\': \'These are the themes of the Moment.<br /><br /><...to be. <b>Silence</b> and <b>Total Listening</b>.\', \'id\': \'4531683412343235844\', \'tag\': \'blogger.com\', \'title\': \'Power & Silence\', \'updated\': \'2010-01-19T04:39:59.494-08:00\', \'year\': \'1999\'}, {\'blog\': \'2667339560134489348\', \'categories\': [], \'comments\': [], \'content\': "It\'s like my Ego had been supporting me for... w...g, any path I chose to take...<br /><br />Voil\\xc3\\xa0.", \'id\': \'6515277208959708925\', \'tag\': \'blogger.com\', \'title\': \'Embracing my Ego\', \'updated\': \'2010-01-18T06:42:19.572-08:00\', \'year\': \'1999\'}, {\'blog\': \'2667339560134489348\', \'categories\': [], \'comments\': [], \'content\': \'<span style="font-size:1em;font-style:italic;">I...naly</b>, and <b>Be Together</b>... <br /></span>\', \'id\': \'169881469879331779\', \'tag\': \'blogger.com\', \'title\': \'Oneness appendix: destinations\', \'updated\': \'2010-01-15T03:35:58.840-08:00\', \'year\': \'1999\'}, {\'blog\': \'2667339560134489348\', \'categories\': [], \'comments\': [], \'content\': \'<span style="font-size:1em;font-style:italic;">S...ing at different levels of the Experience.</span>\', \'id\': \'1651686709615127645\', \'tag\': \'blogger.com\', \'title\': \'Oneness appendix: fighting\', \'updated\': \'2010-01-15T03:36:27.612-08:00\', \'year\': \'1999\'}, {\'blog\': \'2667339560134489348\', \'categories\': [], \'comments\': [], \'content\': \'I am (just) a <b>Messenger</b>, and I am human, ... meet, unconditionnaly, and <b>Be Together</b>...\', \'id\': \'2196240913590810337\', \'tag\': \'blogger.com\', \'title\': \'Oneness\', \'updated\': \'2010-01-15T04:00:45.806-08:00\', \'year\': \'1999\'}, {\'blog\': \'2667339560134489348\', \'categories\': [\'meditation\'], \'comments\': [], \'content\': "Today\'s topic: teaching.<br /><br />Write down y...li></ul><br />Your teachings are provided freely.", \'id\': \'3604909192808397832\', \'tag\': \'blogger.com\', \'title\': \'...\', \'updated\': \'2010-01-04T12:25:13.307-08:00\', \'year\': \'1999\'}, {\'blog\': \'2667339560134489348\', \'categories\': [\'meditation\'], \'comments\': [], \'content\': \'Deeper than ever...<br /><br />Got out and staye...ment the pieces of information received</li></ul>\', \'id\': \'1693550073784608666\', \'tag\': \'blogger.com\', \'title\': \'...\', \'updated\': \'2010-01-04T12:26:00.227-08:00\', \'year\': \'1999\'}, {\'blog\': \'2667339560134489348\', \'categories\': [], \'comments\': [], \'content\': \'"Feelings are the language of the Soul"<br /><br...ne of them, or just let them be...<br /><br />...\', \'id\': \'6411808994269437604\', \'tag\': \'blogger.com\', \'title\': \'do what you feel...\', \'updated\': \'2009-12-04T12:05:36.322-08:00\', \'year\': \'1999\'}, {\'blog\': \'2667339560134489348\', \'categories\': [], \'comments\': [], \'content\': \'Hello,<br /><br />First, my knowledge is limited...hope I will be able to share this with you, soon.\', \'id\': \'7941296691130862055\', \'tag\': \'blogger.com\', \'title\': \'path\', \'updated\': \'2009-11-30T23:33:24.896-08:00\', \'year\': \'1999\'}, {\'blog\': \'2667339560134489348\', \'categories\': [], \'comments\': [], \'content\': \'Let me question everything I know, to see...<br ...t I am expanding, by freeing my Ego mind...<br />\', \'id\': \'8187357307744789925\', \'tag\': \'blogger.com\', \'title\': \'...\', \'updated\': \'2009-08-15T11:51:53.072-07:00\', \'year\': \'1999\'}, {\'blog\': \'2667339560134489348\', \'categories\': [], \'comments\': [], \'content\': \'Nous traversons tous une grande p\\xc3\\xa9riode de chan...ne">wikip\\xc3\\xa9dia</a>, et beaucoup d\\\'autres )</span>\', \'id\': \'3540768982886600436\', \'tag\': \'blogger.com\', \'title\': "Aux travailleurs de l\'Esprit/To the workers of Spirit", \'updated\': \'2009-09-01T15:37:55.462-07:00\', \'year\': \'1999\'}, {\'blog\': \'2667339560134489348\', \'categories\': [\'incantation\'], \'comments\': [], \'content\': \'(<span style="font-style:italic;">ma</span>(?) v...r />Que Lumi\\xc3\\xa8re et Amour se restaurent sur Terre\', \'id\': \'4135721794084936148\', \'tag\': \'blogger.com\', \'title\': \'la Grande Invocation\', \'updated\': \'2009-07-26T02:34:48.448-07:00\', \'year\': \'1999\'}, {\'blog\': \'2667339560134489348\', \'categories\': [], \'comments\': [], \'content\': \'Started grouding my Self, and immediately felt "...o fast and was so intense, that I just stopped...\', \'id\': \'5434620681877477962\', \'tag\': \'blogger.com\', \'title\': \'...\', \'updated\': \'2009-02-25T15:24:15.256-08:00\', \'year\': \'1999\'}, {\'blog\': \'2667339560134489348\', \'categories\': [], \'comments\': [], \'content\': \'Started meditating, grounding myself...<br />Aft...ng cord, and felt it huge... Felt my Self huge...\', \'id\': \'8420532572329899802\', \'tag\': \'blogger.com\', \'title\': \'...\', \'updated\': \'2009-02-23T04:35:53.640-08:00\', \'year\': \'1999\'}], \'tag\': \'blogger.com\', \'title\': \'spiritual work\', \'user\': \'805854382143\', \'year\': \'1999\'}, {\'categories\': [\'philosophy\'], \'id\': \'5936136819991781356\', \'name\': \'car-pooling-be\', \'posts\': [{\'blog\': \'5936136819991781356\', \'categories\': [\'philosophy\'], \'comments\': [], \'content\': \'In an ideal world, we are living in green cities....<br /><br />Happy car-pooling, and Safe Route...\', \'id\': \'2596155641849338248\', \'tag\': \'blogger.com\', \'title\': \'philosophy\', \'updated\': \'2009-11-06T00:26:35.043-08:00\', \'year\': \'1999\'}], \'tag\': \'blogger.com\', \'title\': \'car-pool.net\', \'user\': \'805854382143\', \'year\': \'1999\'}, {\'categories\': [\'self\', \'soul\', \'change\', \'motion\', \'incantation\', \'word\', \'verb\', \'energy\', \'belief\'], \'id\': \'2853914466295661746\', \'name\': \'molhokwai-shadowwork\', \'posts\': [{\'blog\': \'2853914466295661746\', \'categories\': [], \'comments\': [], \'content\': \'It is just a reflection of your self...<br />So ... destruction... this is why I do not speak yet...\', \'id\': \'52334306755633764\', \'tag\': \'blogger.com\', \'title\': \'...\', \'updated\': \'2009-10-22T01:33:55.316-07:00\', \'year\': \'1999\'}, {\'blog\': \'2853914466295661746\', \'categories\': [], \'comments\': [], \'content\': \'Avec v., nus tous les deux, et moi qui veut la p...omme ne subsister que pour une courte p\\xc3\\xa9riode...\', \'id\': \'7551182809996539431\', \'tag\': \'blogger.com\', \'title\': \'...\', \'updated\': \'2009-09-15T02:56:42.793-07:00\', \'year\': \'1999\'}, {\'blog\': \'2853914466295661746\', \'categories\': [], \'comments\': [], \'content\': \'"Elle est moche, hein?"<br />"Ouais... je me dem...sprits perdus...<br />Des ombres... des ombres...\', \'id\': \'5361022232512442048\', \'tag\': \'blogger.com\', \'title\': \'...\', \'updated\': \'2009-09-14T06:39:16.538-07:00\', \'year\': \'1999\'}, {\'blog\': \'2853914466295661746\', \'categories\': [], \'comments\': [], \'content\': "D\'abord, tu vas commencer par ne t\'exprimer, pen...gagements que tu t\'es cr\\xc3\\xa9\\xc3\\xa9...<br /><br />Voil\\xc3\\xa0", \'id\': \'8043325786908613528\', \'tag\': \'blogger.com\', \'title\': \'...\', \'updated\': \'2009-08-29T03:15:54.950-07:00\', \'year\': \'1999\'}, {\'blog\': \'2853914466295661746\', \'categories\': [], \'comments\': [], \'content\': \'o. avec un "cerveau liquide", qui bout, litt\\xc3\\xa9ra...cytent d\\\'autres petites cr\\xc3\\xa9atures noir-sombre...\', \'id\': \'5905600019114645233\', \'tag\': \'blogger.com\', \'title\': \'...\', \'updated\': \'2009-08-23T16:24:04.268-07:00\', \'year\': \'1999\'}, {\'blog\': \'2853914466295661746\', \'categories\': [], \'comments\': [], \'content\': \'h. with dead eyes... following a. all over the p... to take a. with me, going out, and going back...\', \'id\': \'4183670454514448561\', \'tag\': \'blogger.com\', \'title\': \'...\', \'updated\': \'2009-08-01T06:36:43.133-07:00\', \'year\': \'1999\'}, {\'blog\': \'2853914466295661746\', \'categories\': [\'self\', \'soul\'], \'comments\': [], \'content\': "Je devrais avoir peur en ce moment pour mon aven...ort\\xc3\\xa9 toute la lumi\\xc3\\xa8re que j\'ai \\xc3\\xa0 y apporter...", \'id\': \'9069080669099841747\', \'tag\': \'blogger.com\', \'title\': \'...\', \'updated\': \'2009-06-23T03:18:47.678-07:00\', \'year\': \'1999\'}, {\'blog\': \'2853914466295661746\', \'categories\': [\'self\', \'change\', \'motion\'], \'comments\': [], \'content\': \'Tout est exactement comme il doit \\xc3\\xaatre... Tout ... pour avancer, tous ensemble...<br /><br />Voil\\xc3\\xa0\', \'id\': \'3355598975062147434\', \'tag\': \'blogger.com\', \'title\': \'il est temps...\', \'updated\': \'2009-05-31T03:55:03.865-07:00\', \'year\': \'1999\'}, {\'blog\': \'2853914466295661746\', \'categories\': [], \'comments\': [], \'content\': \'F. telling me the story of a Family of Eagles, w... when he realized that... they..."<br /><br />...\', \'id\': \'6426473936074510927\', \'tag\': \'blogger.com\', \'title\': \'...\', \'updated\': \'2009-05-11T12:21:43.469-07:00\', \'year\': \'1999\'}, {\'blog\': \'2853914466295661746\', \'categories\': [\'self\', \'soul\', \'incantation\'], \'comments\': [], \'content\': \'Oooh Child...<br />Show Your weaknesses, show Yo...of your Soul, say: I love You unconditionnally...\', \'id\': \'426964936751920116\', \'tag\': \'blogger.com\', \'title\': \'...\', \'updated\': \'2009-05-11T12:04:55.334-07:00\', \'year\': \'1999\'}, {\'blog\': \'2853914466295661746\', \'categories\': [\'self\', \'soul\', \'incantation\'], \'comments\': [], \'content\': \'You, who are looking...<br />Know that You belon...ionnaly...<br />Make it a Blessing, or a Curse...\', \'id\': \'7434542094486075483\', \'tag\': \'blogger.com\', \'title\': \'...\', \'updated\': \'2009-05-09T10:14:17.585-07:00\', \'year\': \'1999\'}, {\'blog\': \'2853914466295661746\', \'categories\': [\'word\', \'verb\', \'soul\'], \'comments\': [], \'content\': \'In tune with the Outer Universe<br />I can feel ...er Calling<br />To follow the Path of the Soul...\', \'id\': \'8275340837038324670\', \'tag\': \'blogger.com\', \'title\': \'free fall/rising\', \'updated\': \'2009-05-06T01:00:30.901-07:00\', \'year\': \'1999\'}, {\'blog\': \'2853914466295661746\', \'categories\': [\'incantation\'], \'comments\': [], \'content\': \'Je pourrais vous parler de mes peurs, mais cela ...n...<br /><br />Si n\\xc3\\xa9cessaire, donnez-les moi...\', \'id\': \'1830154053106689589\', \'tag\': \'blogger.com\', \'title\': \'...\', \'updated\': \'2009-04-28T14:47:56.939-07:00\', \'year\': \'1999\'}, {\'blog\': \'2853914466295661746\', \'categories\': [\'self\', \'energy\'], \'comments\': [], \'content\': "1st level: the physical, conscious one, with all...r /><br />I\'ll bring them forth... All of them...", \'id\': \'4862184192950132600\', \'tag\': \'blogger.com\', \'title\': \'...\', \'updated\': \'2009-04-13T08:48:41.829-07:00\', \'year\': \'1999\'}, {\'blog\': \'2853914466295661746\', \'categories\': [\'incantation\', \'energy\'], \'comments\': [], \'content\': \'I can only show you what you want to see...<br /...to you with Love, as you will one day, realize...\', \'id\': \'928346035803924905\', \'tag\': \'blogger.com\', \'title\': \'...\', \'updated\': \'2009-03-30T13:38:21.296-07:00\', \'year\': \'1999\'}, {\'blog\': \'2853914466295661746\', \'categories\': [], \'comments\': [], \'content\': \'A pale, cadaveric head, in a cold dark place...<...the cold dark place was warm, peaceful, loving...\', \'id\': \'8486459033521873014\', \'tag\': \'blogger.com\', \'title\': \'...\', \'updated\': \'2009-03-30T03:35:21.585-07:00\', \'year\': \'1999\'}, {\'blog\': \'2853914466295661746\', \'categories\': [], \'comments\': [], \'content\': "There actually is a more \'popular\' word for this... been at any point...<br /><br />Love<br /><br />", \'id\': \'5770822375766345911\', \'tag\': \'blogger.com\', \'title\': \'...\', \'updated\': \'2009-03-28T15:51:08.947-07:00\', \'year\': \'1999\'}, {\'blog\': \'2853914466295661746\', \'categories\': [\'self\', \'belief\', \'energy\'], \'comments\': [], \'content\': "I can see You doing your apache dance all around...re\'s anything else you can (should?) do anyway...", \'id\': \'897029240368237504\', \'tag\': \'blogger.com\', \'title\': \'...\', \'updated\': \'2009-03-26T15:50:32.511-07:00\', \'year\': \'1999\'}, {\'blog\': \'2853914466295661746\', \'categories\': [\'self\', \'change\', \'energy\', \'motion\'], \'comments\': [], \'content\': "I came across the Reconnections website somewher...l my Love to those I will \'never meet\' anymore...", \'id\': \'2199803366082324759\', \'tag\': \'blogger.com\', \'title\': \'ciao...\', \'updated\': \'2009-05-09T10:39:51.021-07:00\', \'year\': \'1999\'}, {\'blog\': \'2853914466295661746\', \'categories\': [\'self\', \'incantation\'], \'comments\': [], \'content\': \'sick and tired of those lock themselves in the s...s of my self? I will simply own them, by Truth...\', \'id\': \'7898233700927183452\', \'tag\': \'blogger.com\', \'title\': \'...\', \'updated\': \'2009-03-26T05:18:31.342-07:00\', \'year\': \'1999\'}, ...], \'tag\': \'blogger.com\', \'title\': \'shadow work...\', \'user\': \'805854382143\', \'year\': \'1999\'}, {\'categories\': [\'machine\', \'development\', \'interface\', \'human\', \'art\', \'collective\', \'association\', \'complet\', \'language\', \'note\'], \'id\': \'7497965365848149570\', \'name\': \'ideasprojects\', \'posts\': [{\'blog\': \'7497965365848149570\', \'categories\': [\'machine\', \'development\', \'interface\', \'human\'], \'comments\': [], \'content\': \'<div dir="ltr" style="text-align: left;" trbidi=...mplte.html">/2009/01/liste-complte.html</a></div>\', \'id\': \'3783357872275828436\', \'tag\': \'blogger.com\', \'title\': "syst\\xc3\\xa8me d\'exploitation par recherche...", \'updated\': \'2011-01-21T06:14:26.189-08:00\', \'year\': \'1999\'}, {\'blog\': \'7497965365848149570\', \'categories\': [\'art\', \'collective\', \'development\', \'association\'], \'comments\': [], \'content\': \'<span style="font-weight:bold;">Id\\xc3\\xa9e</span><br ...est que cela ait \\xc3\\xa9t\\xc3\\xa9 fait consciemment...</div>\', \'id\': \'6733713332616431813\', \'tag\': \'blogger.com\', \'title\': \'production (chor\\xc3\\xa9ographique) libre\', \'updated\': \'2009-01-29T08:45:51.156-08:00\', \'year\': \'1999\'}, {\'blog\': \'7497965365848149570\', \'categories\': [\'art\', \'collective\', \'development\', \'association\'], \'comments\': [], \'content\': \'<span class="Apple-style-span" style="font-weigh...s \\xc3\\xa0 passer le mot et/ou \\xc3\\xa0 me contacter...</div>\', \'id\': \'43993985545505784\', \'tag\': \'blogger.com\', \'title\': \'production (cin\\xc3\\xa9matographique) libre\', \'updated\': \'2009-01-25T04:49:21.682-08:00\', \'year\': \'1999\'}, {\'blog\': \'7497965365848149570\', \'categories\': [\'association\', \'complet\', \'language\'], \'comments\': [], \'content\': \'<span class="Apple-style-span" style="font-weigh...us pour firefox fonctionne pour un exemple)</div>\', \'id\': \'3198901047105298474\', \'tag\': \'blogger.com\', \'title\': \'liste compl\\xc3\\xa8te\', \'updated\': \'2010-09-06T01:28:07.743-07:00\', \'year\': \'1999\'}, {\'blog\': \'7497965365848149570\', \'categories\': [\'development\', \'association\'], \'comments\': [], \'content\': \'<span class="Apple-style-span" style="font-weigh...ode.google.com/hosting/">google project</a></div>\', \'id\': \'1921427003054155476\', \'tag\': \'blogger.com\', \'title\': \'project collaboration\', \'updated\': \'2009-01-26T12:07:08.053-08:00\', \'year\': \'1999\'}, {\'blog\': \'7497965365848149570\', \'categories\': [\'note\'], \'comments\': [], \'content\': \'Le principe est de mettre toutes les id\\xc3\\xa9es poss...<div><br /></div><div>Voil\\xc3\\xa0... A suivre...</div>\', \'id\': \'6647285942842703899\', \'tag\': \'blogger.com\', \'title\': \'bon...\', \'updated\': \'2009-01-26T09:48:26.650-08:00\', \'year\': \'1999\'}], \'tag\': \'blogger.com\', \'title\': \'id\\xc3\\xa9es & projets\', \'user\': \'805854382143\', \'year\': \'1999\'}, {\'categories\': [\'aiko son\'], \'id\': \'3201538109092870002\', \'name\': \'molhokwai-aiko\', \'posts\': [{\'blog\': \'3201538109092870002\', \'categories\': [\'aiko son\'], \'comments\': [], \'content\': \'Des photos et encore des photos de toi...<br /><...</div></a><div style="color:#808080"></div></div>\', \'id\': \'1358323303379117037\', \'tag\': \'blogger.com\', \'title\': None, \'updated\': \'2007-02-28T10:41:59.907-08:00\', \'year\': \'1999\'}, {\'blog\': \'3201538109092870002\', \'categories\': [\'aiko son\'], \'comments\': [], \'content\': \'Ton blog petit bonhomme...<br /><div style="text...</div></a><div style="color:#808080"></div></div>\', \'id\': \'3625357219623862920\', \'tag\': \'blogger.com\', \'title\': None, \'updated\': \'2007-02-28T10:44:19.652-08:00\', \'year\': \'1999\'}], \'tag\': \'blogger.com\', \'title\': \'aiko\', \'user\': \'805854382143\', \'year\': \'1999\'}], time_expire=3600)'
p207
sg113
S'__call__'
p208
sasS'pyver'
p209
S'Python 2.5.1: /usr/local/bin/python2.5'
p210
sS'session'
p211
(dp212
S'user_authorization_done'
p213
S'True'
p214
sS'_formkey[app_config_1]'
p215
S"'5264f03a-959a-46c9-93ae-05264fbf4f46'"
p216
sS'flash'
p217
S'None'
p218
sS'auth'
p219
S"<Storage {'expiration': 3600, 'user': <Storage {...1, 2, 28, 12, 8, 41, 140556), 'remember': False}>"
p220
sS'authorized'
p221
g214
sS'_language'
p222
S"'en'"
p223
ssS'etype'
p224
S"<type 'exceptions.TypeError'>"
p225
sS'date'
p226
S'Mon Feb 28 12:09:08 2011'
p227
sS'response'
p228
(dp229
S'_vars'
p230
S'None'
p231
sg68
S"<SimpleCookie: session_id_cms='127.0.0.1-a0269e6a-c816-4c2a-bfa7-b84e9f72fe25'>"
p232
sS'links'
p233
S"[['web2py', 'http://www.web2py.com', 1], ['Python', 'http://www.python.org', 2], ['DePaul CTI', 'http://www.cs.depaul.edu', 3], ['DePaul University', 'http://www.depaul.edu', 5], ['downloads', '/a/default/page/32', 15], ['media / picasa / gallery', '/a/media/picasa/gallery', 16], ['manage media / manage picasa albums / manage photos', '/a/media/picasa/albums', 17], ['setup, application initialization', '/a/setup', 18], ['twitter', '/a/media/social/twitter', 19]]"
p234
sS'posts'
p235
S'<gluon.dal.Rows object at 0x8d452ac>'
p236
sS'themes'
p237
S"['0', '1', 'cms', 'pypress', 'test#:#0#:#http://localhost/css/base.css#:#molhokwai@gmail.com', 'test1#:#0#:#http://localhost/css/base1.css#:#herve.mayou@gmail.com']"
p238
sS'theme_stylesheet'
p239
S'None'
p240
sS'meta'
p241
S'<Storage {}>'
p242
sS'_view_environment'
p243
S"{'A': <class 'gluon.html.A'>, 'AppDetails': <class __builtin__.AppDetails at 0x8b18fbc>, 'Auth': <class 'gluon.tools.Auth'>, 'B': <class 'gluon.html.B'>, 'BEAUTIFY': <class 'gluon.html.BEAUTIFY'>, 'BODY': <class 'gluon.html.BODY'>, 'BR': <class 'gluon.html.BR'>, 'CENTER': <class 'gluon.html.CENTER'>, 'CLEANUP': <class 'gluon.validators.CLEANUP'>, 'CODE': <class 'gluon.html.CODE'>, ...}"
p244
sS'keywords'
p245
S"'blog, weblog, journal, web, log, web2py, pypress...straight-forward, direct, programming, programmer'"
p246
sS'files'
p247
S'[]'
p248
sS'last_posts'
p249
S"[['nn : bayesian classifer', datetime.datetime(2011, 2, 18, 12, 7, 56), <gluon.html.XML object at 0x8c6b32c>], ['cms_home', datetime.datetime(2011, 2, 6, 13, 1, 36), <gluon.html.XML object at 0x8c6b18c>], ['cms_help', datetime.datetime(2011, 2, 6, 13, 1, 36), <gluon.html.XML object at 0x8c6b14c>], ['test', datetime.datetime(2011, 1, 14, 14, 59, 41), <gluon.html.XML object at 0x8c6b2ac>], ['acknowledgements', datetime.datetime(2011, 1, 2, 10, 41, 29), <gluon.html.XML object at 0x8c6b16c>]]"
p250
sS'title'
p251
S'"molhokwai.net - \'a\' cm/dms"'
p252
sS'home_page'
p253
S"<Row {'post_text_TCode': None, 'post_attributes_...elete_record': <function <lambda> at 0x8c5cd14>}>"
p254
sS'menu'
p255
S"[['home', False, '/cms/default/page/16'], ['community', False, '/cms/default/page/18']]"
p256
sS'flash'
p257
S"''"
p258
sS'theme'
p259
S"'cms'"
p260
sS'session_id_name'
p261
S"'session_id_cms'"
p262
sS'_custom_commit'
p263
S'None'
p264
sS'session_filename'
p265
S"'/home/herve/development/workspaces/molhokwai.net...ns/127.0.0.1-a0269e6a-c816-4c2a-bfa7-b84e9f72fe25'"
p266
sg51
S'<cStringIO.StringO object at 0x8b57a00>'
p267
sS'description'
p268
S'"molhokwai.net - \'a\' cm/dms, lightweight, simple, straight & direct"'
p269
sS'session_file'
p270
S"<open file '/home/herve/development/workspaces/m...4c2a-bfa7-b84e9f72fe25', mode 'rb+' at 0x8b53e30>"
p271
sS'_caller'
p272
S'<function <lambda> at 0x8b15dbc>'
p273
sS'_custom_rollback'
p274
S'None'
p275
sS'pages'
p276
S"[['beliefs', False, '/cms/default/page/15'], ['home', False, '/cms/default/page/16'], ['community', False, '/cms/default/page/18'], ['SMS', False, '/cms/default/page/21'], ['', False, '/cms/default/page/23'], ['help', False, '/cms/default/page/27'], ['themes', False, '/cms/default/page/35'], ['acknowledgements', False, '/cms/default/page/37'], ['cms_home', False, '/cms/default/page/39'], ['cms_help', False, '/cms/default/page/40'], ['nn : bayesian classifer', False, '/cms/default/page/41']]"
p277
sS'categories'
p278
S"[['misc', 2, '/cms/default/category/misc']]"
p279
sS'name'
p280
S'"\'a\' cm/dms"'
p281
sS'auth_users'
p282
S'<gluon.dal.Rows object at 0x8c54a8c>'
p283
sS'help_page'
p284
S"<Row {'post_text_TCode': None, 'post_attributes_...elete_record': <function <lambda> at 0x8c5cd84>}>"
p285
sS'session_id'
p286
S"'127.0.0.1-a0269e6a-c816-4c2a-bfa7-b84e9f72fe25'"
p287
sS'headers'
p288
S"<Storage {'Expires': 'Mon, 28 Feb 2011 11:08:41 ...he, must-revalidate, post-check=0, pre-check=0'}>"
p289
sS'status'
p290
S'200'
p291
sS'postprocessing'
p292
S'[]'
p293
sS'base_theme'
p294
S'None'
p295
sS'view'
p296
S"'media/blogger.html'"
p297
ssS'locals'
p298
(dp299
S'f'
S'[{\'categories\': [], \'id\': \'2847443485812916000\', \'name\': \'jemengage\', \'posts\': [{\'blog\': \'2847443485812916000\', \'categories\': [], \'comments\': [], \'content\': \'<div dir="ltr" style="text-align: left;" trbidi=...ne peux que vous dire ceci: Ayez confiance.</div>\', \'id\': \'3259060544791224312\', \'tag\': \'blogger.com\', \'title\': \'Ayez confiance\', \'updated\': \'2011-01-24T07:08:18.738-08:00\', \'year\': \'1999\'}, {\'blog\': \'2847443485812916000\', \'categories\': [], \'comments\': [], \'content\': \'<div dir="ltr" style="text-align: left;" trbidi=...ez-vous la vie.<br /><br />Tout simplement.</div>\', \'id\': \'148174437390761322\', \'tag\': \'blogger.com\', \'title\': \'Placez-vous au dessus de tout \\xc3\\xa7a\', \'updated\': \'2011-01-23T00:19:03.178-08:00\', \'year\': \'1999\'}, {\'blog\': \'2847443485812916000\', \'categories\': [], \'comments\': [], \'content\': \'<div dir="ltr" style="text-align: left;" trbidi=... a aid\\xc3\\xa9, j\\\'aimerai savoir.</i></div></div></div>\', \'id\': \'3719634868756917780\', \'tag\': \'blogger.com\', \'title\': \'Skype: Concurrence & \\xc3\\x89thique\', \'updated\': \'2011-01-22T12:41:34.978-08:00\', \'year\': \'1999\'}, {\'blog\': \'2847443485812916000\', \'categories\': [], \'comments\': [], \'content\': \'<div dir="ltr" style="text-align: left;" trbidi=....<br />\\xc3\\x81 bient\\xc3\\xb4t, pour le premier message</div>\', \'id\': \'5421884131628997264\', \'tag\': \'blogger.com\', \'title\': "Je m\'engage", \'updated\': \'2011-01-21T06:54:01.523-08:00\', \'year\': \'1999\'}], \'tag\': \'blogger.com\', \'title\': "je m\'engage", \'user\': \'805854382143\', \'year\': \'1999\'}, {\'categories\': [], \'id\': \'8515968611599727017\', \'name\': \'my-pledge\', \'posts\': [{\'blog\': \'8515968611599727017\', \'categories\': [], \'comments\': [], \'content\': \'<div dir="ltr" style="text-align: left;" trbidi=...e good thing is that it is becoming easier.</div>\', \'id\': \'8888437007425196562\', \'tag\': \'blogger.com\', \'title\': \'Stand above\', \'updated\': \'2011-01-23T00:02:51.680-08:00\', \'year\': \'1999\'}, {\'blog\': \'8515968611599727017\', \'categories\': [], \'comments\': [], \'content\': \'<div dir="ltr" style="text-align: left;" trbidi=...></ul><div>Just: do your thing.</div></div></div>\', \'id\': \'7900403146400480065\', \'tag\': \'blogger.com\', \'title\': \'Skype Ethics: Competition\', \'updated\': \'2011-01-22T12:41:00.994-08:00\', \'year\': \'1999\'}, {\'blog\': \'8515968611599727017\', \'categories\': [], \'comments\': [], \'content\': \'<div dir="ltr" style="text-align: left;" trbidi=...I would like to know.</i></div></div></div></div>\', \'id\': \'8161338232528169393\', \'tag\': \'blogger.com\', \'title\': \'Skype Ethics\', \'updated\': \'2011-01-22T23:48:28.466-08:00\', \'year\': \'1999\'}, {\'blog\': \'8515968611599727017\', \'categories\': [], \'comments\': [], \'content\': \'<div dir="ltr" style="text-align: left;" trbidi="on"><br />...<br /><br /></div>\', \'id\': \'8178444972421752159\', \'tag\': \'blogger.com\', \'title\': \'My pledge\', \'updated\': \'2011-01-22T09:09:21.624-08:00\', \'year\': \'1999\'}], \'tag\': \'blogger.com\', \'title\': \'my pledge\', \'user\': \'805854382143\', \'year\': \'1999\'}, {\'categories\': [\'changement\', \'shift\', \'r\\xc3\\xa9v\\xc3\\xa9lation\', \'r\\xc3\\xa9alit\\xc3\\xa9\', \'verb\', \'incantation\', \'verbe\', \'mot\', \'\\xc3\\xa9l\\xc3\\xa9vation\', \'amour\', \'word\', \'reality\'], \'id\': \'7966479155905584950\', \'name\': \'molhokwai\', \'posts\': [{\'blog\': \'7966479155905584950\', \'categories\': [], \'comments\': [], \'content\': \'<p style="background-color:#ffffff"><br><br></p>...style="background-color:transparent"><br></p><br>\', \'id\': \'2542996125096405668\', \'tag\': \'blogger.com\', \'title\': \'G\\xc3\\xa9n\\xc3\\xa8se\', \'updated\': \'2010-07-17T03:44:49.264-07:00\', \'year\': \'1999\'}, {\'blog\': \'7966479155905584950\', \'categories\': [], \'comments\': [], \'content\': "Permettez-moi l\'expression...<br /><br />J\'en ai...dernier message de ce blog.<br /><br />Au revoir.", \'id\': \'4927944410186949600\', \'tag\': \'blogger.com\', \'title\': \'foutaises & v\\xc3\\xa9rit\\xc3\\xa9s...\', \'updated\': \'2010-03-20T08:07:00.532-07:00\', \'year\': \'1999\'}, {\'blog\': \'7966479155905584950\', \'categories\': [\'changement\', \'shift\'], \'comments\': [], \'content\': \'...visible ici:&nbsp;<a title="cliquer sur le li...lpod.com/travel-blog/molhokwai/1/tpod.html</a>...\', \'id\': \'8255558481386188529\', \'tag\': \'blogger.com\', \'title\': \'blog de voyage...\', \'updated\': \'2010-03-07T03:49:35.501-08:00\', \'year\': \'1999\'}, {\'blog\': \'7966479155905584950\', \'categories\': [\'r\\xc3\\xa9v\\xc3\\xa9lation\', \'r\\xc3\\xa9alit\\xc3\\xa9\'], \'comments\': [], \'content\': \'<blockquote>Acheter: [...] prendre pour chef*</b...nting-change/commerce/?lang=fr</a></i></span></i>\', \'id\': \'4506025511934326471\', \'tag\': \'blogger.com\', \'title\': \'Acheter, Payer...\', \'updated\': \'2010-03-05T02:55:18.770-08:00\', \'year\': \'1999\'}, {\'blog\': \'7966479155905584950\', \'categories\': [], \'comments\': [], \'content\': \'<span class="Apple-style-span" style="font-famil...an" style="font-size: 11px;"><br /></span></span>\', \'id\': \'3774782513906440650\', \'tag\': \'blogger.com\', \'title\': None, \'updated\': \'2010-02-16T14:22:52.384-08:00\', \'year\': \'1999\'}, {\'blog\': \'7966479155905584950\', \'categories\': [\'verb\', \'incantation\'], \'comments\': [], \'content\': \'Expect Nothing. From No One.<br />Except Love.<b...ect Everything From Love.<br />Anywhere. Anytime.\', \'id\': \'3092327214691150909\', \'tag\': \'blogger.com\', \'title\': \'Love\', \'updated\': \'2010-02-14T03:03:22.149-08:00\', \'year\': \'1999\'}, {\'blog\': \'7966479155905584950\', \'categories\': [\'r\\xc3\\xa9v\\xc3\\xa9lation\', \'verbe\', \'mot\'], \'comments\': [], \'content\': "Le terme exact ce serait plut\\xc3\\xb4t partager du pla...mour...<br /><br />...<br /><br />Faites l\'amour.", \'id\': \'3232671065974229953\', \'tag\': \'blogger.com\', \'title\': "Faire l\'amour...", \'updated\': \'2010-02-13T09:48:17.756-08:00\', \'year\': \'1999\'}, {\'blog\': \'7966479155905584950\', \'categories\': [], \'comments\': [], \'content\': \'Lorsque votre gorge est malade, ou tout simpleme...iv><div>Sentez la Puissance de votre Verbe.</div>\', \'id\': \'4080719920006300694\', \'tag\': \'blogger.com\', \'title\': \'La Gorge\', \'updated\': \'2010-02-11T12:22:58.212-08:00\', \'year\': \'1999\'}, {\'blog\': \'7966479155905584950\', \'categories\': [], \'comments\': [], \'content\': "La Perfection c\'est...", \'id\': \'2398438051553579064\', \'tag\': \'blogger.com\', \'title\': None, \'updated\': \'2010-02-11T12:09:04.456-08:00\', \'year\': \'1999\'}, {\'blog\': \'7966479155905584950\', \'categories\': [\'r\\xc3\\xa9v\\xc3\\xa9lation\', \'mot\'], \'comments\': [], \'content\': \'Aaaahh 2012 :-)... sujet de toutes les attentes,...iques. Merci pour votre <i>absolue beaut\\xc3\\xa9</i>...\', \'id\': \'6142404084595580778\', \'tag\': \'blogger.com\', \'title\': \'2012\', \'updated\': \'2010-02-10T05:51:27.646-08:00\', \'year\': \'1999\'}, {\'blog\': \'7966479155905584950\', \'categories\': [\'r\\xc3\\xa9v\\xc3\\xa9lation\', \'\\xc3\\xa9l\\xc3\\xa9vation\', \'r\\xc3\\xa9alit\\xc3\\xa9\', \'incantation\'], \'comments\': [], \'content\': \'Notre cerveau produit des (dizaines de) milliers...era le moment, plus tard, un autre jour...</span>\', \'id\': \'4760679713553497153\', \'tag\': \'blogger.com\', \'title\': \'Intention & Action\', \'updated\': \'2010-02-05T06:53:11.217-08:00\', \'year\': \'1999\'}, {\'blog\': \'7966479155905584950\', \'categories\': [], \'comments\': [], \'content\': "<blockquote>Je m\'engage \\xc3\\xa0 \\xc3\\x8atre le meilleur de ...toute autre \\xc3\\xa9motion qui nous <em>d\\xc3\\xa9centre</em>.", \'id\': \'5193588688498091407\', \'tag\': \'blogger.com\', \'title\': \'Engagement\', \'updated\': \'2010-02-01T03:27:24.551-08:00\', \'year\': \'1999\'}, {\'blog\': \'7966479155905584950\', \'categories\': [\'mot\', \'amour\', \'\\xc3\\xa9l\\xc3\\xa9vation\'], \'comments\': [], \'content\': \'M\\xc3\\xa9diter:<br /><blockquote>Se laisser conduire v..." style="font-size: x-small;"> dans google</span>\', \'id\': \'5318615708760758580\', \'tag\': \'blogger.com\', \'title\': \'La M\\xc3\\xa9ditation\', \'updated\': \'2010-02-02T16:34:26.470-08:00\', \'year\': \'1999\'}, {\'blog\': \'7966479155905584950\', \'categories\': [], \'comments\': [], \'content\': \'Il est temps de nous engager &agrave; notre <str...;sents</strong>. Soyons <strong>Entiers</strong>.\', \'id\': \'2986073785240345394\', \'tag\': \'blogger.com\', \'title\': \'Intention\', \'updated\': \'2010-01-16T08:45:15.036-08:00\', \'year\': \'1999\'}, {\'blog\': \'7966479155905584950\', \'categories\': [], \'comments\': [], \'content\': "Nous vivons en <i>Manich\\xc3\\xa9anisme</i>, en Dualit\\xc3... formes de Dualit\\xc3\\xa9 que vous avez \\xc3\\xa0 l\'esprit</i>", \'id\': \'7359706515654842888\', \'tag\': \'blogger.com\', \'title\': \'Dualit\\xc3\\xa9, Polarit\\xc3\\xa9, Manich\\xc3\\xa9anisme & La Suite\', \'updated\': \'2010-01-15T06:39:58.630-08:00\', \'year\': \'1999\'}, {\'blog\': \'7966479155905584950\', \'categories\': [], \'comments\': [], \'content\': \'Je suis (juste) un <b>Messager</b>, et je suis h...polarit\\xc3\\xa9, de dualit\\xc3\\xa9, de <b>Manich\\xc3\\xa9anisme</b>.\', \'id\': \'2133010561734903013\', \'tag\': \'blogger.com\', \'title\': \'...\', \'updated\': \'2010-01-15T04:11:53.522-08:00\', \'year\': \'1999\'}, {\'blog\': \'7966479155905584950\', \'categories\': [], \'comments\': [], \'content\': \'I am (just) a <b>Messenger</b>, and I am human, ...wn perfect polarity, my very own perfect duality.\', \'id\': \'338688646942442947\', \'tag\': \'blogger.com\', \'title\': \'...\', \'updated\': \'2010-01-15T04:01:41.019-08:00\', \'year\': \'1999\'}, {\'blog\': \'7966479155905584950\', \'categories\': [\'mot\', \'incantation\'], \'comments\': [], \'content\': \'Il est temps de nous engager \\xc3\\xa0 notre <b>Intenti...le travail que vous avez vous aussi \\xc3\\xa0 accomplir.\', \'id\': \'7939842994443355672\', \'tag\': \'blogger.com\', \'title\': \'Qui je suis\', \'updated\': \'2010-01-10T18:34:52.441-08:00\', \'year\': \'1999\'}, {\'blog\': \'7966479155905584950\', \'categories\': [], \'comments\': [], \'content\': \'Bon...\', \'id\': \'3201026903407192300\', \'tag\': \'blogger.com\', \'title\': \'Qui je suis\', \'updated\': \'2010-01-10T16:42:47.956-08:00\', \'year\': \'1999\'}, {\'blog\': \'7966479155905584950\', \'categories\': [\'r\\xc3\\xa9v\\xc3\\xa9lation\', \'verbe\', \'\\xc3\\xa9l\\xc3\\xa9vation\', \'r\\xc3\\xa9alit\\xc3\\xa9\'], \'comments\': [], \'content\': \'Toute cette Existence, cette R\\xc3\\xa9alit\\xc3\\xa9, cette po...\\xc3\\xa0, et uniquement \\xc3\\xa0 ces moments l\\xc3\\xa0, un Artiste.\', \'id\': \'6165806538185625539\', \'tag\': \'blogger.com\', \'title\': \'Art & Artistes\', \'updated\': \'2010-01-15T02:33:42.678-08:00\', \'year\': \'1999\'}, ...], \'tag\': \'blogger.com\', \'title\': \'molhokwai: existence et essence\', \'user\': \'805854382143\', \'year\': \'1999\'}, {\'categories\': [], \'id\': \'2881232117151438570\', \'name\': \'auxoeuvreurs\', \'posts\': [{\'blog\': \'2881232117151438570\', \'categories\': [], \'comments\': [], \'content\': "<i>Ce \'bouquin\' est fait pour \\xc3\\xaatre utile, pour ...uation Collective.&nbsp;</blockquote><br /></div>", \'id\': \'9011777537783311084\', \'tag\': \'blogger.com\', \'title\': None, \'updated\': \'2010-04-06T07:11:12.236-07:00\', \'year\': \'1999\'}], \'tag\': \'blogger.com\', \'title\': \'Aux Oeuvreurs\', \'user\': \'805854382143\', \'year\': \'1999\'}, {\'categories\': [\'word\', \'machine\', \'interface\', \'human\', \'development\', \'association\', \'free\', \'art\', \'collective\'], \'id\': \'4979118888770430827\', \'name\': \'ideasprojects-en\', \'posts\': [{\'blog\': \'4979118888770430827\', \'categories\': [], \'comments\': [], \'content\': \'Another idea, linking the <a href="http://ideasp...naturally give birth to a <i>liste compl\\xc3\\xa8te</i>.\', \'id\': \'1520647972633088874\', \'tag\': \'blogger.com\', \'title\': \'Search Based Operating System: Addendum\', \'updated\': \'2010-03-30T08:47:10.508-07:00\', \'year\': \'1999\'}, {\'blog\': \'4979118888770430827\', \'categories\': [\'word\', \'machine\', \'interface\', \'human\'], \'comments\': [], \'content\': \'<span style="font-weight:bold;">Principles</span...e user\\\'s</span></li><br /><li>...</li><br /></ul>\', \'id\': \'127621965222039991\', \'tag\': \'blogger.com\', \'title\': \'human machine interface\', \'updated\': \'2009-05-16T08:49:24.722-07:00\', \'year\': \'1999\'}, {\'blog\': \'4979118888770430827\', \'categories\': [\'machine\', \'development\', \'association\', \'interface\', \'human\'], \'comments\': [], \'content\': \'<span style="font-weight:bold;">principle</span>...s the relations...</li><br /></ul><br />Voil\\xc3\\xa0...\', \'id\': \'8811040142030984749\', \'tag\': \'blogger.com\', \'title\': \'3rd dimensional association map\', \'updated\': \'2009-05-16T07:54:44.399-07:00\', \'year\': \'1999\'}, {\'blog\': \'4979118888770430827\', \'categories\': [\'machine\', \'free\', \'development\'], \'comments\': [], \'content\': \'The true purpose of machine/software as a utilit...ligence of the machine we should be working on...\', \'id\': \'776559635816925244\', \'tag\': \'blogger.com\', \'title\': \'no maintenance software\', \'updated\': \'2009-04-26T02:04:41.408-07:00\', \'year\': \'1999\'}, {\'blog\': \'4979118888770430827\', \'categories\': [\'machine\', \'development\', \'interface\', \'human\'], \'comments\': [], \'content\': \'<span style="font-weight:bold;">parallels</span>...ss (free & open source software) isbos / sibos...\', \'id\': \'7206289283476661869\', \'tag\': \'blogger.com\', \'title\': \'Search Based Operating System (2): Internet Based Operating System\', \'updated\': \'2009-04-26T02:09:43.591-07:00\', \'year\': \'1999\'}, {\'blog\': \'4979118888770430827\', \'categories\': [\'machine\', \'development\', \'interface\', \'human\'], \'comments\': [], \'content\': \'<span style="font-weight:bold;">Idea </span><br ... see full size" alt="click to see image..."/></a>\', \'id\': \'4963005638433911031\', \'tag\': \'blogger.com\', \'title\': \'Search Based Operating System\', \'updated\': \'2009-03-14T07:36:45.523-07:00\', \'year\': \'1999\'}, {\'blog\': \'4979118888770430827\', \'categories\': [\'art\', \'collective\', \'free\', \'development\', \'association\'], \'comments\': [], \'content\': \'<span style="font-weight:bold;">Idea</span><br /...g is that it has ever been done so consciously...\', \'id\': \'4277337953102576126\', \'tag\': \'blogger.com\', \'title\': \'Free choreography production\', \'updated\': \'2009-02-03T12:34:51.537-08:00\', \'year\': \'1999\'}, {\'blog\': \'4979118888770430827\', \'categories\': [\'art\', \'collective\', \'free\', \'development\', \'association\'], \'comments\': [], \'content\': \'<span style="font-weight:bold;">Idea</span><br /...l free to spread the word and / or contact me ...\', \'id\': \'8774950748386478502\', \'tag\': \'blogger.com\', \'title\': \'Free movie production\', \'updated\': \'2009-05-27T01:30:05.268-07:00\', \'year\': \'1999\'}], \'tag\': \'blogger.com\', \'title\': \'ideas & projects\', \'user\': \'805854382143\', \'year\': \'1999\'}, {\'categories\': [\'meditation\', \'incantation\'], \'id\': \'2667339560134489348\', \'name\': \'molhokwai-spiritualwork\', \'posts\': [{\'blog\': \'2667339560134489348\', \'categories\': [], \'comments\': [], \'content\': "I felt the kundalini serpent uncoiling from its ... only imagine the \'Tremens\' for the unprepared...", \'id\': \'520086820583021315\', \'tag\': \'blogger.com\', \'title\': \'The Kundalini Serpent\', \'updated\': \'2010-03-19T23:31:52.952-07:00\', \'year\': \'1999\'}, {\'blog\': \'2667339560134489348\', \'categories\': [], \'comments\': [], \'content\': None, \'id\': \'4757634367868106267\', \'tag\': \'blogger.com\', \'title\': \'the kundalini serpent\', \'updated\': \'2010-03-19T21:00:46.627-07:00\', \'year\': \'1999\'}, {\'blog\': \'2667339560134489348\', \'categories\': [], \'comments\': [], \'content\': \'A <i>Friend</i> repeated it to me over and over ...ho know and let it.</blockquote><div><br /></div>\', \'id\': \'856467195326253961\', \'tag\': \'blogger.com\', \'title\': None, \'updated\': \'2010-02-12T01:06:04.397-08:00\', \'year\': \'1999\'}, {\'blog\': \'2667339560134489348\', \'categories\': [], \'comments\': [], \'content\': \'I am invested with the Power of God...<br />I am...ower...<br />I am invested with the Power of God.\', \'id\': \'2296865965774687559\', \'tag\': \'blogger.com\', \'title\': None, \'updated\': \'2010-02-11T11:02:23.944-08:00\', \'year\': \'1999\'}, {\'blog\': \'2667339560134489348\', \'categories\': [], \'comments\': [], \'content\': \'These are the themes of the Moment.<br /><br /><...to be. <b>Silence</b> and <b>Total Listening</b>.\', \'id\': \'4531683412343235844\', \'tag\': \'blogger.com\', \'title\': \'Power & Silence\', \'updated\': \'2010-01-19T04:39:59.494-08:00\', \'year\': \'1999\'}, {\'blog\': \'2667339560134489348\', \'categories\': [], \'comments\': [], \'content\': "It\'s like my Ego had been supporting me for... w...g, any path I chose to take...<br /><br />Voil\\xc3\\xa0.", \'id\': \'6515277208959708925\', \'tag\': \'blogger.com\', \'title\': \'Embracing my Ego\', \'updated\': \'2010-01-18T06:42:19.572-08:00\', \'year\': \'1999\'}, {\'blog\': \'2667339560134489348\', \'categories\': [], \'comments\': [], \'content\': \'<span style="font-size:1em;font-style:italic;">I...naly</b>, and <b>Be Together</b>... <br /></span>\', \'id\': \'169881469879331779\', \'tag\': \'blogger.com\', \'title\': \'Oneness appendix: destinations\', \'updated\': \'2010-01-15T03:35:58.840-08:00\', \'year\': \'1999\'}, {\'blog\': \'2667339560134489348\', \'categories\': [], \'comments\': [], \'content\': \'<span style="font-size:1em;font-style:italic;">S...ing at different levels of the Experience.</span>\', \'id\': \'1651686709615127645\', \'tag\': \'blogger.com\', \'title\': \'Oneness appendix: fighting\', \'updated\': \'2010-01-15T03:36:27.612-08:00\', \'year\': \'1999\'}, {\'blog\': \'2667339560134489348\', \'categories\': [], \'comments\': [], \'content\': \'I am (just) a <b>Messenger</b>, and I am human, ... meet, unconditionnaly, and <b>Be Together</b>...\', \'id\': \'2196240913590810337\', \'tag\': \'blogger.com\', \'title\': \'Oneness\', \'updated\': \'2010-01-15T04:00:45.806-08:00\', \'year\': \'1999\'}, {\'blog\': \'2667339560134489348\', \'categories\': [\'meditation\'], \'comments\': [], \'content\': "Today\'s topic: teaching.<br /><br />Write down y...li></ul><br />Your teachings are provided freely.", \'id\': \'3604909192808397832\', \'tag\': \'blogger.com\', \'title\': \'...\', \'updated\': \'2010-01-04T12:25:13.307-08:00\', \'year\': \'1999\'}, {\'blog\': \'2667339560134489348\', \'categories\': [\'meditation\'], \'comments\': [], \'content\': \'Deeper than ever...<br /><br />Got out and staye...ment the pieces of information received</li></ul>\', \'id\': \'1693550073784608666\', \'tag\': \'blogger.com\', \'title\': \'...\', \'updated\': \'2010-01-04T12:26:00.227-08:00\', \'year\': \'1999\'}, {\'blog\': \'2667339560134489348\', \'categories\': [], \'comments\': [], \'content\': \'"Feelings are the language of the Soul"<br /><br...ne of them, or just let them be...<br /><br />...\', \'id\': \'6411808994269437604\', \'tag\': \'blogger.com\', \'title\': \'do what you feel...\', \'updated\': \'2009-12-04T12:05:36.322-08:00\', \'year\': \'1999\'}, {\'blog\': \'2667339560134489348\', \'categories\': [], \'comments\': [], \'content\': \'Hello,<br /><br />First, my knowledge is limited...hope I will be able to share this with you, soon.\', \'id\': \'7941296691130862055\', \'tag\': \'blogger.com\', \'title\': \'path\', \'updated\': \'2009-11-30T23:33:24.896-08:00\', \'year\': \'1999\'}, {\'blog\': \'2667339560134489348\', \'categories\': [], \'comments\': [], \'content\': \'Let me question everything I know, to see...<br ...t I am expanding, by freeing my Ego mind...<br />\', \'id\': \'8187357307744789925\', \'tag\': \'blogger.com\', \'title\': \'...\', \'updated\': \'2009-08-15T11:51:53.072-07:00\', \'year\': \'1999\'}, {\'blog\': \'2667339560134489348\', \'categories\': [], \'comments\': [], \'content\': \'Nous traversons tous une grande p\\xc3\\xa9riode de chan...ne">wikip\\xc3\\xa9dia</a>, et beaucoup d\\\'autres )</span>\', \'id\': \'3540768982886600436\', \'tag\': \'blogger.com\', \'title\': "Aux travailleurs de l\'Esprit/To the workers of Spirit", \'updated\': \'2009-09-01T15:37:55.462-07:00\', \'year\': \'1999\'}, {\'blog\': \'2667339560134489348\', \'categories\': [\'incantation\'], \'comments\': [], \'content\': \'(<span style="font-style:italic;">ma</span>(?) v...r />Que Lumi\\xc3\\xa8re et Amour se restaurent sur Terre\', \'id\': \'4135721794084936148\', \'tag\': \'blogger.com\', \'title\': \'la Grande Invocation\', \'updated\': \'2009-07-26T02:34:48.448-07:00\', \'year\': \'1999\'}, {\'blog\': \'2667339560134489348\', \'categories\': [], \'comments\': [], \'content\': \'Started grouding my Self, and immediately felt "...o fast and was so intense, that I just stopped...\', \'id\': \'5434620681877477962\', \'tag\': \'blogger.com\', \'title\': \'...\', \'updated\': \'2009-02-25T15:24:15.256-08:00\', \'year\': \'1999\'}, {\'blog\': \'2667339560134489348\', \'categories\': [], \'comments\': [], \'content\': \'Started meditating, grounding myself...<br />Aft...ng cord, and felt it huge... Felt my Self huge...\', \'id\': \'8420532572329899802\', \'tag\': \'blogger.com\', \'title\': \'...\', \'updated\': \'2009-02-23T04:35:53.640-08:00\', \'year\': \'1999\'}], \'tag\': \'blogger.com\', \'title\': \'spiritual work\', \'user\': \'805854382143\', \'year\': \'1999\'}, {\'categories\': [\'philosophy\'], \'id\': \'5936136819991781356\', \'name\': \'car-pooling-be\', \'posts\': [{\'blog\': \'5936136819991781356\', \'categories\': [\'philosophy\'], \'comments\': [], \'content\': \'In an ideal world, we are living in green cities....<br /><br />Happy car-pooling, and Safe Route...\', \'id\': \'2596155641849338248\', \'tag\': \'blogger.com\', \'title\': \'philosophy\', \'updated\': \'2009-11-06T00:26:35.043-08:00\', \'year\': \'1999\'}], \'tag\': \'blogger.com\', \'title\': \'car-pool.net\', \'user\': \'805854382143\', \'year\': \'1999\'}, {\'categories\': [\'self\', \'soul\', \'change\', \'motion\', \'incantation\', \'word\', \'verb\', \'energy\', \'belief\'], \'id\': \'2853914466295661746\', \'name\': \'molhokwai-shadowwork\', \'posts\': [{\'blog\': \'2853914466295661746\', \'categories\': [], \'comments\': [], \'content\': \'It is just a reflection of your self...<br />So ... destruction... this is why I do not speak yet...\', \'id\': \'52334306755633764\', \'tag\': \'blogger.com\', \'title\': \'...\', \'updated\': \'2009-10-22T01:33:55.316-07:00\', \'year\': \'1999\'}, {\'blog\': \'2853914466295661746\', \'categories\': [], \'comments\': [], \'content\': \'Avec v., nus tous les deux, et moi qui veut la p...omme ne subsister que pour une courte p\\xc3\\xa9riode...\', \'id\': \'7551182809996539431\', \'tag\': \'blogger.com\', \'title\': \'...\', \'updated\': \'2009-09-15T02:56:42.793-07:00\', \'year\': \'1999\'}, {\'blog\': \'2853914466295661746\', \'categories\': [], \'comments\': [], \'content\': \'"Elle est moche, hein?"<br />"Ouais... je me dem...sprits perdus...<br />Des ombres... des ombres...\', \'id\': \'5361022232512442048\', \'tag\': \'blogger.com\', \'title\': \'...\', \'updated\': \'2009-09-14T06:39:16.538-07:00\', \'year\': \'1999\'}, {\'blog\': \'2853914466295661746\', \'categories\': [], \'comments\': [], \'content\': "D\'abord, tu vas commencer par ne t\'exprimer, pen...gagements que tu t\'es cr\\xc3\\xa9\\xc3\\xa9...<br /><br />Voil\\xc3\\xa0", \'id\': \'8043325786908613528\', \'tag\': \'blogger.com\', \'title\': \'...\', \'updated\': \'2009-08-29T03:15:54.950-07:00\', \'year\': \'1999\'}, {\'blog\': \'2853914466295661746\', \'categories\': [], \'comments\': [], \'content\': \'o. avec un "cerveau liquide", qui bout, litt\\xc3\\xa9ra...cytent d\\\'autres petites cr\\xc3\\xa9atures noir-sombre...\', \'id\': \'5905600019114645233\', \'tag\': \'blogger.com\', \'title\': \'...\', \'updated\': \'2009-08-23T16:24:04.268-07:00\', \'year\': \'1999\'}, {\'blog\': \'2853914466295661746\', \'categories\': [], \'comments\': [], \'content\': \'h. with dead eyes... following a. all over the p... to take a. with me, going out, and going back...\', \'id\': \'4183670454514448561\', \'tag\': \'blogger.com\', \'title\': \'...\', \'updated\': \'2009-08-01T06:36:43.133-07:00\', \'year\': \'1999\'}, {\'blog\': \'2853914466295661746\', \'categories\': [\'self\', \'soul\'], \'comments\': [], \'content\': "Je devrais avoir peur en ce moment pour mon aven...ort\\xc3\\xa9 toute la lumi\\xc3\\xa8re que j\'ai \\xc3\\xa0 y apporter...", \'id\': \'9069080669099841747\', \'tag\': \'blogger.com\', \'title\': \'...\', \'updated\': \'2009-06-23T03:18:47.678-07:00\', \'year\': \'1999\'}, {\'blog\': \'2853914466295661746\', \'categories\': [\'self\', \'change\', \'motion\'], \'comments\': [], \'content\': \'Tout est exactement comme il doit \\xc3\\xaatre... Tout ... pour avancer, tous ensemble...<br /><br />Voil\\xc3\\xa0\', \'id\': \'3355598975062147434\', \'tag\': \'blogger.com\', \'title\': \'il est temps...\', \'updated\': \'2009-05-31T03:55:03.865-07:00\', \'year\': \'1999\'}, {\'blog\': \'2853914466295661746\', \'categories\': [], \'comments\': [], \'content\': \'F. telling me the story of a Family of Eagles, w... when he realized that... they..."<br /><br />...\', \'id\': \'6426473936074510927\', \'tag\': \'blogger.com\', \'title\': \'...\', \'updated\': \'2009-05-11T12:21:43.469-07:00\', \'year\': \'1999\'}, {\'blog\': \'2853914466295661746\', \'categories\': [\'self\', \'soul\', \'incantation\'], \'comments\': [], \'content\': \'Oooh Child...<br />Show Your weaknesses, show Yo...of your Soul, say: I love You unconditionnally...\', \'id\': \'426964936751920116\', \'tag\': \'blogger.com\', \'title\': \'...\', \'updated\': \'2009-05-11T12:04:55.334-07:00\', \'year\': \'1999\'}, {\'blog\': \'2853914466295661746\', \'categories\': [\'self\', \'soul\', \'incantation\'], \'comments\': [], \'content\': \'You, who are looking...<br />Know that You belon...ionnaly...<br />Make it a Blessing, or a Curse...\', \'id\': \'7434542094486075483\', \'tag\': \'blogger.com\', \'title\': \'...\', \'updated\': \'2009-05-09T10:14:17.585-07:00\', \'year\': \'1999\'}, {\'blog\': \'2853914466295661746\', \'categories\': [\'word\', \'verb\', \'soul\'], \'comments\': [], \'content\': \'In tune with the Outer Universe<br />I can feel ...er Calling<br />To follow the Path of the Soul...\', \'id\': \'8275340837038324670\', \'tag\': \'blogger.com\', \'title\': \'free fall/rising\', \'updated\': \'2009-05-06T01:00:30.901-07:00\', \'year\': \'1999\'}, {\'blog\': \'2853914466295661746\', \'categories\': [\'incantation\'], \'comments\': [], \'content\': \'Je pourrais vous parler de mes peurs, mais cela ...n...<br /><br />Si n\\xc3\\xa9cessaire, donnez-les moi...\', \'id\': \'1830154053106689589\', \'tag\': \'blogger.com\', \'title\': \'...\', \'updated\': \'2009-04-28T14:47:56.939-07:00\', \'year\': \'1999\'}, {\'blog\': \'2853914466295661746\', \'categories\': [\'self\', \'energy\'], \'comments\': [], \'content\': "1st level: the physical, conscious one, with all...r /><br />I\'ll bring them forth... All of them...", \'id\': \'4862184192950132600\', \'tag\': \'blogger.com\', \'title\': \'...\', \'updated\': \'2009-04-13T08:48:41.829-07:00\', \'year\': \'1999\'}, {\'blog\': \'2853914466295661746\', \'categories\': [\'incantation\', \'energy\'], \'comments\': [], \'content\': \'I can only show you what you want to see...<br /...to you with Love, as you will one day, realize...\', \'id\': \'928346035803924905\', \'tag\': \'blogger.com\', \'title\': \'...\', \'updated\': \'2009-03-30T13:38:21.296-07:00\', \'year\': \'1999\'}, {\'blog\': \'2853914466295661746\', \'categories\': [], \'comments\': [], \'content\': \'A pale, cadaveric head, in a cold dark place...<...the cold dark place was warm, peaceful, loving...\', \'id\': \'8486459033521873014\', \'tag\': \'blogger.com\', \'title\': \'...\', \'updated\': \'2009-03-30T03:35:21.585-07:00\', \'year\': \'1999\'}, {\'blog\': \'2853914466295661746\', \'categories\': [], \'comments\': [], \'content\': "There actually is a more \'popular\' word for this... been at any point...<br /><br />Love<br /><br />", \'id\': \'5770822375766345911\', \'tag\': \'blogger.com\', \'title\': \'...\', \'updated\': \'2009-03-28T15:51:08.947-07:00\', \'year\': \'1999\'}, {\'blog\': \'2853914466295661746\', \'categories\': [\'self\', \'belief\', \'energy\'], \'comments\': [], \'content\': "I can see You doing your apache dance all around...re\'s anything else you can (should?) do anyway...", \'id\': \'897029240368237504\', \'tag\': \'blogger.com\', \'title\': \'...\', \'updated\': \'2009-03-26T15:50:32.511-07:00\', \'year\': \'1999\'}, {\'blog\': \'2853914466295661746\', \'categories\': [\'self\', \'change\', \'energy\', \'motion\'], \'comments\': [], \'content\': "I came across the Reconnections website somewher...l my Love to those I will \'never meet\' anymore...", \'id\': \'2199803366082324759\', \'tag\': \'blogger.com\', \'title\': \'ciao...\', \'updated\': \'2009-05-09T10:39:51.021-07:00\', \'year\': \'1999\'}, {\'blog\': \'2853914466295661746\', \'categories\': [\'self\', \'incantation\'], \'comments\': [], \'content\': \'sick and tired of those lock themselves in the s...s of my self? I will simply own them, by Truth...\', \'id\': \'7898233700927183452\', \'tag\': \'blogger.com\', \'title\': \'...\', \'updated\': \'2009-03-26T05:18:31.342-07:00\', \'year\': \'1999\'}, ...], \'tag\': \'blogger.com\', \'title\': \'shadow work...\', \'user\': \'805854382143\', \'year\': \'1999\'}, {\'categories\': [\'machine\', \'development\', \'interface\', \'human\', \'art\', \'collective\', \'association\', \'complet\', \'language\', \'note\'], \'id\': \'7497965365848149570\', \'name\': \'ideasprojects\', \'posts\': [{\'blog\': \'7497965365848149570\', \'categories\': [\'machine\', \'development\', \'interface\', \'human\'], \'comments\': [], \'content\': \'<div dir="ltr" style="text-align: left;" trbidi=...mplte.html">/2009/01/liste-complte.html</a></div>\', \'id\': \'3783357872275828436\', \'tag\': \'blogger.com\', \'title\': "syst\\xc3\\xa8me d\'exploitation par recherche...", \'updated\': \'2011-01-21T06:14:26.189-08:00\', \'year\': \'1999\'}, {\'blog\': \'7497965365848149570\', \'categories\': [\'art\', \'collective\', \'development\', \'association\'], \'comments\': [], \'content\': \'<span style="font-weight:bold;">Id\\xc3\\xa9e</span><br ...est que cela ait \\xc3\\xa9t\\xc3\\xa9 fait consciemment...</div>\', \'id\': \'6733713332616431813\', \'tag\': \'blogger.com\', \'title\': \'production (chor\\xc3\\xa9ographique) libre\', \'updated\': \'2009-01-29T08:45:51.156-08:00\', \'year\': \'1999\'}, {\'blog\': \'7497965365848149570\', \'categories\': [\'art\', \'collective\', \'development\', \'association\'], \'comments\': [], \'content\': \'<span class="Apple-style-span" style="font-weigh...s \\xc3\\xa0 passer le mot et/ou \\xc3\\xa0 me contacter...</div>\', \'id\': \'43993985545505784\', \'tag\': \'blogger.com\', \'title\': \'production (cin\\xc3\\xa9matographique) libre\', \'updated\': \'2009-01-25T04:49:21.682-08:00\', \'year\': \'1999\'}, {\'blog\': \'7497965365848149570\', \'categories\': [\'association\', \'complet\', \'language\'], \'comments\': [], \'content\': \'<span class="Apple-style-span" style="font-weigh...us pour firefox fonctionne pour un exemple)</div>\', \'id\': \'3198901047105298474\', \'tag\': \'blogger.com\', \'title\': \'liste compl\\xc3\\xa8te\', \'updated\': \'2010-09-06T01:28:07.743-07:00\', \'year\': \'1999\'}, {\'blog\': \'7497965365848149570\', \'categories\': [\'development\', \'association\'], \'comments\': [], \'content\': \'<span class="Apple-style-span" style="font-weigh...ode.google.com/hosting/">google project</a></div>\', \'id\': \'1921427003054155476\', \'tag\': \'blogger.com\', \'title\': \'project collaboration\', \'updated\': \'2009-01-26T12:07:08.053-08:00\', \'year\': \'1999\'}, {\'blog\': \'7497965365848149570\', \'categories\': [\'note\'], \'comments\': [], \'content\': \'Le principe est de mettre toutes les id\\xc3\\xa9es poss...<div><br /></div><div>Voil\\xc3\\xa0... A suivre...</div>\', \'id\': \'6647285942842703899\', \'tag\': \'blogger.com\', \'title\': \'bon...\', \'updated\': \'2009-01-26T09:48:26.650-08:00\', \'year\': \'1999\'}], \'tag\': \'blogger.com\', \'title\': \'id\\xc3\\xa9es & projets\', \'user\': \'805854382143\', \'year\': \'1999\'}, {\'categories\': [\'aiko son\'], \'id\': \'3201538109092870002\', \'name\': \'molhokwai-aiko\', \'posts\': [{\'blog\': \'3201538109092870002\', \'categories\': [\'aiko son\'], \'comments\': [], \'content\': \'Des photos et encore des photos de toi...<br /><...</div></a><div style="color:#808080"></div></div>\', \'id\': \'1358323303379117037\', \'tag\': \'blogger.com\', \'title\': None, \'updated\': \'2007-02-28T10:41:59.907-08:00\', \'year\': \'1999\'}, {\'blog\': \'3201538109092870002\', \'categories\': [\'aiko son\'], \'comments\': [], \'content\': \'Ton blog petit bonhomme...<br /><div style="text...</div></a><div style="color:#808080"></div></div>\', \'id\': \'3625357219623862920\', \'tag\': \'blogger.com\', \'title\': None, \'updated\': \'2007-02-28T10:44:19.652-08:00\', \'year\': \'1999\'}], \'tag\': \'blogger.com\', \'title\': \'aiko\', \'user\': \'805854382143\', \'year\': \'1999\'}]'
p300
sS'self'
p301
S'<gluon.cache.CacheInRam object at 0x8b5ca0c>'
p302
sS'item'
p303
S'None'
p304
sS'key'
p305
S"'blogger_blogs_data'"
p306
sS'dt'
p307
S'3600'
p308
sS'time_expire'
p309
S'3600'
p310
sssS'traceback'
p311
S'Traceback (most recent call last):\n  File "/home/herve/development/workspaces/molhokwai.net/web/gluon/restricted.py", line 188, in restricted\n    exec ccode in environment\n  File "/home/herve/development/workspaces/molhokwai.net/web/applications/cms/controllers/media.py", line 454, in <module>\n  File "/home/herve/development/workspaces/molhokwai.net/web/gluon/globals.py", line 95, in <lambda>\n    self._caller = lambda f: f()\n  File "/home/herve/development/workspaces/molhokwai.net/web/applications/cms/controllers/media.py", line 366, in blogger\n    app_config.BLOGGER_BLOGS_LANGUAGES, posts = blogger_blogs_data())\n  File "/home/herve/development/workspaces/molhokwai.net/web/applications/cms/controllers/media.py", line 451, in blogger_blogs_data\n    t = cache.ram(\'blogger_blogs_data\', _Blogger.blogs_datas, time_expire=60*60)\n  File "/home/herve/development/workspaces/molhokwai.net/web/gluon/cache.py", line 184, in __call__\n    value = f()\nTypeError: \'list\' object is not callable\n'
p312
s.