(dp1
S'output'
p2
S''
sS'layer'
p3
S'/home/herve/development/workspaces/molhokwai.net/web/applications/cms/views/media/blogger.html'
p4
sS'code'
p5
S'if not nake:\n    response.write(\'\\n    \', escape=False)\n    response.write(\'<!DOCTYPE html PUBLIC "-//W3C//DTD XHTML 1.0 Transitional//EN" "http://www.w3.org/TR/xhtml1/DTD/xhtml1-transitional.dtd">\\n<html xmlns="http://www.w3.org/1999/xhtml" xml:lang="\', escape=False)\n    response.write(T.accepted_language or \'en\')\n    response.write(\'">\\n  <head>\\n    <title>\', escape=False)\n    response.write(response.title or request.application)\n    response.write(\'</title>\\n    <meta http-equiv="Content-Type" content="text/html; charset=UTF-8" />\\n    <meta name="keywords" content="\', escape=False)\n    response.write(response.keywords)\n    response.write(\'" />\\n    <meta name="description" content="\', escape=False)\n    response.write(response.description)\n    response.write(\'" />\\n    <meta name="google-site-verification" content="2TmmFn8eNL7GNZuDtORTZ89uxj5fmTtuwqQLqv8webc" /><!-- old: r0Pfq2q9SK7Pk9gkh1NnbsV28-mQoD8LoIGOeUhfer8 -->\\n    <!-- include required CSS files, further most first -->\\n    <!-- include requires CSS files\\n    \', escape=False)\n    response.files.append(URL(request.application,\'static\',\'jquery-ui-1.8.2.custom/jquery-ui-1.8.2.custom.css\'))\n    response.write(\'\\n    -->\\n    <link rel="stylesheet" href="/\', escape=False)\n    response.write(this_app)\n    response.write(\'/static/css/_base.css" type="text/css" media="screen" />\\n    <link rel="stylesheet" href="http://www.google.com/cse/style/look/minimalist.css" type="text/css" />\\n    <link rel="stylesheet" href="/\', escape=False)\n    response.write(this_app)\n    response.write(\'/static/css/themes/\', escape=False)\n    response.write(response.theme)\n    response.write(\'/base.css" type="text/css" media="screen" />\\n    \', escape=False)\n    if response.child_theme and response.theme_stylesheet:\n        response.write(\'\\n        <link rel="stylesheet" href="\', escape=False)\n        response.write(response.theme_stylesheet)\n        response.write(\'" media="screen" />\\n    \', escape=False)\n        pass\n    response.write(\'\\n    <link rel="stylesheet" href="/\', escape=False)\n    response.write(this_app)\n    response.write(\'/static/css/themes/\', escape=False)\n    response.write(response.theme)\n    response.write(\'/style.css" type="text/css" media="screen" />\\n    <link rel="stylesheet" href="/\', escape=False)\n    response.write(this_app)\n    response.write(\'/static/components/markitup/style.css" type="text/css" media="screen" />\\n    <link rel="stylesheet" href="/\', escape=False)\n    response.write(this_app)\n    response.write(\'/static/components/markitup/sets/default/style.css" type="text/css" media="screen" />\\n    <!-- include requires CSS files\\n    \', escape=False)\n    ## TODO: why is this not working?\n    response.files.append(URL(request.application,\'static\',\'style.css\'))\n    response.write(\'\\n    -->\\n    \', escape=False)\n    response.write(\'<script type="text/javascript">\\n<!--\\n/*\\nWritten by Massimo Di Pierro.\\n\\nThis is a minimalistic AJAX for web2py, for more sophisticated stuff\\nyou should use Scriptacolous or some other AJAX toolkit. Anyway...\\n\\nTo use web2py_ajax.html just make sure you include \\\'web2py_ajax.html\\\'\\nin your layout.html. This provides four functions:\\n\\npopup(url)\\ncollapse(id)\\nfade(id,value) // try value= +0.1 or -0.1\\najax(url,sources,taget) \\n// will send sources[i].value to url and dispaly result in target\\n*/\\n\\nfunction popup(url) {\\n  newwindow=window.open(url,\\\'name\\\',\\\'height=400,width=600\\\');\\n  if (window.focus) {newwindow.focus()}\\n  return false;\\n}\\n\\nfunction collapse(id) {\\n   if(this.document.getElementById(id).style.display=="none")\\n   (this.document.getElementById(id).style.display="block") ;\\n   else (this.document.getElementById(id).style.display="none") ;\\n}\\n\\nfunction fade(id,value) {\\n  var object=document.getElementById(id);\\n  if(value<0 && !object.style.opacity) {\\n     this.document.getElementById(id).style.display="block";\\n     object.style.opacity=1;\\n  }\\n  if(value>0 && object.style.opacity>=1) object.style.opacity=1;\\n  else if(value<0 && object.style.opacity<=0) {\\n     this.document.getElementById(id).style.display="none";\\n     object.style.opacity=0;\\n  }\\n  else {\\n     this.document.getElementById(id).style.display="block";\\n     object.style.opacity-=-value;\\n     setTimeout(function(){fade(id,value);},100);\\n     return false;\\n  }\\n  return true;\\n}\\n\\nfunction ajax(url,sources,target) {\\n  var req = null; \\n  var ctarget=document.getElementById(target);\\n  window.status="connecting...";\\n  if(window.XMLHttpRequest)\\n     req = new XMLHttpRequest(); \\n  else if (window.ActiveXObject)\\n     req  = new ActiveXObject("Microsoft.XMLHTTP");\\n  req.onreadystatechange = function() {\\n     window.status="waiting...";\\n     if(req.readyState == 4)\\n       if(req.status == 200) {\\n          window.status=\\\'Ajax Done!\\\'\\n          try { \\n             ctarget.innerHTML=req.responseText; \\n             try {ctarget.scrollTop=ctarget.scrollHeight-ctarget.clientHeight;}\\n             catch(err) {}\\n          } catch(err) { ctarget.value=req.responseText; }\\n       } else alert("AJAX Error: " + req.status);\\n  }\\n  var query=""\\n  for(i=0; i<sources.length; i++) {\\n     if(i>0) query=query+"&";\\n     query=query+encodeURIComponent(sources[i])+"="+encodeURIComponent(document.getElementById(sources[i]).value);\\n  }\\n  req.open("POST",url,true); \\n  req.setRequestHeader("Content-Type", "application/x-www-form-urlencoded"); \\n  req.send(query); \\n} \\n//-->\\n</script>\', escape=False)\n    response.write(\'\\n    <script type="text/javascript">\\n      <!-- /* this adds sfhover class to menu li items to make IE6 work */ jQuery(document).ready(function(){jQuery(\\\'li.web2py-menu-expand\\\').hover(function ()     {jQuery(this).addClass(\\\'sfhover\\\');},function () {jQuery(this).removeClass(\\\'sfhover\\\');});});//-->\\n    </script>\\n    <script type="text/javascript">\\n      var server={\\n          request : {\\n              application : \\\'\', escape=False)\n    response.write(this_app)\n    response.write(\'\\\'\\n          },\\n          pages : []\\n      };\\n    </script>\\n    <script type="text/javascript" src="/\', escape=False)\n    response.write(this_app)\n    response.write(\'/static/components/net.molhokwai/molhokwai.common.js"></script>\\n    <script type="text/javascript" src="/\', escape=False)\n    response.write(this_app)\n    response.write(\'/static/components/jquery/jquery-1.4.2.min.js"></script>\\n    <script type="text/javascript" src="/\', escape=False)\n    response.write(this_app)\n    response.write(\'/static/components/markitup/jquery.markitup.js"></script>\\n    <script type="text/javascript" src="/\', escape=False)\n    response.write(this_app)\n    response.write(\'/static/custom/script.js"></script>\\n    <script src="http://www.google.com/jsapi?key=ABQIAAAAhDaHyndn3TRHW8aVVgNfsBTPFwiohxerrbIfi_L7lDZ1YENwhRROxgxsy_RTT4IRmc8SWIpWu3KrsQ" type="text/javascript"></script>\\n    <script type="text/javascript" src="/\', escape=False)\n    response.write(this_app)\n    response.write(\'/static/components/google/search_init.js"></script>\\n    <script type="text/javascript" src="/\', escape=False)\n    response.write(this_app)\n    response.write(\'/static/components/jquery/add-ons.js"></script>\\n    <script type="text/javascript">\\n        $(document).ready(function(){\\n            $(\\\'#google_translate_element\\\').hide();\\n            $(\\\'#cse-search-form\\\').hide();\\n            $(\\\'#cli_web\\\').hide(\\\'slow\\\');\\n        });\\n        \\n        var huTi=null;\\n        var toggleUtilities=function(a){\\n            var selectors={\\n                \\\'#google_translate_element\\\' : \\\'.goog-te-combo\\\',\\n                \\\'#cse-search-form\\\' : \\\'.gsc-input\\\',\\n                \\\'#cli_web\\\' : \\\'#_cmd\\\'\\n            };\\n            \\n            for(k in selectors){\\n                if(a.href.indexOf(k)>=0 && !$(k).is(\\\':visible\\\')){\\n                    $(k).show();\\n                    $(selectors[k]).focus();\\n                }\\n                else{\\n                    $(k).hide();\\n                }\\n            }\\n        };\\n    </script>    \\n  </head>\\n  <body>\\n     <div id="top-bar">\\n      <a href="#google_translate_element" onclick="toggleUtilities(this);" class="float-left">\', escape=False)\n    response.write(T(\'translation\'))\n    response.write(\' | </a>\\n      <a href="#cse-search-form" onclick="toggleUtilities(this);" class="float-left"> \', escape=False)\n    response.write(T(\'search (google)\'))\n    response.write(\' | </a>\\n      <a href="#cli_web" onclick="toggleUtilities(this);" class="float-left"> <em>\', escape=False)\n    response.write(T(\'command line\'))\n    response.write(\' | </em></a>\\n\\n       <span id="user-menu">\\n         \', escape=False)\n    if \'auth\' in globals():\n        response.write(\'\\n           \', escape=False)\n        if not auth.user:\n            response.write(\' \\n             <a>]</a> \', escape=False)\n            response.write(A(T(\'login\'),_href=URL(r=request,c=\'default\',f=\'user/login\')))\n            response.write(\' <a>[</a>\\n           \', escape=False)\n        else:\n            response.write(\'\\n             \', escape=False)\n            response.write(auth.user.display_name)\n            response.write(\' \\n             \', escape=False)\n            response.write(A(T(\'logout\'),_href=URL(r=request,c=\'default\',f=\'user/logout\')))\n            response.write(\' |\\n           \', escape=False)\n            pass\n        response.write(\'\\n         \', escape=False)\n        pass\n    response.write(\'\\n       </span> \\n      <!-- end #user-menu -->\\n\\n      <div class="clear"></div>\\n                    \\n      <div id="utilities" class="padt2pc">\\n\\n          <div id="google_translate_element"></div>\\n          <script>\\n            function googleTranslateElementInit() {\\n              new google.translate.TranslateElement({\\n                pageLanguage: \\\'\', escape=False)\n    response.write(current_language[:2])\n    response.write(\'\\\'\\n              }, \\\'google_translate_element\\\');\\n            }\\n          </script><script src="http://translate.google.com/translate_a/element.js?cb=googleTranslateElementInit"></script>     \\n          <!-- end #google_translate_element-->    \\n    \\n          <div class="clear"></div>\\n          \\n          <div id="cli_web">\\n            <form action="/lcs/cli_web/_do" method="post" onsubmit="return on_cli_web_submit();">\\n                <input type="text" id="_cmd" name="_cmd" />\\n                \', escape=False)\n    if session.cli_web_flash:\n        response.write(\'<font class="flash small">\', escape=False)\n        response.write(XML(session.cli_web_flash))\n        session.cli_web_flash=False\n        response.write(\'</font>\', escape=False)\n        pass\n    response.write(\'\\n            </form>\\n          </div>\\n          <!-- end #cli_web -->\\n    \\n          <div id="cse-search-form">Loading</div>\\n          <script src="http://www.google.com/jsapi" type="text/javascript"></script>\\n          <script type="text/javascript">\\n            google.load(\\\'search\\\', \\\'1\\\', {language : \\\'\', escape=False)\n    response.write(current_language[:2])\n    response.write(\'\\\'});\\n            google.setOnLoadCallback(function() {\\n              var customSearchControl = new google.search.CustomSearchControl(\\\'014007428035866690530:qpoerqfcidu\\\');\\n              customSearchControl.setResultSetSize(google.search.Search.FILTERED_CSE_RESULTSET);\\n              var options = new google.search.DrawOptions();\\n              options.setSearchFormRoot(\\\'cse-search-form\\\');\\n          \\n              options.setAutoComplete(true);\\n              customSearchControl.draw(\\\'cse\\\', options);\\n            }, true);\\n          </script>\\n          <!-- end #cse-search-form -->\\n    \\n      </div>\\n      <!-- end #utilities -->\\n\\n    </div>\\n    <!-- end #top-bar-->\\n\\n    <div class="clear"></div>\\n    \\n    <div id="wrapper">\\n        <span id="logo">\\n          <a class="text-decoration-none">v0.1.0</a>\\n          <!--href="/welcome/default/roadmap"-->\\n        </span>\\n        <!-- end #logo -->\\n\\n        <div id="menu-tabs">\\n          \', escape=False)\n    if response.menu:\n        response.write(\'\\n                  <ul>\\n                      \', escape=False)\n        for _name,_active,_link in response.menu:\n            response.write(\'\\n                          <li><a href="\', escape=False)\n            response.write(_link)\n            response.write(\'" \', escape=False)\n            if not _active:\n                response.write(\'class="inactive"\', escape=False)\n                pass\n            response.write(\'>\', escape=False)\n            response.write(T(_name))\n            response.write(\'</a></li>\\n                      \', escape=False)\n            pass\n        response.write(\'\\n                  </ul>\\n          \', escape=False)\n        pass\n    response.write(\'\\n        </div>\\n        <div class="clear"></div>\\n        <!-- end #menu-tabs -->\\n\\n        <div id="container">\\n          <div id="cse"></div>\\n          <!-- end #cse -->\\n\\n          <div id="content">\\n\\n            <div id="contextual-nav">\\n              <ul>\\n                  <li>                          \\n                      <h2 class="widgettitle">\', escape=False)\n    response.write(T(\'Tags(categories)\'))\n    response.write(\'\\n                          \', escape=False)\n    if response.categories:\n        response.write(\'\\n                              \', escape=False)\n        if session.authorized:\n            response.write(\'\\n                                  <span style="font-size: .8em; font-weight: normal;">\\n                                      [<a href="/\', escape=False)\n            response.write(request.application)\n            response.write(\'/default/manage/category">\', escape=False)\n            response.write(T(\'manage\'))\n            response.write(\'</a>]\\n                                  </span>\\n                              \', escape=False)\n            pass\n        response.write(\'\\n                          \', escape=False)\n        pass\n    response.write(\'\\n                      </h2>\\n                      <ul>\\n                          <li><a href="/\', escape=False)\n    response.write(request.application)\n    response.write(\'/default/index/posts">\', escape=False)\n    response.write(T(\'view all\'))\n    response.write(\'</a></li>\\n                          \', escape=False)\n    for _name,_count,_link in response.categories:\n        response.write(\'\\n                              <li><a href="\', escape=False)\n        response.write(_link)\n        response.write(\'">\', escape=False)\n        response.write(_name)\n        response.write(\'</a> (\', escape=False)\n        response.write(_count)\n        response.write(\')</li>\\n                          \', escape=False)\n        pass\n    response.write(\'\\n                      </ul>                   \\n                  </li>\\n                  <!-- end sidebar categories -->\\n                  \\n                  \', escape=False)\n    if response.links:\n        response.write(\'\\n                      <li>\\n                          <h2 class="widgettitle">\\n                              \', escape=False)\n        response.write(T(\'Links\'))\n        response.write(\'\\n                              \', escape=False)\n        if session.authorized:\n            response.write(\'\\n                                  <span style="font-size: .8em; font-weight: normal;">\\n                                      [<a href="/\', escape=False)\n            response.write(request.application)\n            response.write(\'/default/manage/link">\', escape=False)\n            response.write(T(\'manage\'))\n            response.write(\'</a>]\\n                                  </span>\\n                              \', escape=False)\n            pass\n        response.write(\'\\n                          </h2>\\n                          <ul>\\n                              \', escape=False)\n        for _name,_link,_id in utilities.shorten_and_randomize(response.links, 5):\n            response.write(\'\\n                                  <li>\\n                                      <a target="_blank" href="\', escape=False)\n            response.write(_link)\n            response.write(\'">\', escape=False)\n            response.write(_name)\n            response.write(\'</a>\\n                                  </li>\\n                              \', escape=False)\n            pass\n        response.write(\'\\n                          </ul>                       \\n                      </li>\\n                  \', escape=False)\n        pass\n    response.write(\'\\n                  <!-- end sidebar links -->\\n\\n                  \', escape=False)\n    if response.pages:\n        response.write(\'\\n                      <li class="pages">\\n                          <h2 class="widgettitle">\\n                              \', escape=False)\n        response.write(T(\'Pages\'))\n        response.write(\'\\n                              <span style="font-size: .8em; font-weight: normal;">\\n                                  [<a href="/\', escape=False)\n        response.write(request.application)\n        response.write(\'/default/pages">\', escape=False)\n        response.write(T(\'view all\'))\n        response.write(\'</a>]\\n                              </span>\\n                          </h2>\\n                          <ul>\\n                              \', escape=False)\n        for _name,_active,_link in utilities.shorten_and_randomize(response.pages, 10):\n            response.write(\'\\n                                  <li>\\n                                      .<a href="\', escape=False)\n            response.write(_link)\n            response.write(\'">\', escape=False)\n            response.write(T(_name))\n            response.write(\'</a>\\n                                  </li>\\n                              \', escape=False)\n            pass\n        response.write(\'\\n                          </ul>                       \\n                      </li>\\n                      <div class="clear"></div>\\n                      <br/>\\n                  \', escape=False)\n        pass\n    response.write(\'\\n                  <!-- end sidebar links -->\\n                      \\n                  \', escape=False)\n    if session.authorized:\n        response.write(\'\\n                      <li>\\n                          <h2>\', escape=False)\n        response.write(T(\'Mini Admin\'))\n        response.write(\'</h2>\\n                          <ul>\\n                              <li><a href="/\', escape=False)\n        response.write(request.application)\n        response.write(\'/default/add/page">\', escape=False)\n        response.write(T(\'add page\'))\n        response.write(\'</a></li>\\n                              <li><a href="/\', escape=False)\n        response.write(request.application)\n        response.write(\'/default/add/post">\', escape=False)\n        response.write(T(\'add post\'))\n        response.write(\'</a></li>\\n                              <li><a href="/\', escape=False)\n        response.write(request.application)\n        response.write(\'/default/manage/category/add">\', escape=False)\n        response.write(T(\'add category\'))\n        response.write(\'</a></li>\\n                          </ul>\\n                      </li>\\n                  \', escape=False)\n        pass\n    response.write(\'\\n                  <!-- -end mini admin -->\\n\\n                  \', escape=False)\n    if response.sidebar_note:\n        response.write(\'\\n                      <li>\\n                          <p>\', escape=False)\n        response.write(response.sidebar_note)\n        response.write(\'</p>\\n                      </li>   \\n                  \', escape=False)\n        pass\n    response.write(\'\\n                  <!-- end sidebar_note -->\\n              </ul>\\n            </div>\\n            <!-- end #contextual-nav -->          \\n              \\n            \', escape=False)\n    if response.flash:\n        response.write(\'\\n                <div id="flash">\', escape=False)\n        response.write(XML(response.flash))\n        response.write(\'</div>\\n            \', escape=False)\n        pass\n    response.write(\'\\n        \\n            \', escape=False)\n    response.write(\'\\n\', escape=False)\nelse:\n    response.write(\'\\n    \', escape=False)\n    if response.refresh:\n        response.write(XML(response.refresh))\n        pass\n    response.write(\'\\n    <link rel="stylesheet" href="/\', escape=False)\n    response.write(this_app)\n    response.write(\'/static/css/_base.css" type="text/css" media="screen" />\\n    <link rel="stylesheet" href="/\', escape=False)\n    response.write(this_app)\n    response.write(\'/static/css/base.css" type="text/css" media="screen" />\\n    <link rel="stylesheet" href="/\', escape=False)\n    response.write(this_app)\n    response.write(\'/static/css/themes/\', escape=False)\n    response.write(response.theme)\n    response.write(\'/base.css" type="text/css" media="screen" />\\n    <style type="text/css">\\n        #footer, footer, #top-bar, top-bar {\\n            display:none;\\n        }\\n    </style>\\n\', escape=False)\n    pass\nresponse.write(\'\\n\\n\\n\', escape=False)\nif area in [\'login\', \'add\', \'edit\', \'delete\', \'upload\']:\n    response.write(\'\\n    <!-- NOT USED AT THIS POINT IN THIS PAGE -->\\n    \', escape=False)\n    response.write(form)\n    response.write(\'\\n\\n\', escape=False)\n    pass\nresponse.write(\'\\n\\n\', escape=False)\nif area==\'themes_choice\':\n    response.write(\'\\n    \', escape=False)\n    response.write(XML(form))\n    response.write(\'\\n\\n\', escape=False)\nelif area==\'gallery\':\n    response.write(\'\\n    \', escape=False)\n    response.write(H2(T(\'recent\'), _class=\'text-alignr\'))\n    response.write(\'\\n    \', escape=False)\n    for photo in recent:\n        response.write(\'\\n        \', escape=False)\n        response.write(A(IMG( _src=photo.thumbnail_url), _id=photo.id, _href=photo.url, _title=photo.title, _target=\'photo_frame\'))\n        response.write(\'\\n    \', escape=False)\n        pass\n    response.write(\'\\n\\n    \', escape=False)\n    response.write(H2(T(\'albums\'), _class=\'text-alignr margt5pc\'))\n    response.write(\'\\n    \', escape=False)\n    for photo in gallery:\n        response.write(\'\\n        \', escape=False)\n        response.write(A(IMG( _src=photo.thumbnail_url), _id=photo.id, _href=URL(r=request, args=[\'album\', photo.album_id]), _title=photo.title))\n        response.write(\'\\n    \', escape=False)\n        pass\n    response.write(\'\\n\\n\', escape=False)\nelif area==\'album\' or (area in [\'edit\', \'delete\'] and item==\'album\'):\n    response.write(\'\\n    \', escape=False)\n    response.write(BR(_class=\'margt5pc\'))\n    response.write(\'\\n    \', escape=False)\n    for photo in album:\n        response.write(\'\\n        \', escape=False)\n        response.write(A(IMG( _src=photo.thumbnail_url), _id=photo.id, _href=photo.url, _title=photo.title, _target=\'photo_frame\'))\n        response.write(\'\\n        \', escape=False)\n        if area in [\'edit\', \'delete\']:\n            response.write(\'\\n            \', escape=False)\n            response.write(A(T(\'e\'), _id=\'u_%s\'%photo.id, _href=URL(r=request, args=[\'edit\', \'picture\', photo.id, photo.album_id]), _title=T(\'edit %(title)s\', dict(title=photo.title))))\n            response.write(\'\\n            \', escape=False)\n            response.write(A(T(\'x\'), _id=\'x_%s\'%photo.id, _href=URL(r=request, args=[\'delete\', \'picture\', photo.id, photo.album_id]), _title=T(\'delete %(title)s\', dict(title=photo.title))))\n            response.write(\'\\n        \', escape=False)\n            pass\n        response.write(\'\\n    \', escape=False)\n        pass\n    response.write(\'\\n    \', escape=False)\n    response.write(A(T(\'slideshow\'), _href=URL(r=request, args=[\'slideshow\', album_id]), _title=T(\'slideshow\'), _target=\'photo_frame\', _class=\'display-block width100pc text-alignr\'))\n    response.write(\'\\n\', escape=False)\n    pass\nresponse.write(\'\\n\\n\', escape=False)\nif area == \'slideshow\':\n    response.write(\'\\n    \', escape=False)\n    response.write(IFRAME( _name=\'photo_frame\', _class=\'slideshow width100pc minh40em border-none\', _src=photo.url, _title=photo.title))\n    response.write(\'\\n    \\n\', escape=False)\nelif area in [\'edit\', \'delete\'] and item==\'picture\':\n    response.write(\'\\n    \', escape=False)\n    response.write(IFRAME( _name=\'photo_frame\', _class=\'marg-auto width60pc minh40em border-none\', _src=photo.content.src))\n    response.write(\'\\n    \\n\', escape=False)\nelif not area in [\'albums\', \'add\', \'edit\', \'delete\', \'upload\', \'login\'] :\n    response.write(\'\\n    \', escape=False)\n    response.write(IFRAME( _name=\'photo_frame\', _class=\'marg-auto width60pc minh40em border-none\'))\n    response.write(\'\\n\\n\', escape=False)\n    pass\nresponse.write(\'\\n\', escape=False)\nresponse.write(\'\\n          </div>\\n          <div class="clear"></div>\\n          <!-- end #content -->          \\n\\n          <div id="footer"><a \\n            title=\\\'\', escape=False)\nresponse.write(XML(T("This site is totally opened and free. You can do whatever you wish with it. And if you wish for a copy of it, just download the pages. If you wish to have the dynamic part , let us/me know and we&#39;re/I&#39;m creating a dowload section (if not already done at the time you read this).")))\nresponse.write(\'\\\'>\\n                &copy;Copynone</a>\\n            molhokwai.net, 2010 - on PyPress, a <a target="_blank" href="http://www.web2py.org">web2py<a> powered blog\\n                  on <a target="_blank" href="http://code.google.com/appengine">google app engine<a> \\n             <br/>| <a href="/cms/default/page/1517002">about us(me)</a>| <a href="/welcome/default/about">about this app</a> \\n             <br/><div id="molhokwai-addthis">\\n                    <!-- AddThis Buttons BEGIN -->\\n                    <div class="addthis_toolbox addthis_default_style float-left" style="margin-left:35%">\\n                      <a href="http://www.addthis.com/bookmark.php?v=250&amp;username=xa-4c0f94e418ef2928" class="addthis_button_compact">Share</a>\\n                      <span class="addthis_separator">|</span>\\n                      <a class="addthis_button_facebook"></a>\\n                      <a class="addthis_button_myspace"></a>\\n                      <a class="addthis_button_google"></a>\\n                      <a class="addthis_button_twitter"></a>\\n                    </div>\\n                    <!--script type="text/javascript" src="http://s7.addthis.com/js/250/addthis_widget.js#username=xa-4c0f94e418ef2928"></script-->\\n                    <!-- AddThis Buttons END -->\\n                    <div class="clear"></div>\\n                  </div>\\n                  <!-- end #molhokwai-addthis -->\\n          </div>\\n          <!-- end #footer -->\\n\\n        </div>\\n        <!-- end #container -->\\n\\n    </div>\\n    <!-- end #wrapper -->\\n\\n    <script type="text/javascript" id="tracking_src">\\n        var gaJsHost = (("https:" == document.location.protocol) ? "https://ssl." : "http://www.");\\n        document.write(unescape("%3Cscript src=\\\'" + gaJsHost + "google-analytics.com/ga.js\\\' type=\\\'text/javascript\\\'%3E%3C/script%3E"));\\n    </script>\\n    <script type="text/javascript" id="tracking_process">\\n        try {\\n            var pageTracker = _gat._getTracker("UA-5101967-1");\\n            pageTracker._initData();\\n            pageTracker._trackPageview();\\n        }\\n        catch(e) {\\n            if (console) try{console.log(e);}catch(e){}\\n        }\\n    </script>\\n    <!-- end #tracking -->\\n\\n  </body>\\n</html>\\n\', escape=False)'
p6
sS'snapshot'
p7
(dp8
S'exception'
p9
(dp10
S'__hash__'
p11
S"<method-wrapper '__hash__' of exceptions.NameError object at 0x9d28eac>"
p12
sS'__setattr__'
p13
S"<method-wrapper '__setattr__' of exceptions.NameError object at 0x9d28eac>"
p14
sS'__reduce_ex__'
p15
S'<built-in method __reduce_ex__ of exceptions.NameError object at 0x9d28eac>'
p16
sS'__getslice__'
p17
S"<method-wrapper '__getslice__' of exceptions.NameError object at 0x9d28eac>"
p18
sS'__getitem__'
p19
S"<method-wrapper '__getitem__' of exceptions.NameError object at 0x9d28eac>"
p20
sS'__setstate__'
p21
S'<built-in method __setstate__ of exceptions.NameError object at 0x9d28eac>'
p22
sS'__reduce__'
p23
S'<built-in method __reduce__ of exceptions.NameError object at 0x9d28eac>'
p24
sS'__str__'
p25
S"<method-wrapper '__str__' of exceptions.NameError object at 0x9d28eac>"
p26
sS'args'
p27
S'("name \'nake\' is not defined",)'
p28
sS'__getattribute__'
p29
S"<method-wrapper '__getattribute__' of exceptions.NameError object at 0x9d28eac>"
p30
sS'__class__'
p31
S"<type 'exceptions.NameError'>"
p32
sS'__delattr__'
p33
S"<method-wrapper '__delattr__' of exceptions.NameError object at 0x9d28eac>"
p34
sS'__repr__'
p35
S"<method-wrapper '__repr__' of exceptions.NameError object at 0x9d28eac>"
p36
sS'__dict__'
p37
S'{}'
p38
sS'__doc__'
p39
S"'Name not found globally.'"
p40
sS'__init__'
p41
S"<method-wrapper '__init__' of exceptions.NameError object at 0x9d28eac>"
p42
sS'__new__'
p43
S'<built-in method __new__ of type object at 0x8239980>'
p44
ssS'evalue'
p45
S"name 'nake' is not defined"
p46
sS'request'
p47
(dp48
S'function'
p49
S"'blogger'"
p50
sS'body'
p51
S'<cStringIO.StringO object at 0x9d28dc0>'
p52
sS'wsgi'
p53
S"<Storage {'start_response': <function <lambda> a...ING': 'gzip,deflate', 'HTTP_KEEP_ALIVE': '115'}}>"
p54
sS'extension'
p55
S"'html'"
p56
sS'vars'
p57
S'<Storage {}>'
p58
sS'cid'
p59
S'None'
p60
sS'url'
p61
S'<gluon.html.XML object at 0x9d4418c>'
p62
sS'raw_extension'
p63
S'None'
p64
sg27
S"['themes_choice']"
p65
sS'controller'
p66
S"'media'"
p67
sS'cookies'
p68
S"<SimpleCookie: session_id_admin='127.0.0.1-b9035...0269e6a-c816-4c2a-bfa7-b84e9f72fe25' theme='cms'>"
p69
sS'application'
p70
S"'cms'"
p71
sS'ajax'
p72
S'False'
p73
sS'client'
p74
S"'127.0.0.1'"
p75
sS'env'
p76
S"<Storage {'wsgi_multithread': True, 'http_accept...nput': <socket._fileobject object at 0x9e7bb8c>}>"
p77
sS'raw_args'
p78
S"'themes_choice'"
p79
sS'get_vars'
p80
S'<Storage {}>'
p81
sS'folder'
p82
S"'/home/herve/development/workspaces/molhokwai.net/web/applications/cms/'"
p83
sS'now'
p84
S'datetime.datetime(2011, 2, 28, 10, 52, 50, 618336)'
p85
sS'post_vars'
p86
S'<Storage {}>'
p87
ssS'frames'
p88
(lp89
(dp90
S'file'
p91
S'/home/herve/development/workspaces/molhokwai.net/web/gluon/restricted.py'
p92
sS'dump'
p93
(dp94
S'environment'
p95
S"{'A': <class 'gluon.html.A'>, 'AppDetails': <class __builtin__.AppDetails at 0x9d48b0c>, 'Auth': <class 'gluon.tools.Auth'>, 'B': <class 'gluon.html.B'>, 'BEAUTIFY': <class 'gluon.html.BEAUTIFY'>, 'BODY': <class 'gluon.html.BODY'>, 'BR': <class 'gluon.html.BR'>, 'CENTER': <class 'gluon.html.CENTER'>, 'CLEANUP': <class 'gluon.validators.CLEANUP'>, 'CODE': <class 'gluon.html.CODE'>, ...}"
p96
sS'ccode'
p97
S'<code object <module> at 0x9d34c80, file "/home/...plications/cms/views/media/blogger.html", line 1>'
p98
ssS'lnum'
p99
I188
sS'lines'
p100
(dp101
I192
S'        # XXX Show exception in Wing IDE if running in debugger'
p102
sI183
S'        if type(code) == types.CodeType:'
p103
sI184
S'            ccode = code'
p104
sI185
S'        else:'
p105
sI186
S'            ccode = compile2(code,layer)'
p106
sI187
S''
sI188
S'        exec ccode in environment'
p107
sI189
S'    except HTTP:'
p108
sI190
S'        raise'
p109
sI191
S'    except Exception:'
p110
ssS'call'
p111
S'(code="if not nake:\\n    response.write(\'\\\\n    \', escape...cking -->\\\\n\\\\n  </body>\\\\n</html>\\\\n\', escape=False)", environment={\'A\': <class \'gluon.html.A\'>, \'AppDetails\': <class __builtin__.AppDetails at 0x9d48b0c>, \'Auth\': <class \'gluon.tools.Auth\'>, \'B\': <class \'gluon.html.B\'>, \'BEAUTIFY\': <class \'gluon.html.BEAUTIFY\'>, \'BODY\': <class \'gluon.html.BODY\'>, \'BR\': <class \'gluon.html.BR\'>, \'CENTER\': <class \'gluon.html.CENTER\'>, \'CLEANUP\': <class \'gluon.validators.CLEANUP\'>, \'CODE\': <class \'gluon.html.CODE\'>, ...}, layer=\'/home/herve/development/workspaces/molhokwai.net/web/applications/cms/views/media/blogger.html\')'
p112
sS'func'
p113
S'restricted'
p114
sa(dp115
g91
S'/home/herve/development/workspaces/molhokwai.net/web/applications/cms/views/media/blogger.html'
p116
sg93
(dp117
S'nake'
p118
S'undefined'
p119
ssg99
I1
sg100
(dp120
I1
S'if not nake:'
p121
sI2
S"    response.write('\\n    ', escape=False)"
p122
sI3
S'    response.write(\'<!DOCTYPE html PUBLIC "-//W3C//DTD XHTML 1.0 Transitional//EN" "http://www.w3.org/TR/xhtml1/DTD/xhtml1-transitional.dtd">\\n<html xmlns="http://www.w3.org/1999/xhtml" xml:lang="\', escape=False)'
p123
sI4
S"    response.write(T.accepted_language or 'en')"
p124
sI5
S'    response.write(\'">\\n  <head>\\n    <title>\', escape=False)'
p125
sI6
S'    response.write(response.title or request.application)'
p126
sI7
S'    response.write(\'</title>\\n    <meta http-equiv="Content-Type" content="text/html; charset=UTF-8" />\\n    <meta name="keywords" content="\', escape=False)'
p127
sI8
S'    response.write(response.keywords)'
p128
sI9
S'    response.write(\'" />\\n    <meta name="description" content="\', escape=False)'
p129
sI10
S'    response.write(response.description)'
p130
sI11
S'    response.write(\'" />\\n    <meta name="google-site-verification" content="2TmmFn8eNL7GNZuDtORTZ89uxj5fmTtuwqQLqv8webc" /><!-- old: r0Pfq2q9SK7Pk9gkh1NnbsV28-mQoD8LoIGOeUhfer8 -->\\n    <!-- include required CSS files, further most first -->\\n    <!-- include requires CSS files\\n    \', escape=False)'
p131
ssg111
S'()'
p132
sg113
S'<module>'
p133
sasS'pyver'
p134
S'Python 2.5.1: /usr/local/bin/python2.5'
p135
sS'session'
p136
(dp137
S'_language'
p138
S"'en'"
p139
sS'auth'
p140
S'None'
p141
ssS'etype'
p142
S"<type 'exceptions.NameError'>"
p143
sS'date'
p144
S'Mon Feb 28 10:52:51 2011'
p145
sS'response'
p146
(dp147
S'_vars'
p148
g38
sg68
S"<SimpleCookie: session_id_cms='127.0.0.1-a0269e6a-c816-4c2a-bfa7-b84e9f72fe25'>"
p149
sS'links'
p150
S"[['web2py', 'http://www.web2py.com', 1], ['Python', 'http://www.python.org', 2], ['DePaul CTI', 'http://www.cs.depaul.edu', 3], ['DePaul University', 'http://www.depaul.edu', 5], ['downloads', '/a/default/page/32', 15], ['media / picasa / gallery', '/a/media/picasa/gallery', 16], ['manage media / manage picasa albums / manage photos', '/a/media/picasa/albums', 17], ['setup, application initialization', '/a/setup', 18], ['twitter', '/a/media/social/twitter', 19]]"
p151
sS'posts'
p152
S'<gluon.dal.Rows object at 0x9b5668c>'
p153
sS'themes'
p154
S"['0', '1', 'cms', 'pypress', 'test#:#0#:#http://localhost/css/base.css#:#molhokwai@gmail.com', 'test1#:#0#:#http://localhost/css/base1.css#:#herve.mayou@gmail.com']"
p155
sS'theme_stylesheet'
p156
S'None'
p157
sS'meta'
p158
S'<Storage {}>'
p159
sS'_view_environment'
p160
S"{'A': <class 'gluon.html.A'>, 'AppDetails': <class __builtin__.AppDetails at 0x9d48b0c>, 'Auth': <class 'gluon.tools.Auth'>, 'B': <class 'gluon.html.B'>, 'BEAUTIFY': <class 'gluon.html.BEAUTIFY'>, 'BODY': <class 'gluon.html.BODY'>, 'BR': <class 'gluon.html.BR'>, 'CENTER': <class 'gluon.html.CENTER'>, 'CLEANUP': <class 'gluon.validators.CLEANUP'>, 'CODE': <class 'gluon.html.CODE'>, ...}"
p161
sS'keywords'
p162
S"'blog, weblog, journal, web, log, web2py, pypress...straight-forward, direct, programming, programmer'"
p163
sS'files'
p164
S'[]'
p165
sS'last_posts'
p166
S"[['nn : bayesian classifer', datetime.datetime(2011, 2, 18, 12, 7, 56), <gluon.html.XML object at 0x9d47e6c>], ['cms_home', datetime.datetime(2011, 2, 6, 13, 1, 36), <gluon.html.XML object at 0x9d47f8c>], ['cms_help', datetime.datetime(2011, 2, 6, 13, 1, 36), <gluon.html.XML object at 0x9d47b6c>], ['test', datetime.datetime(2011, 1, 14, 14, 59, 41), <gluon.html.XML object at 0x9d47aac>], ['acknowledgements', datetime.datetime(2011, 1, 2, 10, 41, 29), <gluon.html.XML object at 0x9d47f2c>]]"
p167
sS'title'
p168
S'"molhokwai.net - \'a\' cm/dms"'
p169
sS'home_page'
p170
S"<Row {'post_text_TCode': None, 'post_attributes_...elete_record': <function <lambda> at 0x9d40534>}>"
p171
sS'menu'
p172
S"[['home', False, '/cms/default/page/16'], ['community', False, '/cms/default/page/18']]"
p173
sS'flash'
p174
S"<lazyT 'Blogger api credentials and config data not set in setup.'>"
p175
sS'theme'
p176
S"'cms'"
p177
sS'session_id_name'
p178
S"'session_id_cms'"
p179
sS'_custom_commit'
p180
S'None'
p181
sS'session_filename'
p182
S"'/home/herve/development/workspaces/molhokwai.net...ns/127.0.0.1-a0269e6a-c816-4c2a-bfa7-b84e9f72fe25'"
p183
sg51
S'<cStringIO.StringO object at 0x9d44160>'
p184
sS'description'
p185
S'"molhokwai.net - \'a\' cm/dms, lightweight, simple, straight & direct"'
p186
sS'session_file'
p187
S"<open file '/home/herve/development/workspaces/m...4c2a-bfa7-b84e9f72fe25', mode 'rb+' at 0x9e65380>"
p188
sS'_caller'
p189
S'<function <lambda> at 0x9e7b41c>'
p190
sS'_custom_rollback'
p191
S'None'
p192
sS'pages'
p193
S"[['beliefs', False, '/cms/default/page/15'], ['home', False, '/cms/default/page/16'], ['community', False, '/cms/default/page/18'], ['SMS', False, '/cms/default/page/21'], ['', False, '/cms/default/page/23'], ['help', False, '/cms/default/page/27'], ['themes', False, '/cms/default/page/35'], ['acknowledgements', False, '/cms/default/page/37'], ['cms_home', False, '/cms/default/page/39'], ['cms_help', False, '/cms/default/page/40'], ['nn : bayesian classifer', False, '/cms/default/page/41']]"
p194
sS'categories'
p195
S"[['misc', 2, '/cms/default/category/misc']]"
p196
sS'name'
p197
S'"\'a\' cm/dms"'
p198
sS'auth_users'
p199
S'<gluon.dal.Rows object at 0x9c21e4c>'
p200
sS'help_page'
p201
S"<Row {'post_text_TCode': None, 'post_attributes_...elete_record': <function <lambda> at 0x9d405a4>}>"
p202
sS'session_id'
p203
S"'127.0.0.1-a0269e6a-c816-4c2a-bfa7-b84e9f72fe25'"
p204
sS'headers'
p205
S"<Storage {'Expires': 'Mon, 28 Feb 2011 09:52:50 ...he, must-revalidate, post-check=0, pre-check=0'}>"
p206
sS'status'
p207
S'200'
p208
sS'postprocessing'
p209
S'[]'
p210
sS'base_theme'
p211
S'None'
p212
sS'view'
p213
S"'media/blogger.html'"
p214
ssS'locals'
p215
(dp216
S'protocol'
p217
S"'http'"
p218
sS'app_details'
p219
S'<__builtin__.AppDetails instance at 0x9ecdcac>'
p220
sS'Service'
p221
S"<class 'gluon.tools.Service'>"
p222
sS'OBJECT'
p223
S"<class 'gluon.html.OBJECT'>"
p224
sS'SQLDB'
p225
S"<class 'gluon.dal.DAL'>"
p226
sg136
S"<Storage {'_language': 'en', 'auth': None}>"
p227
sS'LINK'
p228
S"<class 'gluon.html.LINK'>"
p229
sS'BR'
p230
S"<class 'gluon.html.BR'>"
p231
sS'local_import'
p232
S'<function <lambda> at 0x9e6cd14>'
p233
sS'OPTGROUP'
p234
S"<class 'gluon.html.OPTGROUP'>"
p235
sS'expressions'
p236
S'{\'rel_url_and_end_tags_find\': [\'[0-9]{0,1}/[-A-Za-z0-9_\\\\$\\\\.\\\\+\\\\!\\\\*\\\\(\\\\),;:@&=\\\\?/~\\\\#\\\\%]*[^]\\\'\\\\.}>\\\\),\\\\"]\'], \'url_find\': [\'([0-9]{1,3}\\\\.[0-9]{1,3}\\\\.[0-9]{1,3}\\\\.[0-9]{1,3}|...z0-9_\\\\$\\\\.\\\\+\\\\!\\\\*\\\\(\\\\),;:@&=\\\\?/~\\\\#\\\\%]*[^]\\\'\\\\.}>\\\\),\\\\"]\', r\'([0-9]{1,3}\\.[0-9]{1,3}\\.[0-9]{1,3}\\.[0-9]{1,3}|...ww|ftp)[-A-Za-z0-9]*\\.)[-A-Za-z0-9\\.]+)(:[0-9]*)?\', r\'(~/|/|\\./)([-A-Za-z0-9_\\$\\.\\+\\!\\*\\(\\),;:@&=\\?/~\\#\\%]|\\\\)+\', r"\'\\<((mailto:)|)[-A-Za-z0-9\\.]+@[-A-Za-z0-9\\.]+"]}'
p237
sS'SessionManager'
p238
S'<class __builtin__.SessionManager at 0x9e7026c>'
p239
sS'link_labels'
p240
S"{'link_title': 'Name', 'link_url': 'URL'}"
p241
sS'PRE'
p242
S"<class 'gluon.html.PRE'>"
p243
sS'IS_INT_IN_RANGE'
p244
S"<class 'gluon.validators.IS_INT_IN_RANGE'>"
p245
sS'IS_LOWER'
p246
S"<class 'gluon.validators.IS_LOWER'>"
p247
sS'IS_STRONG'
p248
S"<class 'gluon.validators.IS_STRONG'>"
p249
sS'p_home_k'
p250
S"<lazyT '%(app)s_home'>"
p251
sS'Recaptcha'
p252
S"<class 'gluon.tools.Recaptcha'>"
p253
sS'cache'
p254
S'<gluon.cache.Cache object at 0x9d28fcc>'
p255
sS'IS_IN_DB'
p256
S"<class 'gluon.validators.IS_IN_DB'>"
p257
sS'TAG'
p258
S'<gluon.html.__TAG__ object at 0x75994c>'
p259
sS'SQLField'
p260
S"<class 'gluon.dal.Field'>"
p261
sS'BODY'
p262
S"<class 'gluon.html.BODY'>"
p263
sS'IS_DATE_IN_RANGE'
p264
S"<class 'gluon.validators.IS_DATE_IN_RANGE'>"
p265
sS'TH'
p266
S"<class 'gluon.html.TH'>"
p267
sS'URL'
p268
S'<function _URL at 0x9e6cdf4>'
p269
sS'db'
p270
S"<DAL {'auth_event': <Table {'origin': <gluon.dal..., 'id': <gluon.dal.Field object at 0xa08b58c>}>}>"
p271
sS'auth'
p272
S'<gluon.tools.Auth object at 0x9dee88c>'
p273
sS'P'
S"<class 'gluon.html.P'>"
p274
sS'TFOOT'
p275
S"<class 'gluon.html.TFOOT'>"
p276
sS'XHTML'
p277
S"<class 'gluon.html.XHTML'>"
p278
sS'datetime'
p279
S"<module 'datetime' from '/usr/local/lib/python2.5/lib-dynload/datetime.so'>"
p280
sS'app_themes_base_list'
p281
S"['0', '1', 'cms', 'pypress']"
p282
sS'ON'
p283
S'True'
p284
sS'OL'
p285
S"<class 'gluon.html.OL'>"
p286
sS'TEXTAREA'
p287
S"<class 'gluon.html.TEXTAREA'>"
p288
sS'MENU'
p289
S"<class 'gluon.html.MENU'>"
p290
sS'common'
p291
S'<__builtin__.Common instance at 0x9ecdd8c>'
p292
sS'a_convert'
p293
S'<__builtin__.aConvert instance at 0x9ecd10c>'
p294
sS'EM'
p295
S"<class 'gluon.html.EM'>"
p296
sS'CODE'
p297
S"<class 'gluon.html.CODE'>"
p298
sS'HTTP'
p299
S"<class 'gluon.http.HTTP'>"
p300
sS'url_finders'
p301
S'[<_sre.SRE_Pattern object at 0x9d70c48>, <_sre.SRE_Pattern object at 0x9d71370>, <_sre.SRE_Pattern object at 0x9b7c8b8>, <_sre.SRE_Pattern object at 0x9bf6c50>]'
p302
sS'log_wrapped'
p303
S'<function log_wrapped at 0x9b5741c>'
p304
sS'HR'
p305
S"<class 'gluon.html.HR'>"
p306
sS'comment_labels'
p307
S"{'comment_author': 'Name', 'comment_author_email': 'Email', 'comment_author_website': 'Website', 'comment_text': 'Comment', 'post_id': 'Post ID'}"
p308
sS'IS_DATETIME'
p309
S"<class 'gluon.validators.IS_DATETIME'>"
p310
sS'HEAD'
p311
S"<class 'gluon.html.HEAD'>"
p312
sS'LABEL'
p313
S"<class 'gluon.html.LABEL'>"
p314
sS'cat_labels'
p315
S"{'category_name': 'Name'}"
p316
sS'META'
p317
S"<class 'gluon.html.META'>"
p318
sS'print_wrapped'
p319
S'<function print_wrapped at 0x9d4fe2c>'
p320
sS'SELECT'
p321
S"<class 'gluon.html.SELECT'>"
p322
sS'CENTER'
p323
S"<class 'gluon.html.CENTER'>"
p324
sS'prettydate'
p325
S'<function prettydate at 0x9c1fe64>'
p326
sS'Crud'
p327
S"<class 'gluon.tools.Crud'>"
p328
sS'Utilities'
p329
S'<class __builtin__.Utilities at 0x9e7041c>'
p330
sS'Auth'
p331
S"<class 'gluon.tools.Auth'>"
p332
sS'IS_EQUAL_TO'
p333
S"<class 'gluon.validators.IS_EQUAL_TO'>"
p334
sS'IS_LIST_OF'
p335
S"<class 'gluon.validators.IS_LIST_OF'>"
p336
sS'app_themes_list'
p337
S"['0', '1', 'cms', 'pypress', 'test#', 'test1#']"
p338
sS'SQLFORM'
p339
S"<class 'gluon.sqlhtml.SQLFORM'>"
p340
sS'file_labels'
p341
S"{'file': 'File', 'filename': 'Enter file name'}"
p342
sS'LOAD'
p343
S'<gluon.compileapp.LoadFactory object at 0x9cdab6c>'
p344
sS'redirect'
p345
S'<function redirect at 0x317d14>'
p346
sS'FIELDSET'
p347
S"<class 'gluon.html.FIELDSET'>"
p348
sS'__builtins__'
p349
S"{'ArithmeticError': <type 'exceptions.ArithmeticError'>, 'AssertionError': <type 'exceptions.AssertionError'>, 'AttributeError': <type 'exceptions.AttributeError'>, 'BaseException': <type 'exceptions.BaseException'>, 'DeprecationWarning': <type 'exceptions.DeprecationWarning'>, 'EOFError': <type 'exceptions.EOFError'>, 'Ellipsis': Ellipsis, 'EnvironmentError': <type 'exceptions.EnvironmentError'>, 'Exception': <type 'exceptions.Exception'>, 'False': False, ...}"
p350
sS'embed64'
p351
S'<function embed64 at 0x76d5a4>'
p352
sS'INPUT'
p353
S"<class 'gluon.html.INPUT'>"
p354
sS'EMBED'
p355
S"<class 'gluon.html.EMBED'>"
p356
sS'IS_IMAGE'
p357
S"<class 'gluon.validators.IS_IMAGE'>"
p358
sS'H2'
p359
S"<class 'gluon.html.H2'>"
p360
sS'H3'
p361
S"<class 'gluon.html.H3'>"
p362
sS'H1'
p363
S"<class 'gluon.html.H1'>"
p364
sS'H6'
p365
S"<class 'gluon.html.H6'>"
p366
sS'H4'
p367
S"<class 'gluon.html.H4'>"
p368
sS'H5'
p369
S"<class 'gluon.html.H5'>"
p370
sS'UL'
p371
S"<class 'gluon.html.UL'>"
p372
sS'IS_UPPER'
p373
S"<class 'gluon.validators.IS_UPPER'>"
p374
sS'xmlescape'
p375
S'<function xmlescape at 0x757f7c>'
p376
sS'IS_TIME'
p377
S"<class 'gluon.validators.IS_TIME'>"
p378
sS'OPTION'
p379
S"<class 'gluon.html.OPTION'>"
p380
sS'TITLE'
p381
S"<class 'gluon.html.TITLE'>"
p382
sS'CRYPT'
p383
S"<class 'gluon.validators.CRYPT'>"
p384
sS'administrators_emails'
p385
S"['molhokwai@gmail.com', 'herve.mayou@gmail.com']"
p386
sS'IS_EMPTY_OR'
p387
S"<class 'gluon.validators.IS_EMPTY_OR'>"
p388
sS'MARKMIN'
p389
S"<class 'gluon.html.MARKMIN'>"
p390
sS'current_language'
p391
S"'en'"
p392
sS'this_app'
p393
S"'cms'"
p394
sS'AppDetails'
p395
S'<class __builtin__.AppDetails at 0x9d48b0c>'
p396
sS'Struct'
p397
S'<class __builtin__.Struct at 0x9e702fc>'
p398
sS'service'
p399
S'<gluon.tools.Service object at 0x9dee7ec>'
p400
sS'SCRIPT'
p401
S"<class 'gluon.html.SCRIPT'>"
p402
sS'geocode'
p403
S'<function geocode at 0x9c1f87c>'
p404
sS'TABLE'
p405
S"<class 'gluon.html.TABLE'>"
p406
sS'IS_IPV4'
p407
S"<class 'gluon.validators.IS_IPV4'>"
p408
sS'IS_LENGTH'
p409
S"<class 'gluon.validators.IS_LENGTH'>"
p410
sS'XML'
p411
S"<class 'gluon.html.XML'>"
p412
sS'B'
S"<class 'gluon.html.B'>"
p413
sS'IMG'
p414
S"<class 'gluon.html.IMG'>"
p415
sS'SQLTABLE'
p416
S"<class 'gluon.sqlhtml.SQLTABLE'>"
p417
sS'IS_MATCH'
p418
S"<class 'gluon.validators.IS_MATCH'>"
p419
sS'IS_ALPHANUMERIC'
p420
S"<class 'gluon.validators.IS_ALPHANUMERIC'>"
p421
sS'SPAN'
p422
S"<class 'gluon.html.SPAN'>"
p423
sS'IS_SLUG'
p424
S"<class 'gluon.validators.IS_SLUG'>"
p425
sS'CLEANUP'
p426
S"<class 'gluon.validators.CLEANUP'>"
p427
sS'fetch'
p428
S'<function fetch at 0x9c1f7d4>'
p429
sS'IS_DATE'
p430
S"<class 'gluon.validators.IS_DATE'>"
p431
sS'IS_EMAIL'
p432
S"<class 'gluon.validators.IS_EMAIL'>"
p433
sS'IS_NOT_EMPTY'
p434
S"<class 'gluon.validators.IS_NOT_EMPTY'>"
p435
sg47
S"<Storage {'function': 'blogger', 'body': <cStrin... 10, 52, 50, 618336), 'post_vars': <Storage {}>}>"
p436
sS'BEAUTIFY'
p437
S"<class 'gluon.html.BEAUTIFY'>"
p438
sS'TBODY'
p439
S"<class 'gluon.html.TBODY'>"
p440
sS'Field'
p441
S"<class 'gluon.dal.Field'>"
p442
sS'Mail'
p443
S"<class 'gluon.tools.Mail'>"
p444
sS'DIV'
p445
S"<class 'gluon.html.DIV'>"
p446
sS'LEGEND'
p447
S"<class 'gluon.html.LEGEND'>"
p448
sS'post_labels'
p449
S"{'post_category': 'Category', 'post_text': 'Post', 'post_text_TCode': 'Translation code (code & language texts must be set in the translation files)', 'post_time': 'Post Date', 'post_title': 'Title', 'post_type': 'Type', 'show_in_menu': 'Show in menu'}"
p450
sS'global_site_url'
p451
S"'http://localhost:8001'"
p452
sS'json_labels'
p453
S"{'data': <lazyT 'data'>, 'name': <lazyT 'name'>}"
p454
sS'DAL'
p455
S"<class 'gluon.dal.DAL'>"
p456
sS'TT'
p457
S"<class 'gluon.html.TT'>"
p458
sS'TR'
p459
S"<class 'gluon.html.TR'>"
p460
sS'this_app_url'
p461
S"'http://localhost:8001/cms'"
p462
sS'LI'
p463
S"<class 'gluon.html.LI'>"
p464
sS'IFRAME'
p465
S"<class 'gluon.html.IFRAME'>"
p466
sS'TD'
p467
S"<class 'gluon.html.TD'>"
p468
sS'PluginManager'
p469
S"<class 'gluon.tools.PluginManager'>"
p470
sS'IS_URL'
p471
S"<class 'gluon.validators.IS_URL'>"
p472
sS'A'
S"<class 'gluon.html.A'>"
p473
sS'STYLE'
p474
S"<class 'gluon.html.STYLE'>"
p475
sS'rel_url_and_end_tags_finders'
p476
S'[<_sre.SRE_Pattern object at 0x9c925a0>]'
p477
sS'IS_DATETIME_IN_RANGE'
p478
S"<class 'gluon.validators.IS_DATETIME_IN_RANGE'>"
p479
sS'HTML'
p480
S"<class 'gluon.html.HTML'>"
p481
sS'FORM'
p482
S"<class 'gluon.html.FORM'>"
p483
sS'I'
S"<class 'gluon.html.I'>"
p484
sS'crud'
p485
S'<gluon.tools.Crud object at 0x9dee54c>'
p486
sS'utilities'
p487
S'<__builtin__.Utilities instance at 0x9ecdd6c>'
p488
sS'IS_NOT_IN_DB'
p489
S"<class 'gluon.validators.IS_NOT_IN_DB'>"
p490
sS'aConvert'
p491
S'<class __builtin__.aConvert at 0x9e7023c>'
p492
sS'app_config'
p493
S'<Row {\'APP_METAS\': ["\'a\' cm/dms", "molhokwai.net...elete_record\': <function <lambda> at 0x9d4fd14>}>'
p494
sS'Common'
p495
S'<class __builtin__.Common at 0x9e7032c>'
p496
sg146
S"<Storage {'body': <cStringIO.StringO object at 0...da> at 0x9e7b41c>, 'view': 'media/blogger.html'}>"
p497
sS'THEAD'
p498
S"<class 'gluon.html.THEAD'>"
p499
sS'IS_NULL_OR'
p500
S"<class 'gluon.validators.IS_EMPTY_OR'>"
p501
sS'session_manager'
p502
S'<__builtin__.SessionManager instance at 0x9ecdccc>'
p503
sS'i'
S'5'
sS'IS_FLOAT_IN_RANGE'
p504
S"<class 'gluon.validators.IS_FLOAT_IN_RANGE'>"
p505
sS'IS_EXPR'
p506
S"<class 'gluon.validators.IS_EXPR'>"
p507
sS'T'
S'<gluon.languages.translator object at 0x9d28f2c>'
p508
sS'RPXAccount'
p509
S"<class 'gluon.contrib.login_methods.rpx_account.RPXAccount'>"
p510
sS'IS_IN_SET'
p511
S"<class 'gluon.validators.IS_IN_SET'>"
p512
sS'IS_UPLOAD_FILENAME'
p513
S"<class 'gluon.validators.IS_UPLOAD_FILENAME'>"
p514
sS'p_help_k'
p515
S"<lazyT '%(app)s_help'>"
p516
sS're'
p517
S"<module 're' from '/usr/local/lib/python2.5/re.pyc'>"
p518
sS'IS_DECIMAL_IN_RANGE'
p519
S"<class 'gluon.validators.IS_DECIMAL_IN_RANGE'>"
p520
sssS'traceback'
p521
S'Traceback (most recent call last):\n  File "/home/herve/development/workspaces/molhokwai.net/web/gluon/restricted.py", line 188, in restricted\n    exec ccode in environment\n  File "/home/herve/development/workspaces/molhokwai.net/web/applications/cms/views/media/blogger.html", line 1, in <module>\n    {{if not nake:}}\nNameError: name \'nake\' is not defined\n'
p522
s.