(dp1
S'output'
p2
S'Unable to open included view file: /home/herve/development/workspaces/molhokwai.net/web/applications/cms/views/themes/None/layout.html'
p3
sS'layer'
p4
S'ParserContainer'
p5
sS'code'
p6
S'{{if not nake:}}\n    {{extend \'themes/%s/layout.html\' % response.theme}}\n{{pass}}\n\n<div class="page">\n\n    {{if post:}}\n        {{if post.is_translated:}}\n            {{include "utilities/language_choice_bar.html"}}\n        {{pass}}\n        <h2 class="nav"><em>{{=T("you are here")}}:</em> {{=post.post_title}}</h2>\n        \n        {{if post.is_translated:}}\n            {{=XML(T(post.post_text_TCode))}}\n        {{else:}}\n            {{=XML(post.post_text)}}\n        {{pass}}\n        \n        {{if post.post_posts:}}\n            {{Pr=P(T(\'related entries:\'))}}\n            {{for p in post.post_posts:}}\n                {{Pr.append(A(T(p.post_title), _href=URL(r=request, f=\'post\', args=[p.id])))}}\n            {{pass}}\n            {{=Pr}}\n        {{pass}}\n        \n        \n        {{if session.authorized:}}<a href="/{{=request.application}}/default/edit/page/{{=post.id}}" class="color-transparent">{{=T("Edit this entry")}}.</a>{{pass}}\n    {{else:}}\n        {{=T(\'No entry found...\')}}\n    {{pass}}\n    \n</div>\n'
p7
sS'snapshot'
p8
(dp9
S'exception'
p10
(dp11
S'__hash__'
p12
S"<method-wrapper '__hash__' of exceptions.IOError object at 0x9e096ec>"
p13
sS'__setattr__'
p14
S"<method-wrapper '__setattr__' of exceptions.IOError object at 0x9e096ec>"
p15
sS'__reduce_ex__'
p16
S'<built-in method __reduce_ex__ of exceptions.IOError object at 0x9e096ec>'
p17
sS'__getslice__'
p18
S"<method-wrapper '__getslice__' of exceptions.IOError object at 0x9e096ec>"
p19
sS'__getitem__'
p20
S"<method-wrapper '__getitem__' of exceptions.IOError object at 0x9e096ec>"
p21
sS'__setstate__'
p22
S'<built-in method __setstate__ of exceptions.IOError object at 0x9e096ec>'
p23
sS'__reduce__'
p24
S'<built-in method __reduce__ of exceptions.IOError object at 0x9e096ec>'
p25
sS'__str__'
p26
S"<method-wrapper '__str__' of exceptions.IOError object at 0x9e096ec>"
p27
sS'args'
p28
S"(2, 'No such file or directory')"
p29
sS'__getattribute__'
p30
S"<method-wrapper '__getattribute__' of exceptions.IOError object at 0x9e096ec>"
p31
sS'__class__'
p32
S"<type 'exceptions.IOError'>"
p33
sS'filename'
p34
S"'/home/herve/development/workspaces/molhokwai.net/web/applications/cms/views/themes/None/layout.html'"
p35
sS'__delattr__'
p36
S"<method-wrapper '__delattr__' of exceptions.IOError object at 0x9e096ec>"
p37
sS'strerror'
p38
S"'No such file or directory'"
p39
sS'__repr__'
p40
S"<method-wrapper '__repr__' of exceptions.IOError object at 0x9e096ec>"
p41
sS'errno'
p42
S'2'
sS'__dict__'
p43
S'{}'
p44
sS'__doc__'
p45
S"'I/O operation failed.'"
p46
sS'__init__'
p47
S"<method-wrapper '__init__' of exceptions.IOError object at 0x9e096ec>"
p48
sS'__new__'
p49
S'<built-in method __new__ of type object at 0x82395c0>'
p50
ssS'evalue'
p51
S"[Errno 2] No such file or directory: '/home/herve/development/workspaces/molhokwai.net/web/applications/cms/views/themes/None/layout.html'"
p52
sS'frames'
p53
(lp54
(dp55
S'file'
p56
S'/home/herve/development/workspaces/molhokwai.net/web/gluon/template.py'
p57
sS'dump'
p58
(dp59
S'builtinopen'
p60
S'<built-in function open>'
p61
sS'fileobj'
p62
S'undefined'
p63
sS'filepath'
p64
S"'/home/herve/development/workspaces/molhokwai.net/web/applications/cms/views/themes/None/layout.html'"
p65
ssS'lnum'
p66
I435
sS'lines'
p67
(dp68
I430
S'        # Get the path of the file on the system.'
p69
sI431
S'        filepath = os.path.join(self.path, filename)'
p70
sI432
S''
sI433
S'        # Lets try to read teh text.'
p71
sI434
S'        try:'
p72
sI435
S"            fileobj = open(filepath, 'rb')"
p73
sI436
S''
sI437
S'            text = fileobj.read()'
p74
sI438
S''
sI439
S'            fileobj.close()'
p75
ssS'call'
p76
S"(self=<gluon.template.TemplateParser object at 0x9e2e2ac>, filename='themes/None/layout.html')"
p77
sS'func'
p78
S'_get_file_text'
p79
sasS'pyver'
p80
S'Python 2.5.1: /usr/local/bin/python'
p81
sS'etype'
p82
S"<type 'exceptions.IOError'>"
p83
sS'date'
p84
S'Sun Feb  6 15:04:50 2011'
p85
sS'locals'
p86
(dp87
S'self'
p88
S'<gluon.template.TemplateParser object at 0x9e2e2ac>'
p89
sS'filepath'
p90
S"'/home/herve/development/workspaces/molhokwai.net/web/applications/cms/views/themes/None/layout.html'"
p91
sg34
S"'themes/None/layout.html'"
p92
sssS'traceback'
p93
S'Traceback (most recent call last):\n  File "/home/herve/development/workspaces/molhokwai.net/web/gluon/template.py", line 435, in _get_file_text\n    fileobj = open(filepath, \'rb\')\nIOError: [Errno 2] No such file or directory: \'/home/herve/development/workspaces/molhokwai.net/web/applications/cms/views/themes/None/layout.html\'\n'
p94
s.