(dp1
S'output'
p2
S''
sS'layer'
p3
S'/home/herve/development/workspaces/molhokwai.net/web/applications/cms/controllers/default.py'
p4
sS'code'
p5
S'###################################\n## CONTROLLER INITIALIZATION\n###################################\ntry:\n    exec(\'from applications.%s.modules import common\' % this_app)\n    app_objects=Struct(**{\'details\':app_details,\'config\':app_config,\'log_wrapped\':log_wrapped,\'utilities\':utilities})\n    page_helper, post_helper = common.controller_init(request, response, session, cache, T, db, auth, app_objects)\nexcept Exception, ex:\n    log_wrapped(\'Er\', ex)\n\n\n###################################\n## CONTROLLER FUNCTIONS\n###################################\n\n# The main page\n# Shows the home page if one created (see \'home_page\' function page with title)\n# Otherwise, defaults to showing the first 10 posts\ndef index():\n    if len(request.args)==0:\n        if response.home_page:\n            redirect(URL(r=request, c=\'default\', f=\'page\', args=[response.home_page.id]))\n        else:\n            redirect(URL(r=request, c=\'setup\'))\n    else:\n      if a_convert.to_int(request.args[0]):\n          return dict(posts = db(db.posts.id == int(request.args[0])).select())\n      else:\n          posts=db(db.posts.post_title == request.args[0]).select()\n          if not posts:\n              posts = filter(lambda x: x.post_title.lower().find(request.args[0].lower())>0,response.posts)\n          return dict(posts = posts)          \n      \n\n# The post page\n# Shows the entire post, the comments, and the comment form\ndef post():\n    #try: \n    post_id = int(request.args[0])\n    post = db(db.posts.id == post_id).select()[0]\n    \n    if post and post.auth_requires_login and not auth.user:\n        redirect(URL(r = request, f = \'user\', args = [\'login\']))\n\n    comments = db(db.comments.post_id == post_id).select(db.comments.ALL)\n    comment_count = len(db(db.comments.post_id == post_id).select(db.comments.ALL))\n    db.comments.post_id.default = post_id\n    comment_form = SQLFORM(db.comments, fields = [\'comment_author\', \'comment_author_email\', \'comment_author_website\', \'comment_text\'], labels = comment_labels)\n        \n    if comment_form.accepts(request.vars, session):\n        session.flash = T("Comment added.")\n        redirect(URL(r = request,f = \'post/%i\' % post_id ))\n\n    return dict(post = post, comments = comments, comment_form = comment_form, comment_count = comment_count)\n    #except: \n    #    redirect(URL(r = request,f = \'index\'))\n\n# The page page\n# Shows the entire page. Does not show comments or the comment form\ndef page():\n    try:\n        if len(request.args)>0:\n            post=\'\'\n            if a_convert.to_int(request.args[0]):\n                post = db(db.posts.id == int(request.args[0])).select()[0]\n            else:\n                post = db(db.posts.post_title == request.args[0]).select()\n                if not post:\n                    pg = filter(lambda x: x[0].lower().find(request.args[0].lower())>=0, response.pages)\n                    if not pg:\n                      # fix for _ replacing space in url\n                      pg = filter(lambda x: x[0].lower().find(request.args[0].replace(\'_\', \' \').lower())>=0, response.pages)\n                    if pg and len(pg)>0: pg = pg[0]\n                    post = db(db.posts.id == int(pg[2].replace(\'/%s/default/page/\' % this_app, \'\'))).select()\n                if post: post = post[0]\n                \n            if post and post.auth_requires_login and not auth.user:\n                redirect(URL(r = request, f = \'user\', args = [\'login\']))\n            \n            nake=(request.args[len(request.args)-1]==\'nake\'\n                 or post.post_text.find(\'<!-- nake page -->\')>=0)\n        \n            return dict(post = post, nake  = nake)\n        else:\n            redirect(URL(r = request,f = \'index\'))\n            \n    except Exception, ex: \n        log_wrapped(\'Error\', str(ex))\n        session.flash=T("(Caught) Error occured: %(err)s ", dict(err=str(ex)))\n        redirect(URL(r = request,f = \'index\'))\n\n# The pages page\n# Shows links to all pages\ndef pages():\n    return dict(manage_title=T("pages"))\n\n# The category page\n# Shows all the posts in the requested category\ndef category():\n    def fp(p): return p.post_type==\'post\'\n    try:\n        cat_name = request.args[0]\n        cat = db(db.categories.category_name == cat_name\n                    ).select(db.categories.ALL)[0]\n        posts=[]\n        try:\n            posts = db((db.posts.post_type == \'post\') &\n                       (db.posts.post_category == cat.id) &\n                        ((db.posts.application == request.application) | \n                        (db.posts.application == None))\n                       ).select(db.posts.ALL) ## , orderby=~db.posts.post_time\n        except Exception, ex:\n            posts = db((db.posts.post_type == \'post\') &\n                       (db.posts.post_category == cat.id)\n                       ).select(db.posts.ALL) ## , orderby=~db.posts.post_time\n        filter(fp,posts)\n\n        response.sidebar_note = T("You are currently browsing the archives for the %(cat_name)s category.",dict(cat_name=cat_name))\n        return dict(posts = posts)\n    except:\n        redirect(URL(r = request,f = \'index\'))\n\n@auth.requires_login()\ndef add():\n    try:\n        area = request.args[0]\n\n        if area == "post":\n            db.posts.post_type.default = \'post\'\n            page_form = SQLFORM(db.posts, fields = [\'post_title\', \'post_text\', \'application\', \n                                                    \'post_category\', \'is_translated\', \'auth_requires_login\'], \n                                                    labels = post_labels)\n            page_form.append(INPUT(_type=\'checkbox\', \n                                    _name=\'post_attributes_content_is_original\', \n                                    _id=\'post_attributes_content_is_original\', value=\'\'))\n            page_title = T("Add Post")\n            \n            if page_form.accepts(request.vars, session):\n                tcode="post_id_"+str(page_form.vars.id)\n                from gluon.contrib import simplejson\n                _json=simplejson.loads(request.vars.post_attributes_json)\n                _json[\'content_is\'][\'original\']=request.vars.post_attributes_content_is_original==\'on\'\n                pg=db(db.posts.id==page_form.vars.id).update(\n                                                post_text_TCode=tcode,\n                                                post_attributes_json=simplejson.dumps(_json))\n                ## FEATURE REQUEST: to add the translation code if not existing\n                T(tcode)\n                session.flash = T("Post added.")\n                redirect(URL(r = request,f = \'post/%i\' % page_form.vars.id))\n        \n        elif area == "page":\n            db.posts.post_type.default = \'page\'\n            page_form = SQLFORM(db.posts, fields = [\'post_title\', \'post_text\', \'application\',\n                                                    \'show_in_menu\', \'is_translated\'], \n                                                    labels = post_labels)\n            page_form.append(INPUT(_type=\'checkbox\', _name=\'post_attributes_content_is_original\', \n                                                    _id=\'post_attributes_content_is_original\', value=\'\'))\n            page_title = T("Add Page")\n            \n            if page_form.accepts(request.vars, session):\n                tcode="page_id_"+str(page_form.vars.id)\n                from gluon.contrib import simplejson\n                _json=simplejson.loads(request.vars.post_attributes_json)\n                _json[\'content_is\'][\'original\']=request.vars.post_attributes_content_is_original==\'on\'\n                pg=db(db.posts.id==page_form.vars.id).update(\n                                                post_text_TCode=tcode,\n                                                post_attributes_json=simplejson.dumps(_json)\n                                            )\n                ## FEATURE REQUEST: to add the translation code if not existing\n                T(tcode)\n                session.flash = T("Page added.")\n                redirect(URL(r = request,f = \'page/%i\' % page_form.vars.id))          \n                \n        else:\n            redirect(URL(r = request,f = \'index\'))\n            \n        return dict(page_title = page_title, page_form = page_form)\n    except Exception, ex:\n        session.flash=T("Error occured: %(err)s ", dict(err=str(ex)))\n        redirect(URL(r = request,f = \'index\'))\n\n@auth.requires_login()\ndef edit():\n    this_item=None\n    area=None\n    id=None\n    # p_a_c_i_o_val : page attr. content is orginal value\n    p_a_c_i_o_val=None\n    try:\n        area = request.args[0]\n        id = int(request.args[1])\n        this_item = db(db.posts.id == id).select()[0]\n    except Exception, ex:\n        session.flash=T("Error occured: %(err)s ", dict(err=str(ex)))\n        redirect(URL(r = request,f = \'index\'))\n\n    try:\n        from gluon.contrib import simplejson\n        _json=simplejson.loads(this_item.post_attributes_json)\n        p_a_c_i_o_val=\'on\' if _json[\'content_is\'][\'original\'] else \'\'\n    except Exception, ex:\n        session.flash=T("(Minor) Error occured: %(err)s ", dict(err=str(ex)))\n    \n    if area == \'post\':\n        edit_form = SQLFORM(db.posts, this_item, fields = [\'post_title\', \'post_text\', \'application\', \'post_text_TCode\', \n                                                            \'post_category\', \'is_translated\', \'auth_requires_login\'], \n                                                            deletable=True, labels = post_labels)\n        edit_form.append(INPUT(_type=\'checkbox\', _name=\'post_attributes_content_is_original\', \n                                                _id=\'post_attributes_content_is_original\', value=p_a_c_i_o_val))\n        edit_title = T("Edit Post")\n    \n        if edit_form.accepts(request.vars, session):\n            if request.vars.delete_this_record==\'on\':\n                session.flash = T("Post deleted.")\n                redirect(URL(r = request,f = \'index/posts\'))\n            else:    \n                _json[\'content_is\'][\'original\']=request.vars.post_attributes_content_is_original==\'on\'\n                db(db.posts.id==id).update(post_attributes_json=simplejson.dumps(_json))\n                session.flash = T("Post updated.")\n                redirect(URL(r = request,f = \'post/%s\' %id))\n\n    elif area == \'page\':\n        this_item = db(db.posts.id == id).select()[0]\n        edit_form = SQLFORM(db.posts, this_item, fields = [\'post_title\', \'post_text\', \'application\', \'post_text_TCode\', \n                                                            \'is_translated\', \'show_in_menu\'], \n                                                            deletable=True, labels = post_labels)\n        edit_form.append(INPUT(_type=\'checkbox\', _name=\'post_attributes_content_is_original\', \n                                                 _id=\'post_attributes_content_is_original\', value=p_a_c_i_o_val))\n        edit_title = T("Edit Page")\n    \n        if edit_form.accepts(request.vars, session):\n            if request.vars.delete_this_record==\'on\':\n                session.flash = T("Page deleted.")\n                redirect(URL(r = request,f = \'pages\'))\n            else:\n                try:\n                    _json[\'content_is\'][\'original\']=request.vars.post_attributes_content_is_original==\'on\'\n                    db(db.posts.id==id).update(post_attributes_json=simplejson.dumps(_json))\n                    session.flash = T("Page updated.")\n                except Exception, ex:\n                    session.flash=T("(Minor) Error occured: %(err)s ", dict(err=str(ex)))\n                finally:\n                    redirect(URL(r = request,f = \'page/%s\' %id))\n                        \n    else:\n        redirect(URL(r = request,f = \'index\'))\n    \n    return dict(edit_form = edit_form, edit_title = edit_title, post=this_item)\n\n        \n@auth.requires_login()\ndef manage():\n\n    area = None\n    if len(request.args)>0:\n        area = request.args[0]\n    else:\n        area = \'post\'\n    \n    try: command = request.args[1]\n    except: command = ""\n        \n    if area == \'page\':\n        redirect(URL(r = request, f=\'pages\'))\n    \n    elif area == \'post\':\n        rows = db(db.posts.post_type == \'post\').select(db.posts.ALL)\n        manage_title = T(\'Manage Posts\')\n\n        if command == \'add\':\n            edit_form = SQLFORM(db.posts, labels = post_labels)\n            \n            if edit_form.accepts(request.vars, session):\n                session.flash = T("Post added")\n                redirect(URL(r = request, f = \'manage/post\'))\n            else:\n                session.flash = T("Error")\n       \n        elif command == \'edit\':\n            try: id = request.args[2]\n            except: id = ""\n            \n            if id != \'\':\n                this_post = db(db.posts.id == id).select()[0]\n                edit_form = SQLFORM(db.posts, this_post)\n                \n                if edit_form.accepts(request.vars, session):\n                    session.flash = T("Post updated")\n                    redirect(URL(r = request, f = \'manage\', args=[\'post\']))\n                else:\n                    session.flash=T("(Caught) Error occured")\n                    \n        elif command == \'delete\':\n            try: id = request.args[2]\n            except: id = ""\n            \n            if id != \'\':\n                db(db.posts.id == id).delete()\n                session.flash = T("Post deleted")\n                redirect(URL(r = request, f = \'index\'))\n        else:\n            edit_form = \'\'\n\n        return dict(rows = rows, manage_title = manage_title, manage_text=\'\', edit_form = edit_form, area = area)\n    \n    elif area == \'link\':\n        rows = db().select(db.links.ALL)\n        manage_title = T(\'Manage Links\')\n\n        if command == \'add\':\n            edit_form = SQLFORM(db.links, labels = link_labels)\n            \n            if edit_form.accepts(request.vars, session):\n                session.flash = T("Link added")\n                redirect(URL(r = request, f = \'manage\', args=[\'link\']))\n            else:\n                session.flash=T("(Caught) Error occured")\n       \n        elif command == \'edit\':\n            try: id = request.args[2]\n            except: id = ""\n            \n            if id != \'\':\n                this_link = db(db.links.id == id).select()[0]\n                edit_form = SQLFORM(db.links, this_link)\n                \n                if edit_form.accepts(request.vars, session):\n                    session.flash = T("Link updated")\n                    redirect(URL(r = request, f = \'manage\', args=[\'link\']))\n                else:\n                    session.flash=T("(Caught) Error occured")\n        \n        elif command == \'delete\':\n            try: id = request.args[2]\n            except: id = ""\n            \n            if id != \'\':\n                db(db.links.id == id).delete()\n                session.flash = T("Link deleted")\n                redirect(URL(r = request, f = \'manage/link\'))\n        else:\n            edit_form = \'\'\n            \n        return dict(rows = rows, manage_title = manage_title, manage_text=\'\', edit_form = edit_form, area = area)\n    \n    elif area == \'category\':\n        rows = db().select(db.categories.ALL)\n        manage_title = T(\'Manage Categories\')\n       \n        if command == \'add\':\n            edit_form = SQLFORM(db.categories, labels = cat_labels)\n            \n            if edit_form.accepts(request.vars, session):\n                session.flash = T("Category added")\n                redirect(URL(r = request, f = \'manage/category\'))\n        \n        elif command == \'edit\':\n            try: id = request.args[2]\n            except: id = ""\n            \n            if id != \'\':\n                this_cat = db(db.categories.id == id).select()[0]\n                edit_form = SQLFORM(db.categories, this_cat)\n                \n                if edit_form.accepts(request.vars, session):\n                    session.flash = T("Category updated")\n                    redirect(URL(r = request, f = \'manage\', args=[\'category\']))\n                else:\n                    session.flash=T("(Caught) Error occured")\n        \n        elif command == \'delete\':\n            try: id = request.args[2]\n            except: id = ""\n            \n            if id != \'\':\n                db(db.categories.id == id).delete()\n                session.flash = T("Category deleted")\n                redirect(URL(r = request, f = \'manage/category\'))\n        \n        else:\n            edit_form = \'\'\n\n        return dict(rows = rows, manage_title = manage_title, manage_text=\'\', edit_form = edit_form, area = area)        \n    \n    elif area == \'theme\':\n        record = None\n        form = \'\'\n        manage_title = T(\'Manage Child Theme\')\n        manage_text = T(\'The theme inherits styles from the parent theme chosen, and sets its specific by hot linking to the stylesheet url given, overwriting parent\\\' style, and/or creating new ones.\')\n        \n        if len(request.args)>1:\n            name = request.args[1]\n            theme = utilities.get_from_app_themes(name)\n            if theme:\n                if  theme.find(utilities.theme_sep_token)>0:\n                    db.app_themes.id.default = -10\n                    db.app_themes.theme_name.default = name\n                    db.app_themes.theme_base.default = utilities.get_from_theme(\'base\', name=None, theme=theme)\n                    db.app_themes.theme_stylesheet_url.default = utilities.get_from_theme(\'stylesheet\', name=None, theme=theme)\n                else:\n                    response.flash = T(\'Base themes are not editable\')\n            else:\n                response.flash = T(\'Theme not found\')\n\n        db.app_themes.theme_editor.default = auth.user.email\n\n        form = SQLFORM(db.app_themes, deletable=True)\n        if form.accepts(request.vars, session, dbio = False):\n            def get_theme(f_v):\n                return (\'%(name)s%(token)s%(base)s%(token)s%(stylesheet)s%(token)s%(author)s\' % \n                        dict(\n                           name=f_v.theme_name,base=f_v.theme_base,\n                           stylesheet=f_v.theme_stylesheet_url,\n                           author=auth.user.email,token=utilities.theme_sep_token)\n                )\n            theme = None\n            error = False\n            for i in range(len(app_config.APP_THEMES)):\n                t = utilities.get_from_theme(\'name\', theme=app_config.APP_THEMES[i])\n                if t == form.vars.theme_name:\n                    if (utilities.get_from_theme(\'author\', theme=app_config.APP_THEMES[i]) !=auth.user.email\n                        and utilities.get_from_theme(\'stylesheet\', theme=app_config.APP_THEMES[i]) !=form.vars.theme_stylesheet_url):\n                        response.flash = T(\'This theme name is already in use.\')\n                        error = True\n                    else:\n                        app_config.APP_THEMES[i] = get_theme(form.vars)\n                        theme = t\n                        \n            if not theme and not error:\n                theme = get_theme(form.vars)\n                app_config.APP_THEMES.append(theme)\n                \n            if theme:\n                db(db.app_config.id == app_config.id).update(APP_THEMES = app_config.APP_THEMES)\n                session.flash = T(\'Theme saved. Click here to test it: %(url)s\', \n                                dict(url=A(T(\'test %s\' % form.vars.theme_name), \n                                _href=URL(r = request, args=request.args, vars=dict(theme=form.vars.theme_name))))\n                                )\n                redirect(URL(r = request, args = [request.args[0], form.vars.theme_name]))\n    \n        return dict(edit_form = form, manage_title=manage_title, manage_text=manage_text)\n        \n    else:\n        redirect(URL(r = request,f = \'index\'))\n\ndef error():\n    ticket=\'\'\n    code=\'\'\n    requested_uri=\'\'\n    err=\'\'\n\n    try:\n        ticket=request.vars.ticket\n        if ticket == \'None\': ticket=None\n        \n        code=request.vars.code\n        if code == \'None\': code=None\n        \n        requested_uri=request.vars.requested_uri\n        if requested_uri == \'None\': requested_uri=None\n    except Exception, ex:\n        err=str(ex)\n        session.flash=T("Error occured: %(err)s ", dict(err=str(ex)))\n        \n    return dict(ticket=ticket, code=code, requested_uri=requested_uri, err=err)\n\n@auth.requires_login()\ndef upload():\n    form=SQLFORM(db.files, fields=[\'file\'])\n    if \'file in \'request.post.vars:\n        form.vars.filename = request.vars.file.filename\n        form.vars.user = auth.user.id\n    if form.accepts(request.vars): \n        response.flash=\'File uploaded\'\n    return dict(form=form)\n\n@auth.requires_login()\ndef files():\n    db(db.files.id>0).update(user = auth.user.id)\n    if \'del\' in request.get_vars:\n        db((db.files.user==auth.user.id)&(db.files.id==request.get_vars[\'del\'])).delete()\n        redirect(URL(r=request,c=\'default\',f=\'files\'))\n    elif \'ren\' in request.get_vars and request.get_vars[\'new\'] != \'null\':\n        file = db((db.files.user==auth.user.id)&(db.files.id==request.get_vars[\'ren\'])).select()[0]\n        if request.get_vars[\'new\'].find(\'.\') == -1:\n            filename = request.get_vars[\'new\'] + \'.\' + file.filename.split(\'.\').pop()\n        else:\n            filename = request.get_vars[\'new\']\n        db(db.files.id==file.id).update(filename=filename)\n        redirect(URL(r=request,c=\'default\',f=\'files\'))\n    files=db(db.files.id>0).select(orderby=db.files.filename)\n    return dict(files=files)\n\ndef file():\n    file = db(db.files.filename==request.args[0]).select()\n    if len(file) > 0:\n        request.args[0] = file[0].file\n        return response.download(request,db)\n    else:\n        return\n\ndef json():\n    area=request.args[0]    \n    return response.json({\n        \'status\' : 1,\n        \'message\' : \'done\',\n        \'result\' : {\n            \'pages\' : lambda x: db(db.posts.post_type==\'page\').select(),\n            \'themes\' : lambda x: app_config.APP_THEMES\n        }.get(request.args[0], None)(request.args[0])\n    })\n    \ndef user():\n    """\n    exposes:\n    http://..../[app]/default/user/login \n    http://..../[app]/default/user/logout\n    http://..../[app]/default/user/register\n    http://..../[app]/default/user/profile\n    http://..../[app]/default/user/retrieve_password\n    http://..../[app]/default/user/change_password\n    use @auth.requires_login()\n        @auth.requires_membership(\'group name\')\n        @auth.requires_permission(\'read\',\'table name\',record_id)\n    to decorate functions that need access control\n    """\n    if request.args[0]==\'logout\':\n        session.user_authorization_done=False\n    if auth.user and request.vars.next:\n        redirect(request.vars.next)\n    return dict(form=auth())\n\n\n@auth.requires_login()\ndef app_admin():\n    area=request.args[0]\n    if area==\'auth_user\':\n        form=SQLFORM(db.auth_user,response.anon_user,fields=[\'display_name\',\'email\'])\n        if request.post_vars.email:\n            auth.user.email=request.vars.email\n            \n            if (request.vars.email==response.anon_user.email and\n                request.vars.display_name==response.anon_user.display_name):\n                if form.accepts(request.vars,session):\n                    session.flash =T("Update done.")\n                    redirect(URL(r = request,f=\'index\'))\n                else:\n                    db.auth_user.insert(registration_id=auth.user.registration_id,\n                                        email=request.vars.email,\n                                        display_name=request.vars.display_name)\n                    session.flash =T("Data successfully saved.")\n                    redirect(URL(r = request,f=\'index\'))\n        return dict(form=form,area=area)\n    if area==\'user\':\n        if auth.user:\n            if auth.user.is_admin:\n                _fields=[\'registration_id\',\'display_name\',\'email\',\'is_admin\']\n            else:\n                _fields=[\'display_name\',\'email\']\n                \n            form=None\n            usr=None\n            if len(request.args)>1 and len(request.args[1])>0:\n                usr=db(db.auth_user.id==request.args[1]).select()\n                if len(usr)>0:usr=usr[0]\n                else:\n                    session.flash=\'User not found.\'\n                    redirect(URL(r=request,f=\'app_admin/user/\'))\n                form=SQLFORM(db.auth_user,usr,fields=_fields,deletable=True)\n                if form.accepts(request.vars,session):\n                    if request.vars.delete_this_record==\'on\':\n                        response.flash=T(\'User deleted.\')\n                    else:\n                        response.flash=T(\'User updated.\')\n                _form_title=T("edit user")\n            else:\n                form=SQLFORM(db.auth_user,fields=_fields)\n                if form.accepts(request.vars,session):\n                    session.flash=\'User created.\'\n                    redirect(URL(r=request,f=\'app_admin/user/%(id)i\' % form.vars.id))\n                _form_title=T("create user")\n            return dict(form=form,area=area,form_title=_form_title)\n        else:            \n            response.flash=T(\'woooups... not allowed\')\n            return dict(form=\'...\',area=area,form_title=\'...\')\n\ndef download():\n    import os\n    return response.stream(open(os.path.join(request.folder,\'uploads\',request.args[0]),\'rb\'))\n\n@auth.requires_login()\ndef do_stuff():\n    log_wrapped(\'1\', 1)\n    if request.args[0] in [\'posts_app\', \'links_app\']:\n        log_wrapped(\'2\', 2)\n        instance=db.posts if request.args[0]==\'posts_app\' else db.links\n        _ids=request.args[1].split(\',\')\n        log_wrapped(\'_ids\', _ids)\n        for i in range(len(_ids)):\n            try:\n                db(instance.id == int(_ids[i])).update(application=request.application)\n            except Exception, ex:\n                pass\n        session.flash=T(\'%(inst)s application updated.\', dict(inst=str(instance)))\n    \n    redirect(URL(r = request,f = \'index\'))\n\nresponse._vars=response._caller(error)\n'
p6
sS'snapshot'
p7
(dp8
S'exception'
p9
(dp10
S'__getslice__'
p11
S"<method-wrapper '__getslice__' of exceptions.SyntaxError object at 0x93ec64c>"
p12
sS'text'
p13
S'"    if \'file in \'request.post.vars:\\n"'
p14
sS'__str__'
p15
S"<method-wrapper '__str__' of exceptions.SyntaxError object at 0x93ec64c>"
p16
sS'__reduce__'
p17
S'<built-in method __reduce__ of exceptions.SyntaxError object at 0x93ec64c>'
p18
sS'__dict__'
p19
S'{}'
p20
sS'__init__'
p21
S"<method-wrapper '__init__' of exceptions.SyntaxError object at 0x93ec64c>"
p22
sS'__setattr__'
p23
S"<method-wrapper '__setattr__' of exceptions.SyntaxError object at 0x93ec64c>"
p24
sS'__reduce_ex__'
p25
S'<built-in method __reduce_ex__ of exceptions.SyntaxError object at 0x93ec64c>'
p26
sS'__new__'
p27
S'<built-in method __new__ of type object at 0x8239bc0>'
p28
sS'__class__'
p29
S"<type 'exceptions.SyntaxError'>"
p30
sS'filename'
p31
S"'/home/herve/development/workspaces/molhokwai.net/web/applications/cms/controllers/default.py'"
p32
sS'lineno'
p33
S'470'
p34
sS'msg'
p35
S"'invalid syntax'"
p36
sS'__doc__'
p37
S"'Invalid syntax.'"
p38
sS'__getitem__'
p39
S"<method-wrapper '__getitem__' of exceptions.SyntaxError object at 0x93ec64c>"
p40
sS'__setstate__'
p41
S'<built-in method __setstate__ of exceptions.SyntaxError object at 0x93ec64c>'
p42
sS'__getattribute__'
p43
S"<method-wrapper '__getattribute__' of exceptions.SyntaxError object at 0x93ec64c>"
p44
sS'print_file_and_line'
p45
S'None'
p46
sS'args'
p47
S'(\'invalid syntax\', (\'/home/herve/development/workspaces/molhokwai.net/web/applications/cms/controllers/default.py\', 470, 24, "    if \'file in \'request.post.vars:\\n"))'
p48
sS'offset'
p49
S'24'
p50
sS'__delattr__'
p51
S"<method-wrapper '__delattr__' of exceptions.SyntaxError object at 0x93ec64c>"
p52
sS'__repr__'
p53
S"<method-wrapper '__repr__' of exceptions.SyntaxError object at 0x93ec64c>"
p54
sS'__hash__'
p55
S"<method-wrapper '__hash__' of exceptions.SyntaxError object at 0x93ec64c>"
p56
ssS'evalue'
p57
S'invalid syntax (default.py, line 470)'
p58
sS'request'
p59
(dp60
S'function'
p61
S"'error'"
p62
sS'body'
p63
S'<cStringIO.StringO object at 0x93e6ae0>'
p64
sS'wsgi'
p65
S"<Storage {'start_response': <function <lambda> a...ING': 'gzip,deflate', 'HTTP_KEEP_ALIVE': '115'}}>"
p66
sS'extension'
p67
S"'html'"
p68
sS'vars'
p69
S"<Storage {'ticket': 'cms/127.0.0.1.2011-03-03.17...: '/cms/default/error', 'requested_uri': 'None'}>"
p70
sS'cid'
p71
S'None'
p72
sS'url'
p73
S'<gluon.html.XML object at 0x93e6bec>'
p74
sS'raw_extension'
p75
S'None'
p76
sg47
S'[]'
p77
sS'controller'
p78
S"'default'"
p79
sS'cookies'
p80
S"<SimpleCookie: blogger_languages='fr' session_id...9852-45da-4d7d-aef8-31d52158e831' theme='ff0000'>"
p81
sS'application'
p82
S"'cms'"
p83
sS'ajax'
p84
S'False'
p85
sS'client'
p86
S"'127.0.0.1'"
p87
sS'env'
p88
S"<Storage {'wsgi_multithread': True, 'http_accept...nput': <socket._fileobject object at 0x9661e64>}>"
p89
sS'raw_args'
p90
S'None'
p91
sS'get_vars'
p92
S"<Storage {'ticket': 'cms/127.0.0.1.2011-03-03.17...: '/cms/default/error', 'requested_uri': 'None'}>"
p93
sS'folder'
p94
S"'/home/herve/development/workspaces/molhokwai.net/web/applications/cms/'"
p95
sS'now'
p96
S'datetime.datetime(2011, 3, 3, 17, 7, 15, 3522)'
p97
sS'post_vars'
p98
S'<Storage {}>'
p99
ssS'frames'
p100
(lp101
(dp102
S'file'
p103
S'/home/herve/development/workspaces/molhokwai.net/web/gluon/restricted.py'
p104
sS'dump'
p105
(dp106
S'code'
p107
S'"###################################\\n## CONTROLLE...index\'))\\n\\nresponse._vars=response._caller(error)\\n"'
p108
sS'layer'
p109
S"'/home/herve/development/workspaces/molhokwai.net/web/applications/cms/controllers/default.py'"
p110
sS'global compile2'
p111
S'<function compile2 at 0x8cf3534>'
p112
sS'ccode'
p113
S'undefined'
p114
ssS'lnum'
p115
I186
sS'lines'
p116
(dp117
I181
S''
sI182
S'    try:'
p118
sI183
S'        if type(code) == types.CodeType:'
p119
sI184
S'            ccode = code'
p120
sI185
S'        else:'
p121
sI186
S'            ccode = compile2(code,layer)'
p122
sI187
S''
sI188
S'        exec ccode in environment'
p123
sI189
S'    except HTTP:'
p124
sI190
S'        raise'
p125
ssS'call'
p126
S'(code="###################################\\n## CONTROLLE...index\'))\\n\\nresponse._vars=response._caller(error)\\n", environment={\'A\': <class \'gluon.html.A\'>, \'AppDetails\': <class __builtin__.AppDetails at 0x91ec3ec>, \'Auth\': <class \'gluon.tools.Auth\'>, \'B\': <class \'gluon.html.B\'>, \'BEAUTIFY\': <class \'gluon.html.BEAUTIFY\'>, \'BODY\': <class \'gluon.html.BODY\'>, \'BR\': <class \'gluon.html.BR\'>, \'CENTER\': <class \'gluon.html.CENTER\'>, \'CLEANUP\': <class \'gluon.validators.CLEANUP\'>, \'CODE\': <class \'gluon.html.CODE\'>, ...}, layer=\'/home/herve/development/workspaces/molhokwai.net/web/applications/cms/controllers/default.py\')'
p127
sS'func'
p128
S'restricted'
p129
sa(dp130
g103
S'/home/herve/development/workspaces/molhokwai.net/web/gluon/restricted.py'
p131
sg105
(dp132
S'builtincompile'
p133
S'<built-in function compile>'
p134
sS'code'
p135
S'"###################################\\n## CONTROLLE...index\'))\\n\\nresponse._vars=response._caller(error)\\n"'
p136
sS'code.rstrip'
p137
S'<built-in method rstrip of str object at 0x970b710>'
p138
sS').replace'
p139
g114
sS'layer'
p140
S"'/home/herve/development/workspaces/molhokwai.net/web/applications/cms/controllers/default.py'"
p141
ssg115
I173
sg116
(dp142
I168
S''
sI169
S'def compile2(code,layer):'
p143
sI170
S'    """'
p144
sI171
S"    The +'\\n' is necessary else compile fails when code ends in a comment."
p145
sI172
S'    """'
p146
sI173
S"    return compile(code.rstrip().replace('\\r\\n','\\n')+'\\n', layer, 'exec')"
p147
sI174
S''
sI175
S"def restricted(code, environment={}, layer='Unknown'):"
p148
sI176
S'    """'
p149
sI177
S'    runs code in environment and returns the output. if an exception occurs'
p150
ssg126
S'(code="###################################\\n## CONTROLLE...index\'))\\n\\nresponse._vars=response._caller(error)\\n", layer=\'/home/herve/development/workspaces/molhokwai.net/web/applications/cms/controllers/default.py\')'
p151
sg128
S'compile2'
p152
sasS'pyver'
p153
S'Python 2.5.1: /usr/local/bin/python'
p154
sS'session'
p155
(dp156
S'_language'
p157
S"'en'"
p158
sS'auth'
p159
S'None'
p160
ssS'etype'
p161
S"<type 'exceptions.SyntaxError'>"
p162
sS'date'
p163
S'Thu Mar  3 17:07:15 2011'
p164
sS'response'
p165
(dp166
S'status'
p167
S'200'
p168
sg63
S'<cStringIO.StringO object at 0x93044a0>'
p169
sg80
S"<SimpleCookie: session_id_cms='127.0.0.1-11d2133e-89a5-49b0-9ef9-5cef1d84b48e'>"
p170
sS'_vars'
p171
S'None'
p172
sS'session_file'
p173
S"<open file '/home/herve/development/workspaces/m...49b0-9ef9-5cef1d84b48e', mode 'rb+' at 0x99f70f8>"
p174
sS'flash'
p175
S"''"
p176
sS'_custom_rollback'
p177
S'None'
p178
sS'session_id'
p179
S"'127.0.0.1-11d2133e-89a5-49b0-9ef9-5cef1d84b48e'"
p180
sS'headers'
p181
S"<Storage {'Expires': 'Thu, 03 Mar 2011 16:07:15 ...he, must-revalidate, post-check=0, pre-check=0'}>"
p182
sS'meta'
p183
S'<Storage {}>'
p184
sS'session_filename'
p185
S"'/home/herve/development/workspaces/molhokwai.net...ns/127.0.0.1-11d2133e-89a5-49b0-9ef9-5cef1d84b48e'"
p186
sS'postprocessing'
p187
S'[]'
p188
sS'menu'
p189
S'[]'
p190
sS'_view_environment'
p191
S"{'A': <class 'gluon.html.A'>, 'AppDetails': <class __builtin__.AppDetails at 0x91ec3ec>, 'Auth': <class 'gluon.tools.Auth'>, 'B': <class 'gluon.html.B'>, 'BEAUTIFY': <class 'gluon.html.BEAUTIFY'>, 'BODY': <class 'gluon.html.BODY'>, 'BR': <class 'gluon.html.BR'>, 'CENTER': <class 'gluon.html.CENTER'>, 'CLEANUP': <class 'gluon.validators.CLEANUP'>, 'CODE': <class 'gluon.html.CODE'>, ...}"
p192
sS'session_id_name'
p193
S"'session_id_cms'"
p194
sS'_custom_commit'
p195
S'None'
p196
sS'_caller'
p197
S'<function <lambda> at 0x93e0a74>'
p198
sS'files'
p199
S'[]'
p200
sS'view'
p201
S"'default/error.html'"
p202
ssS'locals'
p203
(dp204
g3
S"'/home/herve/development/workspaces/molhokwai.net/web/applications/cms/controllers/default.py'"
p205
sg5
S'"###################################\\n## CONTROLLE...index\'))\\n\\nresponse._vars=response._caller(error)\\n"'
p206
sssS'traceback'
p207
S'Traceback (most recent call last):\n  File "/home/herve/development/workspaces/molhokwai.net/web/gluon/restricted.py", line 186, in restricted\n    ccode = compile2(code,layer)\n  File "/home/herve/development/workspaces/molhokwai.net/web/gluon/restricted.py", line 173, in compile2\n    return compile(code.rstrip().replace(\'\\r\\n\',\'\\n\')+\'\\n\', layer, \'exec\')\n  File "/home/herve/development/workspaces/molhokwai.net/web/applications/cms/controllers/default.py", line 470\n    if \'file in \'request.post.vars:\n                       ^\nSyntaxError: invalid syntax\n'
p208
s.