(dp1
S'output'
p2
S''
sS'layer'
p3
S'/home/herve/development/workspaces/molhokwai.net/web/applications/a/views/media/social.html'
p4
sS'code'
p5
S'if not nake:\n    response.write(\'\\n    \', escape=False)\n    response.write(\'<!DOCTYPE html PUBLIC "-//W3C//DTD XHTML 1.0 Transitional//EN" "http://www.w3.org/TR/xhtml1/DTD/xhtml1-transitional.dtd">\\n<html xmlns="http://www.w3.org/1999/xhtml" xml:lang="\', escape=False)\n    response.write(T.accepted_language or \'en\')\n    response.write(\'">\\n\\n  <head>\\n    <title>\', escape=False)\n    if response.title:\n        response.write(response.title)\n    else:\n        response.write(URL(r=request))\n        pass\n    response.write(\'</title>\\n\\n    <title>\', escape=False)\n    response.write(response.title or request.application)\n    response.write(\'</title>\\n    <meta http-equiv="Content-Type" content="text/html; charset=UTF-8" />\\n    <meta name="keywords" content="\', escape=False)\n    response.write(response.keywords)\n    response.write(\'" />\\n    <meta name="description" content="\', escape=False)\n    response.write(response.description)\n    response.write(\'" />\\n    <meta name="google-site-verification" content="r0Pfq2q9SK7Pk9gkh1NnbsV28-mQoD8LoIGOeUhfer8" />\\n    \', escape=False)\n    if response.refresh:\n        response.write(XML(response.refresh))\n        pass\n    response.write(\'\\n    \\n    <link rel="stylesheet" href="/\', escape=False)\n    response.write(this_app)\n    response.write(\'/static/css/_base.css" type="text/css" media="screen" />\\n    <link rel="stylesheet" href="/\', escape=False)\n    response.write(this_app)\n    response.write(\'/static/css/base.css" type="text/css" media="screen" />\\n    <link rel="stylesheet" href="/\', escape=False)\n    response.write(this_app)\n    response.write(\'/static/css/themes/\', escape=False)\n    response.write(response.theme)\n    response.write(\'/base.css" type="text/css" media="screen" />\\n    <link rel="stylesheet" href="/\', escape=False)\n    response.write(this_app)\n    response.write(\'/static/components/markitup/style.css" type="text/css" media="screen" />\\n    <link rel="stylesheet" href="/\', escape=False)\n    response.write(this_app)\n    response.write(\'/static/components/markitup/sets/default/style.css" type="text/css" media="screen" />\\n    <style type="text/css"></style>\\n    \\n    \', escape=False)\n    response.write(\'<script type="text/javascript">\\n<!--\\n/*\\nWritten by Massimo Di Pierro.\\n\\nThis is a minimalistic AJAX for web2py, for more sophisticated stuff\\nyou should use Scriptacolous or some other AJAX toolkit. Anyway...\\n\\nTo use web2py_ajax.html just make sure you include \\\'web2py_ajax.html\\\'\\nin your layout.html. This provides four functions:\\n\\npopup(url)\\ncollapse(id)\\nfade(id,value) // try value= +0.1 or -0.1\\najax(url,sources,taget) \\n// will send sources[i].value to url and dispaly result in target\\n*/\\n\\nfunction popup(url) {\\n  newwindow=window.open(url,\\\'name\\\',\\\'height=400,width=600\\\');\\n  if (window.focus) {newwindow.focus()}\\n  return false;\\n}\\n\\nfunction collapse(id) {\\n   if(this.document.getElementById(id).style.display=="none")\\n   (this.document.getElementById(id).style.display="block") ;\\n   else (this.document.getElementById(id).style.display="none") ;\\n}\\n\\nfunction fade(id,value) {\\n  var object=document.getElementById(id);\\n  if(value<0 && !object.style.opacity) {\\n     this.document.getElementById(id).style.display="block";\\n     object.style.opacity=1;\\n  }\\n  if(value>0 && object.style.opacity>=1) object.style.opacity=1;\\n  else if(value<0 && object.style.opacity<=0) {\\n     this.document.getElementById(id).style.display="none";\\n     object.style.opacity=0;\\n  }\\n  else {\\n     this.document.getElementById(id).style.display="block";\\n     object.style.opacity-=-value;\\n     setTimeout(function(){fade(id,value);},100);\\n     return false;\\n  }\\n  return true;\\n}\\n\\nfunction ajax(url,sources,target) {\\n  var req = null; \\n  var ctarget=document.getElementById(target);\\n  window.status="connecting...";\\n  if(window.XMLHttpRequest)\\n     req = new XMLHttpRequest(); \\n  else if (window.ActiveXObject)\\n     req  = new ActiveXObject("Microsoft.XMLHTTP");\\n  req.onreadystatechange = function() {\\n     window.status="waiting...";\\n     if(req.readyState == 4)\\n       if(req.status == 200) {\\n          window.status=\\\'Ajax Done!\\\'\\n          try { \\n             ctarget.innerHTML=req.responseText; \\n             try {ctarget.scrollTop=ctarget.scrollHeight-ctarget.clientHeight;}\\n             catch(err) {}\\n          } catch(err) { ctarget.value=req.responseText; }\\n       } else alert("AJAX Error: " + req.status);\\n  }\\n  var query=""\\n  for(i=0; i<sources.length; i++) {\\n     if(i>0) query=query+"&";\\n     query=query+encodeURIComponent(sources[i])+"="+encodeURIComponent(document.getElementById(sources[i]).value);\\n  }\\n  req.open("POST",url,true); \\n  req.setRequestHeader("Content-Type", "application/x-www-form-urlencoded"); \\n  req.send(query); \\n} \\n//-->\\n</script>\', escape=False)\n    response.write(\'\\n\\n    <script type="text/javascript">\\n      var server={\\n          request : {\\n              application : \\\'\', escape=False)\n    response.write(this_app)\n    response.write(\'\\\'\\n          },\\n          pages : []\\n      };\\n    </script>\\n    <script type="text/javascript" src="/\', escape=False)\n    response.write(this_app)\n    response.write(\'/static/components/molhokwai/namespace.js"></script>\\n    <script type="text/javascript" src="/\', escape=False)\n    response.write(this_app)\n    response.write(\'/static/components/jquery/jquery-1.4.2.min.js"></script>\\n    <script type="text/javascript" src="/\', escape=False)\n    response.write(this_app)\n    response.write(\'/static/components/markitup/jquery.markitup.js"></script>\\n    <script type="text/javascript" src="/\', escape=False)\n    response.write(this_app)\n    response.write(\'/static/custom/script.js"></script>\\n    <script src="http://www.google.com/jsapi?key=ABQIAAAAhDaHyndn3TRHW8aVVgNfsBTPFwiohxerrbIfi_L7lDZ1YENwhRROxgxsy_RTT4IRmc8SWIpWu3KrsQ" type="text/javascript"></script>\\n    <script type="text/javascript" src="/\', escape=False)\n    response.write(this_app)\n    response.write(\'/static/components/google/search_init.js"></script>\\n    <script type="text/javascript">\\n      $(document).ready(function(){\\n          var browser_not=true;\\n          try { \\n              browser_not=!($.browser.mozilla || $.browser.webkit); \\n          }\\n          catch(e) {} \\n          if (browser_not){\\n              $(\\\'#content\\\').append(\\\'<div class="text-alignc margt5pc"><em>\', escape=False)\n    response.write(T("(Graphical design not tested (corrected) on this browser...)"))\n    response.write(\'</em></div>\\\');\\n          }\\n      });      \\n    </script>\\n\\n  </head>\\n\\n  <body>\\n\\n    <div id="wrapper" class="margt2pc  width60pc">\\n\\n      <div id="user-menu" class="right">\\n         \', escape=False)\n    if \'auth\' in globals():\n        response.write(\'\\n           \', escape=False)\n        if not auth.user:\n            response.write(\' \\n             \', escape=False)\n            response.write(A(T(\'login\'),_href=URL(r=request,c=\'default\',f=\'user/login\')))\n            response.write(\'\\n           \', escape=False)\n        else:\n            response.write(\'\\n             <!-- \', escape=False)\n            response.write(auth.user.display_name)\n            response.write(\' -->\\n             \', escape=False)\n            response.write(A(T(\'logout\'),_href=URL(r=request,c=\'default\',f=\'user/logout\')))\n            response.write(\' | \\n           \', escape=False)\n            pass\n        response.write(\'\\n         \', escape=False)\n        pass\n    response.write(\'\\n      </div>\\n      <!-- end #user-menu -->\\n\\n      <div id="cli_web" class="left margt2pc  width100pc">\\n        <form onsubmit="return false;">\\n            <input type="text" id="_cmd" name="_cmd" class="width30pc transparent"/>\\n            <font id="_cmd_msg" class="flash small">\\n                \', escape=False)\n    if session.cli_web_flash:\n        response.write(session.cli_web_flash)\n        session.cli_web_flash=False\n        pass\n    response.write(\'\\n                \', escape=False)\n    flash = session.flash if session.flash else response.flash\n    response.write(\'\\n                \', escape=False)\n    if flash:\n        response.write(flash)\n        pass\n    response.write(\'\\n            </font>\\n            <input type="hidden" id="_cmd_history_cur" value="-1"/>\\n        </form>\\n      </div>\\n      <!-- end #cli_web -->\\n    \\n      <div id="content" class="padl3pc left margt5pc width100pc">\\n        <div id="searchcontrol"></div>\\n        \', escape=False)\n    response.write(\'\\n\\n\', escape=False)\nelse:\n    response.write(\'\\n    \', escape=False)\n    if response.refresh:\n        response.write(XML(response.refresh))\n        pass\n    response.write(\'\\n    <link rel="stylesheet" href="/\', escape=False)\n    response.write(this_app)\n    response.write(\'/static/css/_base.css" type="text/css" media="screen" />\\n    <link rel="stylesheet" href="/\', escape=False)\n    response.write(this_app)\n    response.write(\'/static/css/base.css" type="text/css" media="screen" />\\n    <link rel="stylesheet" href="/\', escape=False)\n    response.write(this_app)\n    response.write(\'/static/css/themes/\', escape=False)\n    response.write(response.theme)\n    response.write(\'/base.css" type="text/css" media="screen" />\\n    <style type="text/css">\\n        #footer, footer, #top-bar, top-bar {\\n            display:none;\\n        }\\n    </style>\\n\', escape=False)\n    pass\nresponse.write(\'\\n\\n\', escape=False)\nif area in [\'twitter\']:\n    response.write(\'\\n    \', escape=False)\n    if sub_area in [\'user\']:\n        response.write(\'\\n        \', escape=False)\n        for item in items:\n            response.write(\'\\n            \', escape=False)\n            response.write(XML(item.replace(\'\\\\n\', \'\')))\n            response.write(\'\\n        \', escape=False)\n            pass\n        response.write(\'\\n    \', escape=False)\n    else:\n        response.write(\'\\n        \', escape=False)\n        ##------- KEYS\n        ## iso_language_code, to_user_id_str, text, from_user_id_str, profile_image_url,\n        ## id, source, id_str, from_user, from_user_id, to_user_id, ge, created_at, metadata\n        ol =OL()\n        for item in items:\n            ol.append(DIV(\'%s %s via %s\' % (item[\'text\'], item[\'created_at\'], item[\'source\']))\n            pass\n        response.write(\'\\n        \', escape=False)\n        response.write(XML(ol))\n        response.write(\'\\n    \', escape=False)\n        pass\n    response.write(\'\\n\', escape=False)\n    pass\nresponse.write(\'\\n\', escape=False)\nresponse.write(\'\\n      </div>\\n      <!-- end #content -->\\n\\n      <div id="utility" class="clear">&nbsp;</div>\\n\\n      <div id="footer">\', escape=False)\nresponse.write(A(T(\'acknowledgements\'), _href=URL( r=request, c=\'default\', f=\'page\', args=[\'acknowledgements\'])))\nresponse.write(\'</div>\\n        \\n    </div>\\n    <!-- end #wrapper -->\\n\\n    <div id="tracking">\\n        <script type="text/javascript" id="tracking_src">\\n            var gaJsHost = (("https:" == document.location.protocol) ? "https://ssl." : "http://www.");\\n            document.write(unescape("%3Cscript src=\\\'" + gaJsHost + "google-analytics.com/ga.js\\\' type=\\\'text/javascript\\\'%3E%3C/script%3E"));\\n        </script>\\n        <script type="text/javascript" id="tracking_process">\\n            try {\\n                var pageTracker = _gat._getTracker("UA-5101967-1");\\n                pageTracker._initData();\\n                pageTracker._trackPageview();\\n            }\\n            catch(e) {\\n                if (console) try{console.log(e);}catch(e){}\\n            }\\n        </script>\\n    </div>    \\n    <!-- end #tracking -->\\n\\n    <div id="links">\\n             \', escape=False)\nresponse.write(A(T(\'add page/post\'),_href=URL(r=request,c=\'default\',f=\'add/page\'), _class=\'color-transparent\'))\nresponse.write(\'\\n             \', escape=False)\n_post=None\ntry: _post=post\nexcept Exception, ex: pass\nresponse.write(\'\\n             \', escape=False)\nif _post:\n    response.write(\'\\n                 \', escape=False)\n    if _post.post_type==\'page\':\n        response.write(\'\\n                     \', escape=False)\n        response.write(A(T(\'edit page/post ?\'),_href=URL(r=request,c=\'default\',f=\'edit/page/%i\' % _post.id), _class=\'color-transparent\'))\n        response.write(\'\\n                 \', escape=False)\n    else:\n        response.write(\'\\n                     \', escape=False)\n        response.write(A(T(\'edit page/post ?\'),_href=URL(r=request,c=\'default\',f=\'edit/post/%i\' % _post.id), _class=\'color-transparent\'))\n        response.write(\'\\n                 \', escape=False)\n        pass\n    response.write(\'\\n             \', escape=False)\n    pass\nresponse.write(\'\\n             \', escape=False)\nif response.home_page:\n    response.write(\'\\n                 \', escape=False)\n    response.write(A(T(\'root\'),_href=URL(r=request,c=\'default\',f=\'page/%i\' % response.home_page.id), _class=\'color-transparent\'))\n    response.write(\'\\n             \', escape=False)\n    pass\nresponse.write(\'\\n             \', escape=False)\nif response.help_page:\n    response.write(\'\\n                 \', escape=False)\n    response.write(A(T(\'help\'),_href=URL(r=request,c=\'default\',f=\'page/%i\' % response.help_page.id), _class=\'color-transparent\'))\n    response.write(\'\\n             \', escape=False)\n    pass\nresponse.write(\'\\n             \\n             \', escape=False)\nresponse.write(A(T(\'links\'),_href=URL(r=request,c=\'default\',f=\'manage/link\'), _class=\'color-transparent\'))\nresponse.write(\'\\n             \', escape=False)\nif response.links:\n    response.write(\'\\n                 \', escape=False)\n    for _name,_link,_id in response.links:\n        response.write(\'\\n                         \', escape=False)\n        response.write(A(T(_name),_href=_link, _class=\'color-transparent\'))\n        response.write(\'\\n                 \', escape=False)\n        pass\n    response.write(\'\\n             \', escape=False)\n    pass\nresponse.write(\'\\n             \\n             \', escape=False)\nresponse.write(A(T(\'pages\'),_href=URL(r=request,c=\'default\',f=\'pages\'), _class=\'color-transparent\'))\nresponse.write(\'\\n             \', escape=False)\nif response.pages:\n    response.write(\'\\n                 \', escape=False)\n    for _title,_false,_link in response.links:\n        response.write(\'\\n                         \', escape=False)\n        response.write(A(T(_title),_href=_link, _class=\'color-transparent\'))\n        response.write(\'\\n                 \', escape=False)\n        pass\n    response.write(\'\\n             \', escape=False)\n    pass\nresponse.write(\'\\n    </div>\\n    <!-- end #links -->\\n  \\n  </body>\\n</html>\\n\', escape=False)'
p6
sS'snapshot'
p7
(dp8
S'exception'
p9
(dp10
S'__getslice__'
p11
S"<method-wrapper '__getslice__' of exceptions.SyntaxError object at 0xaaf1a74>"
p12
sS'text'
p13
S"'            pass\\n'"
p14
sS'__str__'
p15
S"<method-wrapper '__str__' of exceptions.SyntaxError object at 0xaaf1a74>"
p16
sS'__reduce__'
p17
S'<built-in method __reduce__ of exceptions.SyntaxError object at 0xaaf1a74>'
p18
sS'__dict__'
p19
S'{}'
p20
sS'__init__'
p21
S"<method-wrapper '__init__' of exceptions.SyntaxError object at 0xaaf1a74>"
p22
sS'__setattr__'
p23
S"<method-wrapper '__setattr__' of exceptions.SyntaxError object at 0xaaf1a74>"
p24
sS'__reduce_ex__'
p25
S'<built-in method __reduce_ex__ of exceptions.SyntaxError object at 0xaaf1a74>'
p26
sS'__new__'
p27
S'<built-in method __new__ of type object at 0x8239bc0>'
p28
sS'__class__'
p29
S"<type 'exceptions.SyntaxError'>"
p30
sS'filename'
p31
S"'/home/herve/development/workspaces/molhokwai.net/web/applications/a/views/media/social.html'"
p32
sS'lineno'
p33
S'112'
p34
sS'msg'
p35
S"'invalid syntax'"
p36
sS'__doc__'
p37
S"'Invalid syntax.'"
p38
sS'__getitem__'
p39
S"<method-wrapper '__getitem__' of exceptions.SyntaxError object at 0xaaf1a74>"
p40
sS'__setstate__'
p41
S'<built-in method __setstate__ of exceptions.SyntaxError object at 0xaaf1a74>'
p42
sS'__getattribute__'
p43
S"<method-wrapper '__getattribute__' of exceptions.SyntaxError object at 0xaaf1a74>"
p44
sS'print_file_and_line'
p45
S'None'
p46
sS'args'
p47
S"('invalid syntax', ('/home/herve/development/workspaces/molhokwai.net/web/applications/a/views/media/social.html', 112, 16, '            pass\\n'))"
p48
sS'offset'
p49
S'16'
p50
sS'__delattr__'
p51
S"<method-wrapper '__delattr__' of exceptions.SyntaxError object at 0xaaf1a74>"
p52
sS'__repr__'
p53
S"<method-wrapper '__repr__' of exceptions.SyntaxError object at 0xaaf1a74>"
p54
sS'__hash__'
p55
S"<method-wrapper '__hash__' of exceptions.SyntaxError object at 0xaaf1a74>"
p56
ssS'evalue'
p57
S'invalid syntax (social.html, line 112)'
p58
sS'request'
p59
(dp60
S'function'
p61
S"'social'"
p62
sS'body'
p63
S'<cStringIO.StringO object at 0xab41a80>'
p64
sS'wsgi'
p65
S"<Storage {'start_response': <function <lambda> a...ING': 'gzip,deflate', 'HTTP_KEEP_ALIVE': '115'}}>"
p66
sS'extension'
p67
S"'html'"
p68
sS'vars'
p69
S'<Storage {}>'
p70
sS'cid'
p71
S'None'
p72
sS'url'
p73
S'<gluon.html.XML object at 0xab4162c>'
p74
sS'raw_extension'
p75
S'None'
p76
sg47
S"['twitter']"
p77
sS'controller'
p78
S"'media'"
p79
sS'cookies'
p80
S"<SimpleCookie: session_id_a='127.0.0.1-76250500-...c4fd76-048f-4688-8653-aa55bd9624a8' theme='blue'>"
p81
sS'application'
p82
S"'a'"
p83
sS'ajax'
p84
S'False'
p85
sS'client'
p86
S"'127.0.0.1'"
p87
sS'env'
p88
S"<Storage {'wsgi_multithread': True, 'http_accept...nput': <socket._fileobject object at 0xac83dbc>}>"
p89
sS'raw_args'
p90
S"'twitter'"
p91
sS'get_vars'
p92
S'<Storage {}>'
p93
sS'folder'
p94
S"'/home/herve/development/workspaces/molhokwai.net/web/applications/a/'"
p95
sS'now'
p96
S'datetime.datetime(2011, 1, 12, 17, 52, 3, 455166)'
p97
sS'post_vars'
p98
S'<Storage {}>'
p99
ssS'frames'
p100
(lp101
(dp102
S'file'
p103
S'/home/herve/development/workspaces/molhokwai.net/web/gluon/restricted.py'
p104
sS'dump'
p105
(dp106
S'code'
p107
S'"if not nake:\\n    response.write(\'\\\\n    \', escape...nks -->\\\\n  \\\\n  </body>\\\\n</html>\\\\n\', escape=False)"'
p108
sS'layer'
p109
S"'/home/herve/development/workspaces/molhokwai.net/web/applications/a/views/media/social.html'"
p110
sS'global compile2'
p111
S'<function compile2 at 0x384684>'
p112
sS'ccode'
p113
S'undefined'
p114
ssS'lnum'
p115
I186
sS'lines'
p116
(dp117
I181
S''
sI182
S'    try:'
p118
sI183
S'        if type(code) == types.CodeType:'
p119
sI184
S'            ccode = code'
p120
sI185
S'        else:'
p121
sI186
S'            ccode = compile2(code,layer)'
p122
sI187
S''
sI188
S'        exec ccode in environment'
p123
sI189
S'    except HTTP:'
p124
sI190
S'        raise'
p125
ssS'call'
p126
S'(code="if not nake:\\n    response.write(\'\\\\n    \', escape...nks -->\\\\n  \\\\n  </body>\\\\n</html>\\\\n\', escape=False)", environment={\'A\': <class \'gluon.html.A\'>, \'AppDetails\': <class __builtin__.AppDetails at 0xac72fbc>, \'Auth\': <class \'gluon.tools.Auth\'>, \'B\': <class \'gluon.html.B\'>, \'BEAUTIFY\': <class \'gluon.html.BEAUTIFY\'>, \'BODY\': <class \'gluon.html.BODY\'>, \'BR\': <class \'gluon.html.BR\'>, \'CENTER\': <class \'gluon.html.CENTER\'>, \'CLEANUP\': <class \'gluon.validators.CLEANUP\'>, \'CODE\': <class \'gluon.html.CODE\'>, ...}, layer=\'/home/herve/development/workspaces/molhokwai.net/web/applications/a/views/media/social.html\')'
p127
sS'func'
p128
S'restricted'
p129
sa(dp130
g103
S'/home/herve/development/workspaces/molhokwai.net/web/gluon/restricted.py'
p131
sg105
(dp132
S'builtincompile'
p133
S'<built-in function compile>'
p134
sS'code'
p135
S'"if not nake:\\n    response.write(\'\\\\n    \', escape...nks -->\\\\n  \\\\n  </body>\\\\n</html>\\\\n\', escape=False)"'
p136
sS'code.rstrip'
p137
S'<built-in method rstrip of str object at 0xac568a0>'
p138
sS').replace'
p139
g114
sS'layer'
p140
S"'/home/herve/development/workspaces/molhokwai.net/web/applications/a/views/media/social.html'"
p141
ssg115
I173
sg116
(dp142
I168
S''
sI169
S'def compile2(code,layer):'
p143
sI170
S'    """'
p144
sI171
S"    The +'\\n' is necessary else compile fails when code ends in a comment."
p145
sI172
S'    """'
p146
sI173
S"    return compile(code.rstrip().replace('\\r\\n','\\n')+'\\n', layer, 'exec')"
p147
sI174
S''
sI175
S"def restricted(code, environment={}, layer='Unknown'):"
p148
sI176
S'    """'
p149
sI177
S'    runs code in environment and returns the output. if an exception occurs'
p150
ssg126
S'(code="if not nake:\\n    response.write(\'\\\\n    \', escape...nks -->\\\\n  \\\\n  </body>\\\\n</html>\\\\n\', escape=False)", layer=\'/home/herve/development/workspaces/molhokwai.net/web/applications/a/views/media/social.html\')'
p151
sg128
S'compile2'
p152
sasS'pyver'
p153
S'Python 2.5.1: /usr/local/bin/python'
p154
sS'session'
p155
(dp156
S'user_authorization_done'
p157
S'True'
p158
sS'_formkey[app_config_1]'
p159
S"'68410527-5c6f-4673-8a8a-58f5422cac7f'"
p160
sS'flash'
p161
S'None'
p162
sS'_formkey[links_create]'
p163
S"'f8e43d71-2aab-48dd-ac0f-6301d2985ea9'"
p164
sS'auth'
p165
S"<Storage {'expiration': 3600, 'user': <Storage {...1, 1, 12, 17, 52, 3, 455166), 'remember': False}>"
p166
sS'authorized'
p167
g158
ssS'etype'
p168
S"<type 'exceptions.SyntaxError'>"
p169
sS'date'
p170
S'Wed Jan 12 17:52:04 2011'
p171
sS'response'
p172
(dp173
S'_vars'
p174
S"{'area': 'twitter', 'items': [{u'created_at': u'Wed, 12 Jan 2011 16:51:55 +0000', u'from_user': u'Postal4333', u'from_user_id': 19157391, u'from_user_id_str': u'19157391', u'geo': None, u'id': 25233523979845632L, u'id_str': u'25233523979845632', u'iso_language_code': u'en', u'metadata': {u'result_type': u'recent'}, u'profile_image_url': u'http://a3.twimg.com/profile_images/1210429107/220085769_1_-1_normal.jpg', ...}, {u'created_at': u'Wed, 12 Jan 2011 16:51:53 +0000', u'from_user': u'andi_hp', u'from_user_id': 194011264, u'from_user_id_str': u'194011264', u'geo': None, u'id': 25233514274230272L, u'id_str': u'25233514274230272', u'iso_language_code': u'id', u'metadata': {u'result_type': u'recent'}, u'profile_image_url': u'http://a3.twimg.com/profile_images/1210246463/andi_2008_normal.jpg', ...}, {u'created_at': u'Wed, 12 Jan 2011 16:51:52 +0000', u'from_user': u'kBOOc', u'from_user_id': 6964673, u'from_user_id_str': u'6964673', u'geo': None, u'id': 25233511883481088L, u'id_str': u'25233511883481088', u'iso_language_code': u'en', u'metadata': {u'result_type': u'recent'}, u'profile_image_url': u'http://a3.twimg.com/profile_images/1213359072/008_normal.jpg', ...}, {u'created_at': u'Wed, 12 Jan 2011 16:51:52 +0000', u'from_user': u'LexOfNP', u'from_user_id': 9759761, u'from_user_id_str': u'9759761', u'geo': None, u'id': 25233511086563329L, u'id_str': u'25233511086563329', u'iso_language_code': u'en', u'metadata': {u'result_type': u'recent'}, u'profile_image_url': u'http://a1.twimg.com/profile_images/1212575130/profile_normal.png', ...}, {u'created_at': u'Wed, 12 Jan 2011 16:51:49 +0000', u'from_user': u'j_capote', u'from_user_id': 15297283, u'from_user_id_str': u'15297283', u'geo': None, u'id': 25233496691712001L, u'id_str': u'25233496691712001', u'iso_language_code': u'en', u'metadata': {u'result_type': u'recent'}, u'profile_image_url': u'http://a3.twimg.com/profile_images/1210562417/IMG01780-20110108-2053_normal.jpg', ...}, {u'created_at': u'Wed, 12 Jan 2011 16:51:44 +0000', u'from_user': u'Dranks_on_Me', u'from_user_id': 123226180, u'from_user_id_str': u'123226180', u'geo': None, u'id': 25233478295486464L, u'id_str': u'25233478295486464', u'iso_language_code': u'en', u'metadata': {u'result_type': u'recent'}, u'profile_image_url': u'http://a1.twimg.com/profile_images/1204968956/tp_normal.jpg', ...}, {u'created_at': u'Wed, 12 Jan 2011 16:51:44 +0000', u'from_user': u'msdivanewz247', u'from_user_id': 4907390, u'from_user_id_str': u'4907390', u'geo': None, u'id': 25233476659716096L, u'id_str': u'25233476659716096', u'iso_language_code': u'en', u'metadata': {u'result_type': u'recent'}, u'profile_image_url': u'http://a1.twimg.com/profile_images/1202883844/profile_normal.jpg', ...}, {u'created_at': u'Wed, 12 Jan 2011 16:51:43 +0000', u'from_user': u'Jonte_Reynolds', u'from_user_id': 133922439, u'from_user_id_str': u'133922439', u'geo': None, u'id': 25233473648205824L, u'id_str': u'25233473648205824', u'iso_language_code': u'en', u'metadata': {u'result_type': u'recent'}, u'profile_image_url': u'http://a3.twimg.com/profile_images/1197786524/profile_normal.jpg', ...}, {u'created_at': u'Wed, 12 Jan 2011 16:51:42 +0000', u'from_user': u'SmileyAngel13', u'from_user_id': 149134005, u'from_user_id_str': u'149134005', u'geo': None, u'id': 25233469659418625L, u'id_str': u'25233469659418625', u'iso_language_code': u'en', u'metadata': {u'result_type': u'recent'}, u'profile_image_url': u'http://a2.twimg.com/profile_images/1192822573/okay_normal.jpg', ...}, {u'created_at': u'Wed, 12 Jan 2011 16:51:39 +0000', u'from_user': u'ariareia', u'from_user_id': 52133989, u'from_user_id_str': u'52133989', u'geo': None, u'id': 25233458565480450L, u'id_str': u'25233458565480450', u'iso_language_code': u'eo', u'metadata': {u'result_type': u'recent'}, u'profile_image_url': u'http://a1.twimg.com/profile_images/1197511884/4twitter_normal.jpg', ...}, {u'created_at': u'Wed, 12 Jan 2011 16:51:38 +0000', u'from_user': u'hausofamy', u'from_user_id': 132855893, u'from_user_id_str': u'132855893', u'geo': None, u'id': 25233450399170561L, u'id_str': u'25233450399170561', u'iso_language_code': u'en', u'metadata': {u'result_type': u'recent'}, u'profile_image_url': u'http://a3.twimg.com/profile_images/1202001410/Photo_on_2010-12-23_at_23.35__2_2_normal.jpg', ...}, {u'created_at': u'Wed, 12 Jan 2011 16:51:37 +0000', u'from_user': u'Siss_K', u'from_user_id': 111066061, u'from_user_id_str': u'111066061', u'geo': None, u'id': 25233448494960640L, u'id_str': u'25233448494960640', u'iso_language_code': u'en', u'metadata': {u'result_type': u'recent'}, u'profile_image_url': u'http://a2.twimg.com/profile_images/1202277159/DSC01926_normal.JPG', ...}, {u'created_at': u'Wed, 12 Jan 2011 16:51:36 +0000', u'from_user': u'CandyBarsSoapCo', u'from_user_id': 112795022, u'from_user_id_str': u'112795022', u'geo': None, u'id': 25233443524706304L, u'id_str': u'25233443524706304', u'iso_language_code': u'en', u'metadata': {u'result_type': u'recent'}, u'profile_image_url': u'http://a1.twimg.com/profile_images/1046349008/IMG00006_normal.jpg', ...}, {u'created_at': u'Wed, 12 Jan 2011 16:51:35 +0000', u'from_user': u'pyvely', u'from_user_id': 120363090, u'from_user_id_str': u'120363090', u'geo': None, u'id': 25233439741452288L, u'id_str': u'25233439741452288', u'iso_language_code': u'el', u'metadata': {u'result_type': u'recent'}, u'profile_image_url': u'http://a1.twimg.com/profile_images/1204277945/IMG_3821_normal.jpg', ...}, {u'created_at': u'Wed, 12 Jan 2011 16:51:34 +0000', u'from_user': u'schasaid', u'from_user_id': 122005768, u'from_user_id_str': u'122005768', u'geo': None, u'id': 25233434112696320L, u'id_str': u'25233434112696320', u'iso_language_code': u'id', u'metadata': {u'result_type': u'recent'}, u'profile_image_url': u'http://a2.twimg.com/profile_images/1213736973/Picture_495_normal.jpg', ...}], 'nake': False, 'sub_area': None}"
p175
sg80
S"<SimpleCookie: session_id_a='127.0.0.1-76250500-f357-4eb7-95d6-602a5ce036a8'>"
p176
sS'links'
p177
S"[['web2py', 'http://www.web2py.com', 1], ['Python', 'http://www.python.org', 2], ['DePaul CTI', 'http://www.cs.depaul.edu', 3], ['DePaul University', 'http://www.depaul.edu', 5], ['downloads', '/a/default/page/32', 15], ['media / picasa / gallery', '/a/media/picasa/gallery', 16], ['manage media / manage picasa albums / manage photos', '/a/media/picasa/albums', 17], ['setup, application initialization', '/a/setup', 18], ['twitter', '/a/media/social/twitter', 19]]"
p178
sS'themes'
p179
S"['0', '1']"
p180
sS'meta'
p181
S'<Storage {}>'
p182
sS'anon_user'
p183
S"<Row {'auth_event': <gluon.dal.Set object at 0xa...elete_record': <function <lambda> at 0xab17c34>}>"
p184
sS'_view_environment'
p185
S"{'A': <class 'gluon.html.A'>, 'AppDetails': <class __builtin__.AppDetails at 0xac72fbc>, 'Auth': <class 'gluon.tools.Auth'>, 'B': <class 'gluon.html.B'>, 'BEAUTIFY': <class 'gluon.html.BEAUTIFY'>, 'BODY': <class 'gluon.html.BODY'>, 'BR': <class 'gluon.html.BR'>, 'CENTER': <class 'gluon.html.CENTER'>, 'CLEANUP': <class 'gluon.validators.CLEANUP'>, 'CODE': <class 'gluon.html.CODE'>, ...}"
p186
sS'keywords'
p187
S"'blog, weblog, journal, web, log, web2py, pypress...straight-forward, direct, programming, programmer'"
p188
sS'files'
p189
S'[]'
p190
sS'_caller'
p191
S'<function <lambda> at 0xa5357d4>'
p192
sS'title'
p193
S'"molhokwai.net - \'a\' cm/dms"'
p194
sS'home_page'
p195
S"<Row {'post_text_TCode': 'page_id_24', 'post_tim...elete_record': <function <lambda> at 0xac8325c>}>"
p196
sS'menu'
p197
S"[['home', False, '/a/default/page/16'], ['community', False, '/a/default/page/18']]"
p198
sS'flash'
p199
S"''"
p200
sS'theme'
p201
S"'blue'"
p202
sS'session_file'
p203
S"<open file '/home/herve/development/workspaces/m...4eb7-95d6-602a5ce036a8', mode 'rb+' at 0xa931ad0>"
p204
sS'_custom_commit'
p205
S'None'
p206
sS'session_filename'
p207
S"'/home/herve/development/workspaces/molhokwai.net...ns/127.0.0.1-76250500-f357-4eb7-95d6-602a5ce036a8'"
p208
sg63
S'<cStringIO.StringO object at 0xaaec3e0>'
p209
sS'description'
p210
S'"molhokwai.net - \'a\' cm/dms, lightweight, simple, straight & direct"'
p211
sS'session_id_name'
p212
S"'session_id_a'"
p213
sS'_custom_rollback'
p214
S'None'
p215
sS'pages'
p216
S"[['beliefs', False, '/a/default/page/15'], ['home', False, '/a/default/page/16'], ['community', False, '/a/default/page/18'], ['SMS', False, '/a/default/page/21'], ['', False, '/a/default/page/23'], ['a_home', False, '/a/default/page/24'], ['a_help', False, '/a/default/page/26'], ['help', False, '/a/default/page/27'], ['a_home', False, '/a/default/page/29'], ['siblos', False, '/a/default/page/30'], ['dev', False, '/a/default/page/31'], ['downloads', False, '/a/default/page/32'], ['themes', False, '/a/default/page/35'], ['media upload', False, '/a/default/page/36'], ['acknowledgements', False, '/a/default/page/37']]"
p217
sS'categories'
p218
S"[['misc', 2, '/a/default/category/misc'], ['message', 1, '/a/default/category/message']]"
p219
sS'help_page'
p220
S"<Row {'post_text_TCode': 'page_id_26', 'post_tim...elete_record': <function <lambda> at 0xac838ec>}>"
p221
sS'session_id'
p222
S"'127.0.0.1-76250500-f357-4eb7-95d6-602a5ce036a8'"
p223
sS'headers'
p224
S"<Storage {'Expires': 'Wed, 12 Jan 2011 16:52:03 ...he, must-revalidate, post-check=0, pre-check=0'}>"
p225
sS'status'
p226
S'200'
p227
sS'postprocessing'
p228
S'[]'
p229
sS'auth_users'
p230
S'<gluon.dal.Rows object at 0xab4148c>'
p231
sS'view'
p232
S"'media/social.html'"
p233
ssS'locals'
p234
(dp235
g3
S"'/home/herve/development/workspaces/molhokwai.net/web/applications/a/views/media/social.html'"
p236
sg5
S'"if not nake:\\n    response.write(\'\\\\n    \', escape...nks -->\\\\n  \\\\n  </body>\\\\n</html>\\\\n\', escape=False)"'
p237
sssS'traceback'
p238
S'Traceback (most recent call last):\n  File "/home/herve/development/workspaces/molhokwai.net/web/gluon/restricted.py", line 186, in restricted\n    ccode = compile2(code,layer)\n  File "/home/herve/development/workspaces/molhokwai.net/web/gluon/restricted.py", line 173, in compile2\n    return compile(code.rstrip().replace(\'\\r\\n\',\'\\n\')+\'\\n\', layer, \'exec\')\n  File "/home/herve/development/workspaces/molhokwai.net/web/applications/a/views/media/social.html", line 112\n    pass\n       ^\nSyntaxError: invalid syntax\n'
p239
s.