(dp1
S'output'
p2
S''
sS'layer'
p3
S'/home/herve/development/workspaces/molhokwai.net/web/applications/a/controllers/default.py'
p4
sS'code'
p5
S'###################################\n## CONTROLLER INITIALIZATION\n###################################\nexec(\'from applications.%s.modules import common\' % this_app)\napp_objects=Struct(**{\'details\':app_details,\'config\':app_config,\'log_wrapped\':log_wrapped})\npage_helper, post_helper = common.controller_init(request, response, session, cache, T, db, auth, app_objects)\n\ntry: pass\nexcept Exception, ex:\n    log_wrapped(\'Er\', ex)\n\n\n###################################\n## CONTROLLER FUNCTIONS\n###################################\n\n# The main page\n# Shows the home page if one created (see \'home_page\' function page with title)\n# Otherwise, defaults to showing the first 10 posts\ndef index():\n    if len(request.args)==0:\n        if response.home_page:\n            redirect(URL(r=request, c=\'default\', f=\'page\', args=[response.home_page.id]))\n        else:\n            redirect(URL(r=request, c=\'setup\'))\n    else:\n      if a_convert.to_int(request.args[0]):\n          return dict(posts = db(db.posts.id == int(request.args[0])).select())\n      else:\n          posts=db(db.posts.post_title == request.args[0]).select()\n          if not posts:\n              posts = response.posts.filter(lambda x: x.post_title.lower().find(request.args[0].lower())>0)\n          return posts\n          \n      \n\n# The post page\n# Shows the entire post, the comments, and the comment form\ndef post():\n    #try: \n    post_id = int(request.args[0])\n    post = db(db.posts.id == post_id).select()[0]\n    comments = db(db.comments.post_id == post_id).select(db.comments.ALL)\n    comment_count = len(db(db.comments.post_id == post_id).select(db.comments.ALL))\n    db.comments.post_id.default = post_id\n    comment_form = SQLFORM(db.comments, fields = [\'comment_author\', \'comment_author_email\', \'comment_author_website\', \'comment_text\'], labels = comment_labels)\n        \n    if comment_form.accepts(request.vars, session):\n        session.flash = T("Comment added.")\n        redirect(URL(r = request,f = \'post/%i\' % post_id ))\n\n    return dict(post = post, comments = comments, comment_form = comment_form, comment_count = comment_count)\n    #except: \n    #    redirect(URL(r = request,f = \'index\'))\n\n# The page page\n# Shows the entire page. Does not show comments or the comment form\ndef page():\n    try:\n        if len(request.args)>0:\n            post=\'\'\n            if a_convert.to_int(request.args[0]):\n                post = db(db.posts.id == int(request.args[0])).select()[0]\n            else:\n                post = db(db.posts.post_title == request.args[0]).select()\n                if not post:\n                    post = response.pages.filter(lambda x: x.post_title.lower().find(request.args[0].lower())>0)\n                if post: post=post[0]\n            \n            nake=(request.args[len(request.args)-1]==\'nake\'\n                 or post.post_text.find(\'<!-- nake page -->\')>=0)\n        \n            return dict(post = post, nake  = nake)\n        else:\n            redirect(URL(r = request,f = \'index\'))\n            \n    except Exception, ex: \n        log_wrapped(\'Error\', str(ex))\n        session.flash=T("(Caught) Error occured: %(err)s ", dict(err=str(ex)))\n        redirect(URL(r = request,f = \'index\'))\n\n# The pages page\n# Shows links to all pages\ndef pages():\n    return dict(manage_title=T("pages"))\n\n# The category page\n# Shows all the posts in the requested category\ndef category():\n    def fp(p): return p.post_type==\'post\'\n    try:\n        cat_name = request.args[0]\n        cat = db(db.categories.category_name == cat_name\n                    ).select(db.categories.ALL)[0]\n        _posts=[]\n        try:\n            posts = db((db.posts.post_type == \'post\') &\n                       (db.posts.post_category == cat.id) &\n                        ((db.posts.application == request.application) | \n                        (db.posts.application == None))\n                       ).select(db.posts.ALL) ## , orderby=~db.posts.post_time\n        except Exception, ex:\n            posts = db((db.posts.post_type == \'post\') &\n                       (db.posts.post_category == cat.id)\n                       ).select(db.posts.ALL) ## , orderby=~db.posts.post_time\n        filter(fp,posts)\n\n        response.sidebar_note = T("You are currently browsing the archives for the %(cat_name)s category.",dict(cat_name=cat_name))\n        return dict(posts = posts)\n    except:\n        redirect(URL(r = request,f = \'index\'))\n\n@auth.requires_login()\ndef add():\n    try:\n        area = request.args[0]\n\n        if area == "post":\n            db.posts.post_type.default = \'post\'\n            page_form = SQLFORM(db.posts, fields = [\'post_title\', \'post_text\', \n                                                    \'post_category\', \'is_translated\'], \n                                                    labels = post_labels)\n            page_form.append(INPUT(_type=\'checkbox\', \n                                    _name=\'post_attributes_content_is_original\', \n                                    _id=\'post_attributes_content_is_original\', value=\'\'))\n            page_title = T("Add Post")\n            \n            if page_form.accepts(request.vars, session):\n                tcode="post_id_"+str(page_form.vars.id)\n                from gluon.contrib import simplejson\n                _json=simplejson.loads(request.vars.post_attributes_json)\n                _json[\'content_is\'][\'original\']=request.vars.post_attributes_content_is_original==\'on\'\n                pg=db(db.posts.id==page_form.vars.id).update(\n                                                post_text_TCode=tcode,\n                                                post_attributes_json=simplejson.dumps(_json))\n                ## FEATURE REQUEST: to add the translation code if not existing\n                T(tcode)\n                session.flash = T("Post added.")\n                redirect(URL(r = request,f = \'post/%i\' % page_form.vars.id))\n        \n        elif area == "page":\n            db.posts.post_type.default = \'page\'\n            page_form = SQLFORM(db.posts, fields = [\'post_title\', \'post_text\', \n                                                    \'show_in_menu\', \'is_translated\'], \n                                                    labels = post_labels)\n            page_form.append(INPUT(_type=\'checkbox\', _name=\'post_attributes_content_is_original\', \n                                                    _id=\'post_attributes_content_is_original\', value=\'\'))\n            page_title = T("Add Page")\n            \n            if page_form.accepts(request.vars, session):\n                tcode="page_id_"+str(page_form.vars.id)\n                from gluon.contrib import simplejson\n                _json=simplejson.loads(request.vars.post_attributes_json)\n                _json[\'content_is\'][\'original\']=request.vars.post_attributes_content_is_original==\'on\'\n                pg=db(db.posts.id==page_form.vars.id).update(\n                                                post_text_TCode=tcode,\n                                                post_attributes_json=simplejson.dumps(_json)\n                                            )\n                ## FEATURE REQUEST: to add the translation code if not existing\n                T(tcode)\n                session.flash = T("Page added.")\n                redirect(URL(r = request,f = \'page/%i\' % page_form.vars.id))          \n                \n        else:\n            redirect(URL(r = request,f = \'index\'))\n            \n        return dict(page_title = page_title, page_form = page_form)\n    except Exception, ex:\n        session.flash=T("Error occured: %(err)s ", dict(err=str(ex)))\n        redirect(URL(r = request,f = \'index\'))\n\n@auth.requires_login()\ndef edit():\n    this_item=None\n    area=None\n    id=None\n    # p_a_c_i_o_val : page attr. content is orginal value\n    p_a_c_i_o_val=None\n    try:\n        area = request.args[0]\n        id = int(request.args[1])\n        this_item = db(db.posts.id == id).select()[0]\n    except Exception, ex:\n        session.flash=T("Error occured: %(err)s ", dict(err=str(ex)))\n        redirect(URL(r = request,f = \'index\'))\n\n    try:\n        from gluon.contrib import simplejson\n        _json=simplejson.loads(this_item.post_attributes_json)\n        p_a_c_i_o_val=\'on\' if _json[\'content_is\'][\'original\'] else \'\'\n    except Exception, ex:\n        session.flash=T("(Minor) Error occured: %(err)s ", dict(err=str(ex)))\n    \n    if area == \'post\':\n        edit_form = SQLFORM(db.posts, this_item, fields = [\'post_title\', \'post_text\', \'post_text_TCode\', \n                                                            \'post_category\',\'is_translated\'], \n                                                            deletable=True, labels = post_labels)\n        edit_form.append(INPUT(_type=\'checkbox\', _name=\'post_attributes_content_is_original\', \n                                                _id=\'post_attributes_content_is_original\', value=p_a_c_i_o_val))\n        edit_title = T("Edit Post")\n    \n        if edit_form.accepts(request.vars, session):\n            if request.vars.delete_this_record==\'on\':\n                session.flash = T("Post deleted.")\n                redirect(URL(r = request,f = \'index/posts\'))\n            else:    \n                _json[\'content_is\'][\'original\']=request.vars.post_attributes_content_is_original==\'on\'\n                db(db.posts.id==id).update(post_attributes_json=simplejson.dumps(_json))\n                session.flash = T("Post updated.")\n                redirect(URL(r = request,f = \'post/%s\' %id))\n\n    elif area == \'page\':\n        this_item = db(db.posts.id == id).select()[0]\n        edit_form = SQLFORM(db.posts, this_item, fields = [\'post_title\', \'post_text\', \'post_text_TCode\', \n                                                            \'is_translated\', \'show_in_menu\'], \n                                                            deletable=True, labels = post_labels)\n        edit_form.append(INPUT(_type=\'checkbox\', _name=\'post_attributes_content_is_original\', \n                                                 _id=\'post_attributes_content_is_original\', value=p_a_c_i_o_val))\n        edit_title = T("Edit Page")\n    \n        if edit_form.accepts(request.vars, session):\n            if request.vars.delete_this_record==\'on\':\n                session.flash = T("Page deleted.")\n                redirect(URL(r = request,f = \'pages\'))\n            else:\n                try:\n                    _json[\'content_is\'][\'original\']=request.vars.post_attributes_content_is_original==\'on\'\n                    db(db.posts.id==id).update(post_attributes_json=simplejson.dumps(_json))\n                    session.flash = T("Page updated.")\n                except Exception, ex:\n                    session.flash=T("(Minor) Error occured: %(err)s ", dict(err=str(ex)))\n                finally:\n                    redirect(URL(r = request,f = \'page/%s\' %id))\n                        \n    else:\n        redirect(URL(r = request,f = \'index\'))\n    \n    return dict(edit_form = edit_form, edit_title = edit_title, post=this_item)\n\n        \n@auth.requires_login()\ndef manage():\n\n    area = None\n    if len(request.args)>0:\n        area = request.args[0]\n    else:\n        area = \'post\'\n    \n    try: command = request.args[1]\n    except: command = ""\n        \n    if area == \'post\':\n        rows = db(db.posts.post_type == \'post\').select(db.posts.ALL)\n        manage_title = T(\'Manage Posts\')\n\n        if command == \'add\':\n            edit_form = SQLFORM(db.posts, labels = post_labels)\n            \n            if edit_form.accepts(request.vars, session):\n                session.flash = T("Post added")\n                redirect(URL(r = request, f = \'manage/post\'))\n            else:\n                session.flash = T("Error")\n       \n        elif command == \'edit\':\n            try: id = request.args[2]\n            except: id = ""\n            \n            if id != \'\':\n                this_post = db(db.posts.id == id).select()[0]\n                edit_form = SQLFORM(db.posts, this_post)\n                \n                if edit_form.accepts(request.vars, session):\n                    session.flash = T("Post updated")\n                    redirect(URL(r = request, f = \'manage\', args=[\'post\']))\n                else:\n                    session.flash=T("(Caught) Error occured")\n                    \n        elif command == \'delete\':\n            try: id = request.args[2]\n            except: id = ""\n            \n            if id != \'\':\n                db(db.posts.id == id).delete()\n                session.flash = T("Post deleted")\n                redirect(URL(r = request, f = \'index\'))\n        else:\n            edit_form = \'\'\n\n        return dict(rows = rows, manage_title = manage_title, edit_form = edit_form, area = area)\n    \n    elif area == \'link\':\n        rows = db().select(db.links.ALL)\n        manage_title = T(\'Manage Links\')\n\n        if command == \'add\':\n            edit_form = SQLFORM(db.links, labels = link_labels)\n            \n            if edit_form.accepts(request.vars, session):\n                session.flash = T("Link added")\n                redirect(URL(r = request, f = \'manage\', args=[\'link\']))\n            else:\n                session.flash=T("(Caught) Error occured")\n       \n        elif command == \'edit\':\n            try: id = request.args[2]\n            except: id = ""\n            \n            if id != \'\':\n                this_link = db(db.links.id == id).select()[0]\n                edit_form = SQLFORM(db.links, this_link)\n                \n                if edit_form.accepts(request.vars, session):\n                    session.flash = T("Link updated")\n                    redirect(URL(r = request, f = \'manage\', args=[\'link\']))\n                else:\n                    session.flash=T("(Caught) Error occured")\n        \n        elif command == \'delete\':\n            try: id = request.args[2]\n            except: id = ""\n            \n            if id != \'\':\n                db(db.links.id == id).delete()\n                session.flash = T("Link deleted")\n                redirect(URL(r = request, f = \'manage/link\'))\n        else:\n            edit_form = \'\'\n            \n        return dict(rows = rows, manage_title = manage_title, edit_form = edit_form, area = area)\n    \n    elif area == \'category\':\n        rows = db().select(db.categories.ALL)\n        manage_title = T(\'Manage Categories\')\n       \n        if command == \'add\':\n            edit_form = SQLFORM(db.categories, labels = cat_labels)\n            \n            if edit_form.accepts(request.vars, session):\n                session.flash = T("Category added")\n                redirect(URL(r = request, f = \'manage/category\'))\n        \n        elif command == \'edit\':\n            try: id = request.args[2]\n            except: id = ""\n            \n            if id != \'\':\n                this_cat = db(db.categories.id == id).select()[0]\n                edit_form = SQLFORM(db.categories, this_cat)\n                \n                if edit_form.accepts(request.vars, session):\n                    session.flash = T("Category updated")\n                    redirect(URL(r = request, f = \'manage\', args=[\'category\']))\n                else:\n                    session.flash=T("(Caught) Error occured")\n        \n        elif command == \'delete\':\n            try: id = request.args[2]\n            except: id = ""\n            \n            if id != \'\':\n                db(db.categories.id == id).delete()\n                session.flash = T("Category deleted")\n                redirect(URL(r = request, f = \'manage/category\'))\n        \n        else:\n            edit_form = \'\'\n\n        return dict(rows = rows, manage_title = manage_title, edit_form = edit_form, area = area)        \n    \n    else:\n        redirect(URL(r = request,f = \'index\'))\n\ndef error():\n    ticket=\'\'\n    code=\'\'\n    requested_uri=\'\'\n    err=\'\'\n\n    try:\n        ticket=request.vars.ticket\n        if ticket == \'None\': ticket=None\n        \n        code=request.vars.code\n        if code == \'None\': code=None\n        \n        requested_uri=request.vars.requested_uri\n        if requested_uri == \'None\': requested_uri=None\n    except Exception, ex:\n        err=str(ex)\n        session.flash=T("Error occured: %(err)s ", dict(err=str(ex)))\n        \n    return dict(ticket=ticket, code=code, requested_uri=requested_uri, err=err)\n        \ndef files():\n    upload_form=SQLFORM(db.files,labels=file_labels)\n    if request.vars.file!=None:\n        # TODO: strip_path_and_sanitize()\n        upload_form.vars.filename=request.vars.file.filename.lower()\n        if upload_form.accepts(request.vars,session):\n            response.flash=T(\'file uploaded\')\n        \n    download_form=FORM(LABEL(T(\'Enter file name\'))\n                        ,INPUT(_name="filename", requires=IS_NOT_EMPTY())\n                        ,INPUT(_type="submit",_value=T(\'Submit\')))\n    if (download_form.accepts(request.vars,session)\n        or (request.vars.download and request.vars.filename)):\n        _file=db(db.files.filename==request.vars.filename.lower()).select()\n        if _file: \n            _file=_file[0]\n            redirect(URL(r = request,f = \'download/%s/%s\' % (_file.file,_file.filename)))\n        else:\n            response.flash=T(\'no file found with the name %(filename)s\',\n                             dict(filename=request.vars.filename.lower()))\n        \n    return dict(upload_form=upload_form,download_form=download_form,\n                upload_title=T(\'upload\'),download_title=T(\'download\'))\n\ndef json():\n    area=request.args[0]\n    return response.json({\n        \'status\' : 1,\n        \'message\' : \'done\',\n        \'result\' : {\n            \'pages\' : lambda x: db(db.posts.post_type==\'page\').select()\n        }.get(request.args[0], None)(request.args[0])\n    })\n    \ndef user():\n    """\n    exposes:\n    http://..../[app]/default/user/login \n    http://..../[app]/default/user/logout\n    http://..../[app]/default/user/register\n    http://..../[app]/default/user/profile\n    http://..../[app]/default/user/retrieve_password\n    http://..../[app]/default/user/change_password\n    use @auth.requires_login()\n        @auth.requires_membership(\'group name\')\n        @auth.requires_permission(\'read\',\'table name\',record_id)\n    to decorate functions that need access control\n    """\n    if request.args[0]==\'logout\':\n        session.user_authorization_done=False\n    if auth.user and request.vars.next:\n        redirect(request.vars.next)\n    return dict(form=auth())\n\n\n@auth.requires_login()\ndef app_admin():\n    area=request.args[0]\n    if area==\'auth_user\':\n        form=SQLFORM(db.auth_user,response.anon_user,fields=[\'display_name\',\'email\'])\n        if request.post_vars.email:\n            auth.user.email=request.vars.email\n            \n            if (request.vars.email==response.anon_user.email and\n                request.vars.display_name==response.anon_user.display_name):\n                if form.accepts(request.vars,session):\n                    session.flash =T("Update done.")\n                    redirect(URL(r = request,f=\'index\'))\n                else:\n                    db.auth_user.insert(registration_id=auth.user.registration_id,\n                                        email=request.vars.email,\n                                        display_name=request.vars.display_name)\n                    session.flash =T("Data successfully saved.")\n                    redirect(URL(r = request,f=\'index\'))\n        return dict(form=form,area=area)\n    if area==\'user\':\n        if auth.user:\n            if auth.user.is_admin:\n                _fields=[\'registration_id\',\'display_name\',\'email\',\'is_admin\']\n            else:\n                _fields=[\'display_name\',\'email\']\n                \n            form=None\n            usr=None\n            if len(request.args)>1 and len(request.args[1])>0:\n                usr=db(db.auth_user.id==request.args[1]).select()\n                if len(usr)>0:usr=usr[0]\n                else:\n                    session.flash=\'User not found.\'\n                    redirect(URL(r=request,f=\'app_admin/user/\'))\n                form=SQLFORM(db.auth_user,usr,fields=_fields,deletable=True)\n                if form.accepts(request.vars,session):\n                    if request.vars.delete_this_record==\'on\':\n                        response.flash=T(\'User deleted.\')\n                    else:\n                        response.flash=T(\'User updated.\')\n                _form_title=T("edit user")\n            else:\n                form=SQLFORM(db.auth_user,fields=_fields)\n                if form.accepts(request.vars,session):\n                    session.flash=\'User created.\'\n                    redirect(URL(r=request,f=\'app_admin/user/%(id)i\' % form.vars.id))\n                _form_title=T("create user")\n            return dict(form=form,area=area,form_title=_form_title)\n        else:            \n            response.flash=T(\'woooups... not allowed\')\n            return dict(form=\'...\',area=area,form_title=\'...\')\n\ndef download():\n    import os\n    return response.stream(open(os.path.join(request.folder,\'uploads\',request.args[0]),\'rb\'))\n\n@auth.requires_login()\ndef do_stuff():\n    log_wrapped(\'1\', 1)\n    if request.args[0] in [\'posts_app\', \'links_app\']:\n        log_wrapped(\'2\', 2)\n        instance=db.posts if request.args[0]==\'posts_app\' else db.links\n        _ids=request.args[1].split(\',\')\n        log_wrapped(\'_ids\', _ids)\n        for i in range(len(_ids)):\n            try:\n                db(instance.id == int(_ids[i])).update(application=request.application)\n            except Exception, ex:\n                pass\n        session.flash=T(\'%(inst)s application updated.\', dict(inst=str(instance)))\n    \n    redirect(URL(r = request,f = \'index\'))\n\nresponse._vars=response._caller(pages)\n'
p6
sS'snapshot'
p7
(dp8
sS'traceback'
p9
S'Traceback (most recent call last):\n  File "/home/herve/development/workspaces/molhokwai.net/web/gluon/restricted.py", line 188, in restricted\n    exec ccode in environment\n  File "/home/herve/development/workspaces/molhokwai.net/web/applications/a/controllers/default.py", line 6, in <module>\n    page_helper, post_helper = common.controller_init(request, response, session, cache, T, db, auth, app_objects)\n  File "applications/a/modules/common.py", line 148, in controller_init\n    response.posts = db().select(posts.ALL)\nNameError: global name \'posts\' is not defined\n'
p10
s.