(dp1
S'output'
p2
S'Unable to open included view file: /home/herve/development/workspaces/molhokwai.net/web/applications/cms/views/themes/None/layout.html'
p3
sS'layer'
p4
S'ParserContainer'
p5
sS'code'
p6
S'{{extend \'themes/%s/layout.html\' % response.theme}}\n\n<BLOCKQUOTE>Erreur<BR/>\n    {{if ticket:}}<b>Erreur interne</b>, ticket: <a href="/admin/default/ticket/{{=ticket}}" target="_blank">{{=ticket}}</a><br/>{{pass}}\n    {{if code==\'400\':}}<b>Page non trouv\xc3\xa9e</b>, la page est introuvable...<br/>\n    {{else:}}{{if code==\'403\':}}<b>Non autoris\xc3\xa9</b>, hummmm... besoin de permissions suppl\xc3\xa9mentaires, ou ceci serait-il une erreur?<br/>\n    {{else:}}{{if code==\'500\':}}<b>Erreur serveur</b>, il s&#39;est pass\xc3\xa9 quelque chose d&#39;anormal...<br/>{{pass}}{{pass}}{{pass}}\n    {{if requested_uri:}}<b>Requ\xc3\xaate (uri)</b>: {{=requested_uri}}{{pass}}\n    {{if err!=\'\':}}<b>Erreur</b>: {{=err}}{{pass}}\n</BLOCKQUOTE>\n<BR>\n<BR>\n<BLOCKQUOTE>Error<BR/>\n    {{if ticket:}}<b>Internal error</b>, ticket: <a href="/admin/default/ticket/{{=ticket}}" target="_blank">{{=ticket}}</a>{{pass}}<br/>\n    {{if code==\'400\':}}<b>Page Not Found</b>, the page is nowhere to be found...\n    {{else:}}{{if code==\'403\':}}<b>Permission denied</b>, hummmm... need extra permissions, or do we have an error here?\n    {{else:}}{{if code==\'500\':}}<b>Server error</b>, something baaad happened...{{pass}}{{pass}}{{pass}}<br/>\n    {{if requested_uri:}}<b>Requested Uri</b>: {{=requested_uri}}{{pass}}\n    {{if err!=\'\':}}<b>Error</b>: {{=err}}{{pass}}\n</BLOCKQUOTE>\n'
p7
sS'snapshot'
p8
(dp9
S'exception'
p10
(dp11
S'__hash__'
p12
S"<method-wrapper '__hash__' of exceptions.IOError object at 0x9e8e35c>"
p13
sS'__setattr__'
p14
S"<method-wrapper '__setattr__' of exceptions.IOError object at 0x9e8e35c>"
p15
sS'__reduce_ex__'
p16
S'<built-in method __reduce_ex__ of exceptions.IOError object at 0x9e8e35c>'
p17
sS'__getslice__'
p18
S"<method-wrapper '__getslice__' of exceptions.IOError object at 0x9e8e35c>"
p19
sS'__getitem__'
p20
S"<method-wrapper '__getitem__' of exceptions.IOError object at 0x9e8e35c>"
p21
sS'__setstate__'
p22
S'<built-in method __setstate__ of exceptions.IOError object at 0x9e8e35c>'
p23
sS'__reduce__'
p24
S'<built-in method __reduce__ of exceptions.IOError object at 0x9e8e35c>'
p25
sS'__str__'
p26
S"<method-wrapper '__str__' of exceptions.IOError object at 0x9e8e35c>"
p27
sS'args'
p28
S"(2, 'No such file or directory')"
p29
sS'__getattribute__'
p30
S"<method-wrapper '__getattribute__' of exceptions.IOError object at 0x9e8e35c>"
p31
sS'__class__'
p32
S"<type 'exceptions.IOError'>"
p33
sS'filename'
p34
S"'/home/herve/development/workspaces/molhokwai.net/web/applications/cms/views/themes/None/layout.html'"
p35
sS'__delattr__'
p36
S"<method-wrapper '__delattr__' of exceptions.IOError object at 0x9e8e35c>"
p37
sS'strerror'
p38
S"'No such file or directory'"
p39
sS'__repr__'
p40
S"<method-wrapper '__repr__' of exceptions.IOError object at 0x9e8e35c>"
p41
sS'errno'
p42
S'2'
sS'__dict__'
p43
S'{}'
p44
sS'__doc__'
p45
S"'I/O operation failed.'"
p46
sS'__init__'
p47
S"<method-wrapper '__init__' of exceptions.IOError object at 0x9e8e35c>"
p48
sS'__new__'
p49
S'<built-in method __new__ of type object at 0x82395c0>'
p50
ssS'evalue'
p51
S"[Errno 2] No such file or directory: '/home/herve/development/workspaces/molhokwai.net/web/applications/cms/views/themes/None/layout.html'"
p52
sS'frames'
p53
(lp54
(dp55
S'file'
p56
S'/home/herve/development/workspaces/molhokwai.net/web/gluon/template.py'
p57
sS'dump'
p58
(dp59
S'builtinopen'
p60
S'<built-in function open>'
p61
sS'fileobj'
p62
S'undefined'
p63
sS'filepath'
p64
S"'/home/herve/development/workspaces/molhokwai.net/web/applications/cms/views/themes/None/layout.html'"
p65
ssS'lnum'
p66
I435
sS'lines'
p67
(dp68
I430
S'        # Get the path of the file on the system.'
p69
sI431
S'        filepath = os.path.join(self.path, filename)'
p70
sI432
S''
sI433
S'        # Lets try to read teh text.'
p71
sI434
S'        try:'
p72
sI435
S"            fileobj = open(filepath, 'rb')"
p73
sI436
S''
sI437
S'            text = fileobj.read()'
p74
sI438
S''
sI439
S'            fileobj.close()'
p75
ssS'call'
p76
S"(self=<gluon.template.TemplateParser object at 0x9e7844c>, filename='themes/None/layout.html')"
p77
sS'func'
p78
S'_get_file_text'
p79
sasS'pyver'
p80
S'Python 2.5.1: /usr/local/bin/python'
p81
sS'etype'
p82
S"<type 'exceptions.IOError'>"
p83
sS'date'
p84
S'Sun Feb  6 15:02:34 2011'
p85
sS'locals'
p86
(dp87
S'self'
p88
S'<gluon.template.TemplateParser object at 0x9e7844c>'
p89
sS'filepath'
p90
S"'/home/herve/development/workspaces/molhokwai.net/web/applications/cms/views/themes/None/layout.html'"
p91
sg34
S"'themes/None/layout.html'"
p92
sssS'traceback'
p93
S'Traceback (most recent call last):\n  File "/home/herve/development/workspaces/molhokwai.net/web/gluon/template.py", line 435, in _get_file_text\n    fileobj = open(filepath, \'rb\')\nIOError: [Errno 2] No such file or directory: \'/home/herve/development/workspaces/molhokwai.net/web/applications/cms/views/themes/None/layout.html\'\n'
p94
s.