(dp1
S'output'
p2
S''
sS'layer'
p3
S'/home/herve/development/workspaces/molhokwai.net/web/applications/cms/views/default/error.html'
p4
sS'code'
p5
S'response.write(\'<!DOCTYPE html PUBLIC "-//W3C//DTD XHTML 1.0 Transitional//EN" "http://www.w3.org/TR/xhtml1/DTD/xhtml1-transitional.dtd">\\n<html xmlns="http://www.w3.org/1999/xhtml" xml:lang="\', escape=False)\nresponse.write(T.accepted_language or \'en\')\nresponse.write(\'">\\n  <head>\\n    <title>\', escape=False)\nresponse.write(response.title or request.application)\nresponse.write(\'</title>\\n    <meta http-equiv="Content-Type" content="text/html; charset=UTF-8" />\\n    <meta name="keywords" content="\', escape=False)\nresponse.write(response.keywords)\nresponse.write(\'" />\\n    <meta name="description" content="\', escape=False)\nresponse.write(response.description)\nresponse.write(\'" />\\n    <meta name="google-site-verification" content="2TmmFn8eNL7GNZuDtORTZ89uxj5fmTtuwqQLqv8webc" /><!-- old: r0Pfq2q9SK7Pk9gkh1NnbsV28-mQoD8LoIGOeUhfer8 -->\\n    <!-- include required CSS files, further most first -->\\n    <!-- include requires CSS files\\n    \', escape=False)\nresponse.files.append(URL(request.application,\'static\',\'jquery-ui-1.8.2.custom/jquery-ui-1.8.2.custom.css\'))\nresponse.write(\'\\n    -->\\n    <link rel="stylesheet" href="/\', escape=False)\nresponse.write(this_app)\nresponse.write(\'/static/css/_base.css" type="text/css" media="screen" />\\n    <link rel="stylesheet" href="http://www.google.com/cse/style/look/minimalist.css" type="text/css" />\\n    <link rel="stylesheet" href="/\', escape=False)\nresponse.write(this_app)\nresponse.write(\'/static/css/themes/\', escape=False)\nresponse.write(response.theme)\nresponse.write(\'/base.css" type="text/css" media="screen" />\\n    <link rel="stylesheet" href="/\', escape=False)\nresponse.write(this_app)\nresponse.write(\'/static/css/themes/\', escape=False)\nresponse.write(response.theme)\nresponse.write(\'/style.css" type="text/css" media="screen" />\\n    <link rel="stylesheet" href="/\', escape=False)\nresponse.write(this_app)\nresponse.write(\'/static/components/markitup/style.css" type="text/css" media="screen" />\\n    <link rel="stylesheet" href="/\', escape=False)\nresponse.write(this_app)\nresponse.write(\'/static/components/markitup/sets/default/style.css" type="text/css" media="screen" />\\n    <!-- include requires CSS files\\n    \', escape=False)\n## TODO: why is this not working?\nresponse.files.append(URL(request.application,\'static\',\'style.css\'))\nresponse.write(\'\\n    -->\\n    \', escape=False)\nresponse.write(\'<script type="text/javascript">\\n<!--\\n/*\\nWritten by Massimo Di Pierro.\\n\\nThis is a minimalistic AJAX for web2py, for more sophisticated stuff\\nyou should use Scriptacolous or some other AJAX toolkit. Anyway...\\n\\nTo use web2py_ajax.html just make sure you include \\\'web2py_ajax.html\\\'\\nin your layout.html. This provides four functions:\\n\\npopup(url)\\ncollapse(id)\\nfade(id,value) // try value= +0.1 or -0.1\\najax(url,sources,taget) \\n// will send sources[i].value to url and dispaly result in target\\n*/\\n\\nfunction popup(url) {\\n  newwindow=window.open(url,\\\'name\\\',\\\'height=400,width=600\\\');\\n  if (window.focus) {newwindow.focus()}\\n  return false;\\n}\\n\\nfunction collapse(id) {\\n   if(this.document.getElementById(id).style.display=="none")\\n   (this.document.getElementById(id).style.display="block") ;\\n   else (this.document.getElementById(id).style.display="none") ;\\n}\\n\\nfunction fade(id,value) {\\n  var object=document.getElementById(id);\\n  if(value<0 && !object.style.opacity) {\\n     this.document.getElementById(id).style.display="block";\\n     object.style.opacity=1;\\n  }\\n  if(value>0 && object.style.opacity>=1) object.style.opacity=1;\\n  else if(value<0 && object.style.opacity<=0) {\\n     this.document.getElementById(id).style.display="none";\\n     object.style.opacity=0;\\n  }\\n  else {\\n     this.document.getElementById(id).style.display="block";\\n     object.style.opacity-=-value;\\n     setTimeout(function(){fade(id,value);},100);\\n     return false;\\n  }\\n  return true;\\n}\\n\\nfunction ajax(url,sources,target) {\\n  var req = null; \\n  var ctarget=document.getElementById(target);\\n  window.status="connecting...";\\n  if(window.XMLHttpRequest)\\n     req = new XMLHttpRequest(); \\n  else if (window.ActiveXObject)\\n     req  = new ActiveXObject("Microsoft.XMLHTTP");\\n  req.onreadystatechange = function() {\\n     window.status="waiting...";\\n     if(req.readyState == 4)\\n       if(req.status == 200) {\\n          window.status=\\\'Ajax Done!\\\'\\n          try { \\n             ctarget.innerHTML=req.responseText; \\n             try {ctarget.scrollTop=ctarget.scrollHeight-ctarget.clientHeight;}\\n             catch(err) {}\\n          } catch(err) { ctarget.value=req.responseText; }\\n       } else alert("AJAX Error: " + req.status);\\n  }\\n  var query=""\\n  for(i=0; i<sources.length; i++) {\\n     if(i>0) query=query+"&";\\n     query=query+encodeURIComponent(sources[i])+"="+encodeURIComponent(document.getElementById(sources[i]).value);\\n  }\\n  req.open("POST",url,true); \\n  req.setRequestHeader("Content-Type", "application/x-www-form-urlencoded"); \\n  req.send(query); \\n} \\n//-->\\n</script>\', escape=False)\nresponse.write(\'\\n    <script type="text/javascript">\\n      <!-- /* this adds sfhover class to menu li items to make IE6 work */ jQuery(document).ready(function(){jQuery(\\\'li.web2py-menu-expand\\\').hover(function ()     {jQuery(this).addClass(\\\'sfhover\\\');},function () {jQuery(this).removeClass(\\\'sfhover\\\');});});//-->\\n    </script>\\n    <script type="text/javascript" src="/\', escape=False)\nresponse.write(this_app)\nresponse.write(\'/static/components/molhokwai/namespace.js"></script>\\n    <script type="text/javascript" src="/\', escape=False)\nresponse.write(this_app)\nresponse.write(\'/static/components/jquery/jquery-1.4.2.min.js"></script>\\n    <script type="text/javascript" src="/\', escape=False)\nresponse.write(this_app)\nresponse.write(\'/static/components/markitup/jquery.markitup.js"></script>\\n    <script type="text/javascript" src="/\', escape=False)\nresponse.write(this_app)\nresponse.write(\'/static/custom/script.js"></script>\\n    <script src="http://www.google.com/jsapi?key=ABQIAAAAhDaHyndn3TRHW8aVVgNfsBTPFwiohxerrbIfi_L7lDZ1YENwhRROxgxsy_RTT4IRmc8SWIpWu3KrsQ" type="text/javascript"></script>\\n    <script type="text/javascript" src="/\', escape=False)\nresponse.write(this_app)\nresponse.write(\'/static/components/google/search_init.js"></script>\\n    <script type="text/javascript" src="/\', escape=False)\nresponse.write(this_app)\nresponse.write(\'/static/components/jquery/add-ons.js"></script>\\n    <script type="text/javascript">\\n        $(document).ready(function(){\\n            setTimeout("$(\\\'#google_translate_element\\\').hide(\\\'slow\\\');$(\\\'#cse-search-form\\\').hide(\\\'slow\\\');$(\\\'#cli_web\\\').hide(\\\'slow\\\');", 300);\\n        });\\n\\n        var toggleUtilities=function(a){\\n            var selectors=[\\n                \\\'#google_translate_element\\\',\\n                \\\'#cse-search-form\\\',\\n                \\\'#cli_web\\\',\\n            ];\\n            \\n            for(var i=0;i<selectors.length;i++){\\n                if(a.href.indexOf(selectors[i])>=0) \\n                    $(selectors[i]).show();\\n                else \\n                    $(selectors[i]).hide();\\n            }\\n        };\\n    </script>    \\n  </head>\\n  <body>\\n     <div id="top-bar">\\n      <a href="#google_translate_element" onclick="toggleUtilities(this);" class="float-left">\', escape=False)\nresponse.write(T(\'translation\'))\nresponse.write(\' | </a>\\n      <a href="#cse-search-form" onclick="toggleUtilities(this);" class="float-left"> \', escape=False)\nresponse.write(T(\'search (google)\'))\nresponse.write(\' | </a>\\n      <a href="#cli_web" onclick="toggleUtilities(this);" class="float-left"> <em>\', escape=False)\nresponse.write(T(\'command line\'))\nresponse.write(\' | </em></a>\\n      <a href="#none" onclick="toggleUtilities(this);" class="float-left"> (\', escape=False)\nresponse.write(T(\'hide all\'))\nresponse.write(\')</a>\\n\\n       <span id="user-menu">\\n         \', escape=False)\nif \'auth\' in globals():\n    response.write(\'\\n           \', escape=False)\n    if not auth.user:\n        response.write(\' \\n             <a>]</a> \', escape=False)\n        response.write(A(T(\'login\'),_href=URL(r=request,c=\'default\',f=\'user/login\')))\n        response.write(\' <a>[</a>\\n           \', escape=False)\n    else:\n        response.write(\'\\n             \', escape=False)\n        response.write(auth.user.display_name)\n        response.write(\' \\n             \', escape=False)\n        response.write(A(T(\'logout\'),_href=URL(r=request,c=\'default\',f=\'user/logout\')))\n        response.write(\' |\\n           \', escape=False)\n        pass\n    response.write(\'\\n         \', escape=False)\n    pass\nresponse.write(\'\\n       </span> \\n      <!-- end #user-menu -->\\n\\n      <div class="clear"></div>\\n                    \\n      <div id="google_translate_element"></div>\\n      <script>\\n        function googleTranslateElementInit() {\\n          new google.translate.TranslateElement({\\n            pageLanguage: \\\'\', escape=False)\nresponse.write(current_language[:2])\nresponse.write(\'\\\'\\n          }, \\\'google_translate_element\\\');\\n        }\\n      </script><script src="http://translate.google.com/translate_a/element.js?cb=googleTranslateElementInit"></script>     \\n      <!-- end #google_translate_element-->    \\n\\n      <div class="clear"></div>\\n      \\n      <div id="cli_web">\\n        <form action="/lcs/cli_web/_do" method="post" onsubmit="return on_cli_web_submit();">\\n            <input type="text" id="_cmd" name="_cmd" />\\n            \', escape=False)\nif session.cli_web_flash:\n    response.write(\'<font class="flash small">\', escape=False)\n    response.write(session.cli_web_flash)\n    session.cli_web_flash=False\n    response.write(\'</font>\', escape=False)\n    pass\nresponse.write(\'\\n        </form>\\n      </div>\\n      <!-- end #cli_web -->\\n\\n    </div>\\n    <!-- end #top-bar-->\\n\\n    <div class="clear"></div>\\n\\n    <div id="cse-search-form">Loading</div>\\n    <script src="http://www.google.com/jsapi" type="text/javascript"></script>\\n    <script type="text/javascript">\\n      google.load(\\\'search\\\', \\\'1\\\', {language : \\\'\', escape=False)\nresponse.write(current_language[:2])\nresponse.write(\'\\\'});\\n      google.setOnLoadCallback(function() {\\n        var customSearchControl = new google.search.CustomSearchControl(\\\'014007428035866690530:qpoerqfcidu\\\');\\n        customSearchControl.setResultSetSize(google.search.Search.FILTERED_CSE_RESULTSET);\\n        var options = new google.search.DrawOptions();\\n        options.setSearchFormRoot(\\\'cse-search-form\\\');\\n      \\n        options.setAutoComplete(true);\\n        customSearchControl.draw(\\\'cse\\\', options);\\n      }, true);\\n    </script>\\n    \\n    <div id="wrapper">\\n        <span id="logo">\\n          <a class="text-decoration-none">v0.1.0</a>\\n          <!--href="/welcome/default/roadmap"-->\\n        </span>\\n        <!-- end #logo -->\\n\\n        <div id="menu-tabs">\\n          \', escape=False)\nif response.menu:\n    response.write(\'\\n                  <ul>\\n                      \', escape=False)\n    for _name,_active,_link in response.menu:\n        response.write(\'\\n                          <li><a href="\', escape=False)\n        response.write(_link)\n        response.write(\'" \', escape=False)\n        if not _active:\n            response.write(\'class="inactive"\', escape=False)\n            pass\n        response.write(\'>\', escape=False)\n        response.write(T(_name))\n        response.write(\'</a></li>\\n                      \', escape=False)\n        pass\n    response.write(\'\\n                  </ul>\\n          \', escape=False)\n    pass\nresponse.write(\'\\n        </div>\\n        <div class="clear"></div>\\n        <!-- end #menu-tabs -->\\n\\n        <div id="container">\\n          <div id="cse"></div>\\n          <!-- end #cse -->\\n\\n          <div id="content">\\n\\n            <div id="contextual-nav">\\n              <ul>\\n                  <li>                          \\n                      <h2 class="widgettitle">\', escape=False)\nresponse.write(T(\'Tags(categories)\'))\nresponse.write(\'\\n                          \', escape=False)\nif response.categories:\n    response.write(\'\\n                              \', escape=False)\n    if session.authorized:\n        response.write(\'\\n                                  <span style="font-size: .8em; font-weight: normal;">\\n                                      [<a href="/\', escape=False)\n        response.write(request.application)\n        response.write(\'/default/manage/category">\', escape=False)\n        response.write(T(\'manage\'))\n        response.write(\'</a>]\\n                                  </span>\\n                              \', escape=False)\n        pass\n    response.write(\'\\n                          \', escape=False)\n    pass\nresponse.write(\'\\n                      </h2>\\n                      <ul>\\n                          <li><a href="/\', escape=False)\nresponse.write(request.application)\nresponse.write(\'/default/index/posts">\', escape=False)\nresponse.write(T(\'view all\'))\nresponse.write(\'</a></li>\\n                          \', escape=False)\nfor _name,_count,_link in response.categories:\n    response.write(\'\\n                              <li><a href="\', escape=False)\n    response.write(_link)\n    response.write(\'">\', escape=False)\n    response.write(_name)\n    response.write(\'</a> (\', escape=False)\n    response.write(_count)\n    response.write(\')</li>\\n                          \', escape=False)\n    pass\nresponse.write(\'\\n                      </ul>                   \\n                  </li>\\n                  <!-- end sidebar categories -->\\n                  \\n                  \', escape=False)\nif response.links:\n    response.write(\'\\n                      <li>\\n                          <h2 class="widgettitle">\\n                              \', escape=False)\n    response.write(T(\'Links\'))\n    response.write(\'\\n                              \', escape=False)\n    if session.authorized:\n        response.write(\'\\n                                  <span style="font-size: .8em; font-weight: normal;">\\n                                      [<a href="/\', escape=False)\n        response.write(request.application)\n        response.write(\'/default/manage/link">\', escape=False)\n        response.write(T(\'manage\'))\n        response.write(\'</a>]\\n                                  </span>\\n                              \', escape=False)\n        pass\n    response.write(\'\\n                          </h2>\\n                          <ul>\\n                              \', escape=False)\n    for _name,_link,_id in utilities.shorten_and_randomize(response.links, 5):\n        response.write(\'\\n                                  <li>\\n                                      <a target="_blank" href="\', escape=False)\n        response.write(_link)\n        response.write(\'">\', escape=False)\n        response.write(_name)\n        response.write(\'</a>\\n                                  </li>\\n                              \', escape=False)\n        pass\n    response.write(\'\\n                          </ul>                       \\n                      </li>\\n                  \', escape=False)\n    pass\nresponse.write(\'\\n                  <!-- end sidebar links -->\\n\\n                  \', escape=False)\nif response.pages:\n    response.write(\'\\n                      <li class="pages">\\n                          <h2 class="widgettitle">\\n                              \', escape=False)\n    response.write(T(\'Pages\'))\n    response.write(\'\\n                              <span style="font-size: .8em; font-weight: normal;">\\n                                  [<a href="/\', escape=False)\n    response.write(request.application)\n    response.write(\'/default/pages">\', escape=False)\n    response.write(T(\'view all\'))\n    response.write(\'</a>]\\n                              </span>\\n                          </h2>\\n                          <ul>\\n                              \', escape=False)\n    for _name,_active,_link in utilities.shorten_and_randomize(response.pages, 10):\n        response.write(\'\\n                                  <li>\\n                                      .<a href="\', escape=False)\n        response.write(_link)\n        response.write(\'">\', escape=False)\n        response.write(T(_name))\n        response.write(\'</a>\\n                                  </li>\\n                              \', escape=False)\n        pass\n    response.write(\'\\n                          </ul>                       \\n                      </li>\\n                      <div class="clear"></div>\\n                      <br/>\\n                  \', escape=False)\n    pass\nresponse.write(\'\\n                  <!-- end sidebar links -->\\n                      \\n                  \', escape=False)\nif session.authorized:\n    response.write(\'\\n                      <li>\\n                          <h2>\', escape=False)\n    response.write(T(\'Mini Admin\'))\n    response.write(\'</h2>\\n                          <ul>\\n                              <li><a href="/\', escape=False)\n    response.write(request.application)\n    response.write(\'/default/add/page">\', escape=False)\n    response.write(T(\'add page\'))\n    response.write(\'</a></li>\\n                              <li><a href="/\', escape=False)\n    response.write(request.application)\n    response.write(\'/default/add/post">\', escape=False)\n    response.write(T(\'add post\'))\n    response.write(\'</a></li>\\n                              <li><a href="/\', escape=False)\n    response.write(request.application)\n    response.write(\'/default/manage/category/add">\', escape=False)\n    response.write(T(\'add category\'))\n    response.write(\'</a></li>\\n                          </ul>\\n                      </li>\\n                  \', escape=False)\n    pass\nresponse.write(\'\\n                  <!-- -end mini admin -->\\n\\n                  \', escape=False)\nif response.sidebar_note:\n    response.write(\'\\n                      <li>\\n                          <p>\', escape=False)\n    response.write(response.sidebar_note)\n    response.write(\'</p>\\n                      </li>   \\n                  \', escape=False)\n    pass\nresponse.write(\'\\n                  <!-- end sidebar_note -->\\n              </ul>\\n            </div>\\n            <!-- end #contextual-nav -->          \\n              \\n            \', escape=False)\nif response.flash:\n    response.write(\'\\n                <div id="flash">\', escape=False)\n    response.write(response.flash)\n    response.write(\'</div>\\n            \', escape=False)\n    pass\nresponse.write(\'\\n        \\n            \', escape=False)\nresponse.write(\'\\n\\n<BLOCKQUOTE>Erreur<BR/>\\n    \', escape=False)\nif ticket:\n    response.write(\'<b>Erreur interne</b>, ticket: <a href="/admin/default/ticket/\', escape=False)\n    response.write(ticket)\n    response.write(\'" target="_blank">\', escape=False)\n    response.write(ticket)\n    response.write(\'</a><br/>\', escape=False)\n    pass\nresponse.write(\'\\n    \', escape=False)\nif code==\'400\':\n    response.write(\'<b>Page non trouv\\xc3\\xa9e</b>, la page est introuvable...<br/>\\n    \', escape=False)\nelse:\n    if code==\'403\':\n        response.write(\'<b>Non autoris\\xc3\\xa9</b>, hummmm... besoin de permissions suppl\\xc3\\xa9mentaires, ou ceci serait-il une erreur?<br/>\\n    \', escape=False)\n    else:\n        if code==\'500\':\n            response.write(\'<b>Erreur serveur</b>, il s&#39;est pass\\xc3\\xa9 quelque chose d&#39;anormal...<br/>\', escape=False)\n            pass\n        pass\n    pass\nresponse.write(\'\\n    \', escape=False)\nif requested_uri:\n    response.write(\'<b>Requ\\xc3\\xaate (uri)</b>: \', escape=False)\n    response.write(requested_uri)\n    pass\nresponse.write(\'\\n    \', escape=False)\nif err!=\'\':\n    response.write(\'<b>Erreur</b>: \', escape=False)\n    response.write(err)\n    pass\nresponse.write(\'\\n</BLOCKQUOTE>\\n<BR>\\n<BR>\\n<BLOCKQUOTE>Error<BR/>\\n    \', escape=False)\nif ticket:\n    response.write(\'<b>Internal error</b>, ticket: <a href="/admin/default/ticket/\', escape=False)\n    response.write(ticket)\n    response.write(\'" target="_blank">\', escape=False)\n    response.write(ticket)\n    response.write(\'</a>\', escape=False)\n    pass\nresponse.write(\'<br/>\\n    \', escape=False)\nif code==\'400\':\n    response.write(\'<b>Page Not Found</b>, the page is nowhere to be found...\\n    \', escape=False)\nelse:\n    if code==\'403\':\n        response.write(\'<b>Permission denied</b>, hummmm... need extra permissions, or do we have an error here?\\n    \', escape=False)\n    else:\n        if code==\'500\':\n            response.write(\'<b>Server error</b>, something baaad happened...\', escape=False)\n            pass\n        pass\n    pass\nresponse.write(\'<br/>\\n    \', escape=False)\nif requested_uri:\n    response.write(\'<b>Requested Uri</b>: \', escape=False)\n    response.write(requested_uri)\n    pass\nresponse.write(\'\\n    \', escape=False)\nif err!=\'\':\n    response.write(\'<b>Error</b>: \', escape=False)\n    response.write(err)\n    pass\nresponse.write(\'\\n</BLOCKQUOTE>\\n\', escape=False)\nresponse.write(\'\\n          </div>\\n          <div class="clear"></div>\\n          <!-- end #content -->          \\n\\n          <div id="footer"><a \\n            title=\\\'\', escape=False)\nresponse.write(XML(T("This site is totally opened and free. You can do whatever you wish with it. And if you wish for a copy of it, just download the pages. If you wish to have the dynamic part , let us/me know and we&#39;re/I&#39;m creating a dowload section (if not already done at the time you read this).")))\nresponse.write(\'\\\'>\\n                &copy;Copynone</a>\\n            molhokwai.net, 2010 - on PyPress, a <a target="_blank" href="http://www.web2py.org">web2py<a> powered blog\\n                  on <a target="_blank" href="http://code.google.com/appengine">google app engine<a> \\n             <br/>| <a href="/cms/default/page/1517002">about us(me)</a>| <a href="/welcome/default/about">about this app</a> \\n             <br/><div id="molhokwai-addthis">\\n                    <!-- AddThis Buttons BEGIN -->\\n                    <div class="addthis_toolbox addthis_default_style float-left" style="margin-left:35%">\\n                      <a href="http://www.addthis.com/bookmark.php?v=250&amp;username=xa-4c0f94e418ef2928" class="addthis_button_compact">Share</a>\\n                      <span class="addthis_separator">|</span>\\n                      <a class="addthis_button_facebook"></a>\\n                      <a class="addthis_button_myspace"></a>\\n                      <a class="addthis_button_google"></a>\\n                      <a class="addthis_button_twitter"></a>\\n                    </div>\\n                    <script type="text/javascript" src="http://s7.addthis.com/js/250/addthis_widget.js#username=xa-4c0f94e418ef2928"></script>\\n                    <!-- AddThis Buttons END -->\\n                    <div class="clear"></div>\\n                  </div>\\n                  <!-- end #molhokwai-addthis -->\\n          </div>\\n          <!-- end #footer -->\\n\\n        </div>\\n        <!-- end #container -->\\n\\n    </div>\\n    <!-- end #wrapper -->\\n\\n    <script type="text/javascript" id="tracking_src">\\n        var gaJsHost = (("https:" == document.location.protocol) ? "https://ssl." : "http://www.");\\n        document.write(unescape("%3Cscript src=\\\'" + gaJsHost + "google-analytics.com/ga.js\\\' type=\\\'text/javascript\\\'%3E%3C/script%3E"));\\n    </script>\\n    <script type="text/javascript" id="tracking_process">\\n        try {\\n            var pageTracker = _gat._getTracker("UA-5101967-1");\\n            pageTracker._initData();\\n            pageTracker._trackPageview();\\n        }\\n        catch(e) {\\n            if (console) try{console.log(e);}catch(e){}\\n        }\\n    </script>\\n    <!-- end #tracking -->\\n\\n  </body>\\n</html>\\n\', escape=False)'
p6
sS'snapshot'
p7
(dp8
S'exception'
p9
(dp10
S'__hash__'
p11
S"<method-wrapper '__hash__' of exceptions.NameError object at 0x9faf7cc>"
p12
sS'__setattr__'
p13
S"<method-wrapper '__setattr__' of exceptions.NameError object at 0x9faf7cc>"
p14
sS'__reduce_ex__'
p15
S'<built-in method __reduce_ex__ of exceptions.NameError object at 0x9faf7cc>'
p16
sS'__getslice__'
p17
S"<method-wrapper '__getslice__' of exceptions.NameError object at 0x9faf7cc>"
p18
sS'__getitem__'
p19
S"<method-wrapper '__getitem__' of exceptions.NameError object at 0x9faf7cc>"
p20
sS'__setstate__'
p21
S'<built-in method __setstate__ of exceptions.NameError object at 0x9faf7cc>'
p22
sS'__reduce__'
p23
S'<built-in method __reduce__ of exceptions.NameError object at 0x9faf7cc>'
p24
sS'__str__'
p25
S"<method-wrapper '__str__' of exceptions.NameError object at 0x9faf7cc>"
p26
sS'args'
p27
S'("name \'utilities\' is not defined",)'
p28
sS'__getattribute__'
p29
S"<method-wrapper '__getattribute__' of exceptions.NameError object at 0x9faf7cc>"
p30
sS'__class__'
p31
S"<type 'exceptions.NameError'>"
p32
sS'__delattr__'
p33
S"<method-wrapper '__delattr__' of exceptions.NameError object at 0x9faf7cc>"
p34
sS'__repr__'
p35
S"<method-wrapper '__repr__' of exceptions.NameError object at 0x9faf7cc>"
p36
sS'__dict__'
p37
S'{}'
p38
sS'__doc__'
p39
S"'Name not found globally.'"
p40
sS'__init__'
p41
S"<method-wrapper '__init__' of exceptions.NameError object at 0x9faf7cc>"
p42
sS'__new__'
p43
S'<built-in method __new__ of type object at 0x8239980>'
p44
ssS'evalue'
p45
S"name 'utilities' is not defined"
p46
sS'request'
p47
(dp48
S'function'
p49
S"'error'"
p50
sS'body'
p51
S'<cStringIO.StringO object at 0x9fa5ca0>'
p52
sS'wsgi'
p53
S"<Storage {'start_response': <function <lambda> a...ING': 'gzip,deflate', 'HTTP_KEEP_ALIVE': '115'}}>"
p54
sS'extension'
p55
S"'html'"
p56
sS'vars'
p57
S"<Storage {'ticket': '0/127.0.0.1.2011-01-31.15-2...: '/cms/default/error', 'requested_uri': 'None'}>"
p58
sS'cid'
p59
S'None'
p60
sS'url'
p61
S'<gluon.html.XML object at 0x9fa5d8c>'
p62
sS'raw_extension'
p63
S'None'
p64
sg27
S'[]'
p65
sS'controller'
p66
S"'default'"
p67
sS'cookies'
p68
S"<SimpleCookie: SESS29af1facda0a866a687d5055f2fad...bc0c086-0f6d-4a1f-8e43-a9445d594d30' theme='cms'>"
p69
sS'application'
p70
S"'0'"
p71
sS'ajax'
p72
S'False'
p73
sS'client'
p74
S"'127.0.0.1'"
p75
sS'env'
p76
S"<Storage {'wsgi_multithread': True, 'http_accept...nput': <socket._fileobject object at 0x9f8c0d4>}>"
p77
sS'raw_args'
p78
S'None'
p79
sS'get_vars'
p80
S"<Storage {'ticket': '0/127.0.0.1.2011-01-31.15-2...: '/cms/default/error', 'requested_uri': 'None'}>"
p81
sS'folder'
p82
S"'/home/herve/development/workspaces/molhokwai.net/web/applications/cms/'"
p83
sS'now'
p84
S'datetime.datetime(2011, 1, 31, 15, 24, 42, 787055)'
p85
sS'post_vars'
p86
S'<Storage {}>'
p87
ssS'frames'
p88
(lp89
(dp90
S'file'
p91
S'/home/herve/development/workspaces/molhokwai.net/web/gluon/restricted.py'
p92
sS'dump'
p93
(dp94
S'environment'
p95
S"{'A': <class 'gluon.html.A'>, 'AppDetails': <class __builtin__.AppDetails at 0x9fa4d7c>, 'Auth': <class 'gluon.tools.Auth'>, 'B': <class 'gluon.html.B'>, 'BEAUTIFY': <class 'gluon.html.BEAUTIFY'>, 'BODY': <class 'gluon.html.BODY'>, 'BR': <class 'gluon.html.BR'>, 'CENTER': <class 'gluon.html.CENTER'>, 'CLEANUP': <class 'gluon.validators.CLEANUP'>, 'CODE': <class 'gluon.html.CODE'>, ...}"
p96
sS'ccode'
p97
S'<code object <module> at 0x9f9d020, file "/home/...plications/cms/views/default/error.html", line 1>'
p98
ssS'lnum'
p99
I188
sS'lines'
p100
(dp101
I192
S'        # XXX Show exception in Wing IDE if running in debugger'
p102
sI183
S'        if type(code) == types.CodeType:'
p103
sI184
S'            ccode = code'
p104
sI185
S'        else:'
p105
sI186
S'            ccode = compile2(code,layer)'
p106
sI187
S''
sI188
S'        exec ccode in environment'
p107
sI189
S'    except HTTP:'
p108
sI190
S'        raise'
p109
sI191
S'    except Exception:'
p110
ssS'call'
p111
S'(code=\'response.write(\\\'<!DOCTYPE html PUBLIC "-//W3C//D...cking -->\\\\n\\\\n  </body>\\\\n</html>\\\\n\\\', escape=False)\', environment={\'A\': <class \'gluon.html.A\'>, \'AppDetails\': <class __builtin__.AppDetails at 0x9fa4d7c>, \'Auth\': <class \'gluon.tools.Auth\'>, \'B\': <class \'gluon.html.B\'>, \'BEAUTIFY\': <class \'gluon.html.BEAUTIFY\'>, \'BODY\': <class \'gluon.html.BODY\'>, \'BR\': <class \'gluon.html.BR\'>, \'CENTER\': <class \'gluon.html.CENTER\'>, \'CLEANUP\': <class \'gluon.validators.CLEANUP\'>, \'CODE\': <class \'gluon.html.CODE\'>, ...}, layer=\'/home/herve/development/workspaces/molhokwai.net/web/applications/cms/views/default/error.html\')'
p112
sS'func'
p113
S'restricted'
p114
sa(dp115
g91
S'/home/herve/development/workspaces/molhokwai.net/web/applications/cms/views/default/error.html'
p116
sg93
(dp117
sg99
I134
sg100
(dp118
I128
S'        response.write(request.application)'
p119
sI129
S'        response.write(\'/default/manage/link">\', escape=False)'
p120
sI130
S"        response.write(T('manage'))"
p121
sI131
S"        response.write('</a>]\\n                                  </span>\\n                              ', escape=False)"
p122
sI132
S'        pass'
p123
sI133
S"    response.write('\\n                          </h2>\\n                          <ul>\\n                              ', escape=False)"
p124
sI134
S'    for _name,_link,_id in utilities.shorten_and_randomize(response.links, 5):'
p125
sI135
S'        response.write(\'\\n                                  <li>\\n                                      <a target="_blank" href="\', escape=False)'
p126
sI136
S'        response.write(_link)'
p127
sI137
S'        response.write(\'">\', escape=False)'
p128
sI138
S'        response.write(_name)'
p129
sI139
S"        response.write('</a>\\n                                  </li>\\n                              ', escape=False)"
p130
sI140
S'        pass'
p131
sI141
S"    response.write('\\n                          </ul>                       \\n                      </li>\\n                  ', escape=False)"
p132
sI142
S'    pass'
p133
sI143
S"response.write('\\n                  <!-- end sidebar links -->\\n\\n                  ', escape=False)"
p134
sI144
S'if response.pages:'
p135
sI125
S"    response.write('\\n                              ', escape=False)"
p136
sI126
S'    if session.authorized:'
p137
sI127
S'        response.write(\'\\n                                  <span style="font-size: .8em; font-weight: normal;">\\n                                      [<a href="/\', escape=False)'
p138
ssg111
S'()'
p139
sg113
S'<module>'
p140
sasS'pyver'
p141
S'Python 2.5.1: /usr/local/bin/python'
p142
sS'session'
p143
(dp144
S'_formkey[posts_35]'
p145
S"'d096dedb-a48b-4085-8345-88d43dcdcd12'"
p146
sS'flash'
p147
S'None'
p148
sS'authorized'
p149
S'True'
p150
sS'auth'
p151
S"<Storage {'expiration': 3600, 'user': <Storage {..., 1, 31, 15, 24, 42, 787055), 'remember': False}>"
p152
sS'user_authorization_done'
p153
g150
ssS'etype'
p154
S"<type 'exceptions.NameError'>"
p155
sS'date'
p156
S'Mon Jan 31 15:24:42 2011'
p157
sS'response'
p158
(dp159
S'_vars'
p160
S"{'code': '500', 'err': '', 'requested_uri': None, 'ticket': '0/127.0.0.1.2011-01-31.15-24-42.6da52dd0-16ab-49a3-9783-3186ffbd1848'}"
p161
sg68
S"<SimpleCookie: session_id_cms='127.0.0.1-bbc0c086-0f6d-4a1f-8e43-a9445d594d30'>"
p162
sS'links'
p163
S"[['web2py', 'http://www.web2py.com', 1], ['Python', 'http://www.python.org', 2], ['DePaul CTI', 'http://www.cs.depaul.edu', 3], ['DePaul University', 'http://www.depaul.edu', 5], ['downloads', '/a/default/page/32', 15], ['media / picasa / gallery', '/a/media/picasa/gallery', 16], ['manage media / manage picasa albums / manage photos', '/a/media/picasa/albums', 17], ['setup, application initialization', '/a/setup', 18], ['twitter', '/a/media/social/twitter', 19]]"
p164
sS'themes'
p165
S"['0', '1', 'cms']"
p166
sS'meta'
p167
S'<Storage {}>'
p168
sS'anon_user'
p169
S"<Row {'auth_event': <gluon.dal.Set object at 0x9...elete_record': <function <lambda> at 0x9fa948c>}>"
p170
sS'_view_environment'
p171
S"{'A': <class 'gluon.html.A'>, 'AppDetails': <class __builtin__.AppDetails at 0x9fa4d7c>, 'Auth': <class 'gluon.tools.Auth'>, 'B': <class 'gluon.html.B'>, 'BEAUTIFY': <class 'gluon.html.BEAUTIFY'>, 'BODY': <class 'gluon.html.BODY'>, 'BR': <class 'gluon.html.BR'>, 'CENTER': <class 'gluon.html.CENTER'>, 'CLEANUP': <class 'gluon.validators.CLEANUP'>, 'CODE': <class 'gluon.html.CODE'>, ...}"
p172
sS'keywords'
p173
S"'blog, weblog, journal, web, log, web2py, pypress...straight-forward, direct, programming, programmer'"
p174
sS'files'
p175
S'[<gluon.html.XML object at 0x9f9e18c>, <gluon.html.XML object at 0x9fa5d0c>]'
p176
sS'_caller'
p177
S'<function <lambda> at 0x9f99df4>'
p178
sS'title'
p179
S'"molhokwai.net - \'a\' cm/dms"'
p180
sS'home_page'
p181
S"<Row {'post_text_TCode': 'page_id_24', 'post_att...elete_record': <function <lambda> at 0x9fa9fb4>}>"
p182
sS'menu'
p183
S"[['home', False, '/cms/default/page/16']]"
p184
sS'flash'
p185
S"''"
p186
sS'theme'
p187
S"'cms'"
p188
sS'session_file'
p189
S"<open file '/home/herve/development/workspaces/m...4a1f-8e43-a9445d594d30', mode 'rb+' at 0x9f9dba8>"
p190
sS'_custom_commit'
p191
S'None'
p192
sS'session_filename'
p193
S"'/home/herve/development/workspaces/molhokwai.net...ns/127.0.0.1-bbc0c086-0f6d-4a1f-8e43-a9445d594d30'"
p194
sg51
S'<cStringIO.StringO object at 0x9f77680>'
p195
sS'description'
p196
S'"molhokwai.net - \'a\' cm/dms, lightweight, simple, straight & direct"'
p197
sS'session_id_name'
p198
S"'session_id_cms'"
p199
sS'_custom_rollback'
p200
S'None'
p201
sS'pages'
p202
S"[['beliefs', False, '/cms/default/page/15'], ['home', False, '/cms/default/page/16'], ['community', False, '/cms/default/page/18'], ['SMS', False, '/cms/default/page/21'], ['', False, '/cms/default/page/23'], ['a_home', False, '/cms/default/page/24'], ['a_help', False, '/cms/default/page/26'], ['help', False, '/cms/default/page/27'], ['a_home', False, '/cms/default/page/29'], ['siblos', False, '/cms/default/page/30'], ['dev', False, '/cms/default/page/31'], ['downloads', False, '/cms/default/page/32'], ['themes', False, '/cms/default/page/35'], ['media upload', False, '/cms/default/page/36'], ['acknowledgements', False, '/cms/default/page/37']]"
p203
sS'categories'
p204
S"[['misc', 2, '/cms/default/category/misc'], ['message', 1, '/cms/default/category/message']]"
p205
sS'help_page'
p206
S"<Row {'post_text_TCode': 'page_id_26', 'post_att...elete_record': <function <lambda> at 0xa09c064>}>"
p207
sS'session_id'
p208
S"'127.0.0.1-bbc0c086-0f6d-4a1f-8e43-a9445d594d30'"
p209
sS'headers'
p210
S"<Storage {'Expires': 'Mon, 31 Jan 2011 14:24:42 ...he, must-revalidate, post-check=0, pre-check=0'}>"
p211
sS'status'
p212
S'200'
p213
sS'postprocessing'
p214
S'[]'
p215
sS'auth_users'
p216
S'<gluon.dal.Rows object at 0x9faf9ec>'
p217
sS'view'
p218
S"'default/error.html'"
p219
ssS'locals'
p220
(dp221
g5
S"'500'"
p222
sS'protocol'
p223
S"'http'"
p224
sS'app_details'
p225
S'<__builtin__.AppDetails instance at 0x9faf42c>'
p226
sS'Service'
p227
S"<class 'gluon.tools.Service'>"
p228
sS'OBJECT'
p229
S"<class 'gluon.html.OBJECT'>"
p230
sS'SQLDB'
p231
S"<class 'gluon.dal.DAL'>"
p232
sg143
S"<Storage {'_formkey[posts_35]': 'd096dedb-a48b-4...mber': False}>, 'user_authorization_done': True}>"
p233
sS'LINK'
p234
S"<class 'gluon.html.LINK'>"
p235
sS'BR'
p236
S"<class 'gluon.html.BR'>"
p237
sS'local_import'
p238
S'<function <lambda> at 0x9fa202c>'
p239
sS'OPTGROUP'
p240
S"<class 'gluon.html.OPTGROUP'>"
p241
sS'expressions'
p242
S'{\'rel_url_and_end_tags_find\': [\'[0-9]{0,1}/[-A-Za-z0-9_\\\\$\\\\.\\\\+\\\\!\\\\*\\\\(\\\\),;:@&=\\\\?/~\\\\#\\\\%]*[^]\\\'\\\\.}>\\\\),\\\\"]\'], \'url_find\': [\'([0-9]{1,3}\\\\.[0-9]{1,3}\\\\.[0-9]{1,3}\\\\.[0-9]{1,3}|...z0-9_\\\\$\\\\.\\\\+\\\\!\\\\*\\\\(\\\\),;:@&=\\\\?/~\\\\#\\\\%]*[^]\\\'\\\\.}>\\\\),\\\\"]\', r\'([0-9]{1,3}\\.[0-9]{1,3}\\.[0-9]{1,3}\\.[0-9]{1,3}|...ww|ftp)[-A-Za-z0-9]*\\.)[-A-Za-z0-9\\.]+)(:[0-9]*)?\', r\'(~/|/|\\./)([-A-Za-z0-9_\\$\\.\\+\\!\\*\\(\\),;:@&=\\?/~\\#\\%]|\\\\)+\', r"\'\\<((mailto:)|)[-A-Za-z0-9\\.]+@[-A-Za-z0-9\\.]+"]}'
p243
sS'link_labels'
p244
S"{'link_title': 'Name', 'link_url': 'URL'}"
p245
sS'PRE'
p246
S"<class 'gluon.html.PRE'>"
p247
sS'IS_INT_IN_RANGE'
p248
S"<class 'gluon.validators.IS_INT_IN_RANGE'>"
p249
sS'IS_LOWER'
p250
S"<class 'gluon.validators.IS_LOWER'>"
p251
sS'IS_STRONG'
p252
S"<class 'gluon.validators.IS_STRONG'>"
p253
sS'Recaptcha'
p254
S"<class 'gluon.tools.Recaptcha'>"
p255
sS'cache'
p256
S'<gluon.cache.Cache object at 0x9fa536c>'
p257
sS'_link'
p258
S"'/cms/default/category/message'"
p259
sS'IS_IN_DB'
p260
S"<class 'gluon.validators.IS_IN_DB'>"
p261
sS'TAG'
p262
S'<gluon.html.__TAG__ object at 0x33f1cc>'
p263
sS'SQLField'
p264
S"<class 'gluon.dal.Field'>"
p265
sS'BODY'
p266
S"<class 'gluon.html.BODY'>"
p267
sS'IS_DATE_IN_RANGE'
p268
S"<class 'gluon.validators.IS_DATE_IN_RANGE'>"
p269
sS'IS_NULL_OR'
p270
S"<class 'gluon.validators.IS_EMPTY_OR'>"
p271
sS'TH'
p272
S"<class 'gluon.html.TH'>"
p273
sS'URL'
p274
S'<function _URL at 0x9fa2294>'
p275
sS'db'
p276
S"<DAL {'auth_permission': <Table {'ALL': <gluon.d..._name': <gluon.dal.Field object at 0x9fb2f4c>}>}>"
p277
sS'auth'
p278
S'<gluon.tools.Auth object at 0x9fa562c>'
p279
sS'P'
S"<class 'gluon.html.P'>"
p280
sS'TFOOT'
p281
S"<class 'gluon.html.TFOOT'>"
p282
sS'ticket'
p283
S"'0/127.0.0.1.2011-01-31.15-24-42.6da52dd0-16ab-49a3-9783-3186ffbd1848'"
p284
sS'datetime'
p285
S"<module 'datetime' from '/usr/local/lib/python2.5/lib-dynload/datetime.so'>"
p286
sS'ON'
p287
g150
sS'OL'
p288
S"<class 'gluon.html.OL'>"
p289
sS'TEXTAREA'
p290
S"<class 'gluon.html.TEXTAREA'>"
p291
sS'MENU'
p292
S"<class 'gluon.html.MENU'>"
p293
sS'a_convert'
p294
S'<__builtin__.aConvert instance at 0x9faf44c>'
p295
sS'EM'
p296
S"<class 'gluon.html.EM'>"
p297
sS'CODE'
p298
S"<class 'gluon.html.CODE'>"
p299
sS'HTTP'
p300
S"<class 'gluon.http.HTTP'>"
p301
sS'url_finders'
p302
S'[<_sre.SRE_Pattern object at 0x9e95a38>, <_sre.SRE_Pattern object at 0x9e95708>, <_sre.SRE_Pattern object at 0x9f68020>, <_sre.SRE_Pattern object at 0x9d8b6b0>]'
p303
sS'log_wrapped'
p304
S'<function log_wrapped at 0x9fa9b54>'
p305
sS'HR'
p306
S"<class 'gluon.html.HR'>"
p307
sS'comment_labels'
p308
S"{'comment_author': 'Name', 'comment_author_email': 'Email', 'comment_author_website': 'Website', 'comment_text': 'Comment', 'post_id': 'Post ID'}"
p309
sS'IS_DATETIME'
p310
S"<class 'gluon.validators.IS_DATETIME'>"
p311
sS'HEAD'
p312
S"<class 'gluon.html.HEAD'>"
p313
sS'LABEL'
p314
S"<class 'gluon.html.LABEL'>"
p315
sS'cat_labels'
p316
S"{'category_name': 'Name'}"
p317
sS'META'
p318
S"<class 'gluon.html.META'>"
p319
sS'print_wrapped'
p320
S'<function print_wrapped at 0x9fa28b4>'
p321
sS'SELECT'
p322
S"<class 'gluon.html.SELECT'>"
p323
sS'CENTER'
p324
S"<class 'gluon.html.CENTER'>"
p325
sS'prettydate'
p326
S'<function prettydate at 0x9df30d4>'
p327
sS'Crud'
p328
S"<class 'gluon.tools.Crud'>"
p329
sS'Auth'
p330
S"<class 'gluon.tools.Auth'>"
p331
sS'IS_EQUAL_TO'
p332
S"<class 'gluon.validators.IS_EQUAL_TO'>"
p333
sS'IS_LIST_OF'
p334
S"<class 'gluon.validators.IS_LIST_OF'>"
p335
sS'SQLFORM'
p336
S"<class 'gluon.sqlhtml.SQLFORM'>"
p337
sS'file_labels'
p338
S"{'file': 'File', 'filename': 'Enter file name'}"
p339
sS'LOAD'
p340
S'<gluon.compileapp.LoadFactory object at 0x9fa5f6c>'
p341
sS'redirect'
p342
S'<function redirect at 0x77a25c>'
p343
sS'FIELDSET'
p344
S"<class 'gluon.html.FIELDSET'>"
p345
sS'__builtins__'
p346
S"{'ArithmeticError': <type 'exceptions.ArithmeticError'>, 'AssertionError': <type 'exceptions.AssertionError'>, 'AttributeError': <type 'exceptions.AttributeError'>, 'BaseException': <type 'exceptions.BaseException'>, 'DeprecationWarning': <type 'exceptions.DeprecationWarning'>, 'EOFError': <type 'exceptions.EOFError'>, 'Ellipsis': Ellipsis, 'EnvironmentError': <type 'exceptions.EnvironmentError'>, 'Exception': <type 'exceptions.Exception'>, 'False': False, ...}"
p347
sS'embed64'
p348
S'<function embed64 at 0x33daac>'
p349
sS'INPUT'
p350
S"<class 'gluon.html.INPUT'>"
p351
sS'EMBED'
p352
S"<class 'gluon.html.EMBED'>"
p353
sS'IS_IMAGE'
p354
S"<class 'gluon.validators.IS_IMAGE'>"
p355
sS'H2'
p356
S"<class 'gluon.html.H2'>"
p357
sS'H3'
p358
S"<class 'gluon.html.H3'>"
p359
sS'H1'
p360
S"<class 'gluon.html.H1'>"
p361
sS'H6'
p362
S"<class 'gluon.html.H6'>"
p363
sS'H4'
p364
S"<class 'gluon.html.H4'>"
p365
sS'H5'
p366
S"<class 'gluon.html.H5'>"
p367
sS'UL'
p368
S"<class 'gluon.html.UL'>"
p369
sS'IS_UPPER'
p370
S"<class 'gluon.validators.IS_UPPER'>"
p371
sS'xmlescape'
p372
S'<function xmlescape at 0x33d4c4>'
p373
sS'IS_TIME'
p374
S"<class 'gluon.validators.IS_TIME'>"
p375
sS'OPTION'
p376
S"<class 'gluon.html.OPTION'>"
p377
sS'TITLE'
p378
S"<class 'gluon.html.TITLE'>"
p379
sS'CRYPT'
p380
S"<class 'gluon.validators.CRYPT'>"
p381
sS'administrators_emails'
p382
S"['molhokwai@gmail.com']"
p383
sS'IS_EMPTY_OR'
p384
S"<class 'gluon.validators.IS_EMPTY_OR'>"
p385
sS'MARKMIN'
p386
S"<class 'gluon.html.MARKMIN'>"
p387
sS'current_language'
p388
S"'en-en'"
p389
sS'this_app'
p390
S"'cms'"
p391
sS'AppDetails'
p392
S'<class __builtin__.AppDetails at 0x9fa4d7c>'
p393
sS'Struct'
p394
S'<class __builtin__.Struct at 0x9fa46bc>'
p395
sS'service'
p396
S'<gluon.tools.Service object at 0x9f9e8ec>'
p397
sS'SCRIPT'
p398
S"<class 'gluon.html.SCRIPT'>"
p399
sS'geocode'
p400
S'<function geocode at 0x9df2aac>'
p401
sS'TABLE'
p402
S"<class 'gluon.html.TABLE'>"
p403
sS'IS_IPV4'
p404
S"<class 'gluon.validators.IS_IPV4'>"
p405
sS'IS_LENGTH'
p406
S"<class 'gluon.validators.IS_LENGTH'>"
p407
sS'XML'
p408
S"<class 'gluon.html.XML'>"
p409
sS'B'
S"<class 'gluon.html.B'>"
p410
sS'IMG'
p411
S"<class 'gluon.html.IMG'>"
p412
sS'SQLTABLE'
p413
S"<class 'gluon.sqlhtml.SQLTABLE'>"
p414
sS'IS_MATCH'
p415
S"<class 'gluon.validators.IS_MATCH'>"
p416
sS'IS_ALPHANUMERIC'
p417
S"<class 'gluon.validators.IS_ALPHANUMERIC'>"
p418
sS'requested_uri'
p419
S'None'
p420
sS'SPAN'
p421
S"<class 'gluon.html.SPAN'>"
p422
sS'err'
p423
S"''"
p424
sS'IS_SLUG'
p425
S"<class 'gluon.validators.IS_SLUG'>"
p426
sS'CLEANUP'
p427
S"<class 'gluon.validators.CLEANUP'>"
p428
sS'XHTML'
p429
S"<class 'gluon.html.XHTML'>"
p430
sS'fetch'
p431
S'<function fetch at 0x9df2a04>'
p432
sS'IS_DATE'
p433
S"<class 'gluon.validators.IS_DATE'>"
p434
sS'IS_EMAIL'
p435
S"<class 'gluon.validators.IS_EMAIL'>"
p436
sS'IS_NOT_EMPTY'
p437
S"<class 'gluon.validators.IS_NOT_EMPTY'>"
p438
sg47
S"<Storage {'function': 'error', 'body': <cStringI... 15, 24, 42, 787055), 'post_vars': <Storage {}>}>"
p439
sS'BEAUTIFY'
p440
S"<class 'gluon.html.BEAUTIFY'>"
p441
sS'TBODY'
p442
S"<class 'gluon.html.TBODY'>"
p443
sS'Field'
p444
S"<class 'gluon.dal.Field'>"
p445
sS'Mail'
p446
S"<class 'gluon.tools.Mail'>"
p447
sS'DIV'
p448
S"<class 'gluon.html.DIV'>"
p449
sS'_name'
p450
S"'message'"
p451
sS'LEGEND'
p452
S"<class 'gluon.html.LEGEND'>"
p453
sS'post_labels'
p454
S"{'post_category': 'Category', 'post_text': 'Post', 'post_text_TCode': 'Translation code (code & language texts must be set in the translation files)', 'post_time': 'Post Date', 'post_title': 'Title', 'post_type': 'Type', 'show_in_menu': 'Show in menu'}"
p455
sS'global_site_url'
p456
S"'http://localhost:8001'"
p457
sS'DAL'
p458
S"<class 'gluon.dal.DAL'>"
p459
sS'TT'
p460
S"<class 'gluon.html.TT'>"
p461
sS'TR'
p462
S"<class 'gluon.html.TR'>"
p463
sS'this_app_url'
p464
S"'http://localhost:8001/cms'"
p465
sS'LI'
p466
S"<class 'gluon.html.LI'>"
p467
sS'IFRAME'
p468
S"<class 'gluon.html.IFRAME'>"
p469
sS'TD'
p470
S"<class 'gluon.html.TD'>"
p471
sS'PluginManager'
p472
S"<class 'gluon.tools.PluginManager'>"
p473
sS'IS_URL'
p474
S"<class 'gluon.validators.IS_URL'>"
p475
sS'A'
S"<class 'gluon.html.A'>"
p476
sS'STYLE'
p477
S"<class 'gluon.html.STYLE'>"
p478
sS'rel_url_and_end_tags_finders'
p479
S'[<_sre.SRE_Pattern object at 0x9f03700>]'
p480
sS'IS_DATETIME_IN_RANGE'
p481
S"<class 'gluon.validators.IS_DATETIME_IN_RANGE'>"
p482
sS'HTML'
p483
S"<class 'gluon.html.HTML'>"
p484
sS'FORM'
p485
S"<class 'gluon.html.FORM'>"
p486
sS'I'
S"<class 'gluon.html.I'>"
p487
sS'crud'
p488
S'<gluon.tools.Crud object at 0x9f9e04c>'
p489
sS'IS_NOT_IN_DB'
p490
S"<class 'gluon.validators.IS_NOT_IN_DB'>"
p491
sS'aConvert'
p492
S'<class __builtin__.aConvert at 0x9fa46ec>'
p493
sS'app_config'
p494
S'<Row {\'APP_METAS\': ["molhokwai.net - \'a\' cm/dms"...elete_record\': <function <lambda> at 0x9fa20d4>}>'
p495
sg158
S"<Storage {'body': <cStringIO.StringO object at 0...da> at 0x9f99df4>, 'view': 'default/error.html'}>"
p496
sS'THEAD'
p497
S"<class 'gluon.html.THEAD'>"
p498
sS'_count'
p499
S'1'
sS'_active'
p500
g73
sS'IS_FLOAT_IN_RANGE'
p501
S"<class 'gluon.validators.IS_FLOAT_IN_RANGE'>"
p502
sS'IS_EXPR'
p503
S"<class 'gluon.validators.IS_EXPR'>"
p504
sS'T'
S'<gluon.languages.translator object at 0x9fa546c>'
p505
sS'RPXAccount'
p506
S"<class 'gluon.contrib.login_methods.rpx_account.RPXAccount'>"
p507
sS'IS_IN_SET'
p508
S"<class 'gluon.validators.IS_IN_SET'>"
p509
sS'IS_UPLOAD_FILENAME'
p510
S"<class 'gluon.validators.IS_UPLOAD_FILENAME'>"
p511
sS're'
p512
S"<module 're' from '/usr/local/lib/python2.5/re.pyc'>"
p513
sS'IS_DECIMAL_IN_RANGE'
p514
S"<class 'gluon.validators.IS_DECIMAL_IN_RANGE'>"
p515
sssS'traceback'
p516
S'Traceback (most recent call last):\n  File "/home/herve/development/workspaces/molhokwai.net/web/gluon/restricted.py", line 188, in restricted\n    exec ccode in environment\n  File "/home/herve/development/workspaces/molhokwai.net/web/applications/cms/views/default/error.html", line 134, in <module>\nNameError: name \'utilities\' is not defined\n'
p517
s.