(dp1
S'output'
p2
S'Unable to open included view file: /home/herve/development/workspaces/molhokwai.net/web/applications/a/views/themes/0/sidebar/ff0000.html'
p3
sS'layer'
p4
S"'themes/%s/layout.html' % response.theme"
p5
sS'code'
p6
S'<!DOCTYPE html PUBLIC "-//W3C//DTD XHTML 1.0 Transitional//EN" "http://www.w3.org/TR/xhtml1/DTD/xhtml1-transitional.dtd">\n<html xmlns="http://www.w3.org/1999/xhtml" xml:lang="{{=T.accepted_language or \'en\'}}">\n\n  <head>\n    <title>{{if response.title:}}{{=response.title}}{{else:}}{{=URL(r=request)}}{{pass}}</title>\n\n    <title>{{=response.title or request.application}}</title>\n    <meta http-equiv="Content-Type" content="text/html; charset=UTF-8" />\n    <meta name="keywords" content="{{=response.keywords}}" />\n    <meta name="description" content="{{=response.description}}" />\n    <meta name="google-site-verification" content="r0Pfq2q9SK7Pk9gkh1NnbsV28-mQoD8LoIGOeUhfer8" />\n    {{if response.refresh:}}{{=XML(response.refresh)}}{{pass}}\n    \n    <link rel="stylesheet" href="/{{=this_app}}/static/css/_base.css" type="text/css" media="screen" />\n    <link rel="stylesheet" href="/{{=this_app}}/static/css/base.css" type="text/css" media="screen" />\n    <link rel="stylesheet" href="/{{=this_app}}/static/css/themes/{{=response.theme}}/base.css" type="text/css" media="screen" />\n    {{if response.child_theme and response.theme_stylesheet:}}\n        <link rel="stylesheet" href="{{=response.theme_stylesheet}}" media="screen" />\n    {{pass}}\n    <link rel="stylesheet" href="/{{=this_app}}/static/components/markitup/style.css" type="text/css" media="screen" />\n    <link rel="stylesheet" href="/{{=this_app}}/static/components/markitup/sets/default/style.css" type="text/css" media="screen" />\n    <style type="text/css"></style>\n    \n    {{include \'web2py_ajax.html\'}}\n\n    <script type="text/javascript">\n      var server={\n          request : {\n              application : \'{{=tentative_app}}\'\n          },\n          pages : []\n      };\n    </script>\n    <script type="text/javascript" src="/{{=this_app}}/static/components/net.molhokwai/molhokwai.common.js"></script>\n    <script type="text/javascript" src="/{{=this_app}}/static/components/jquery/jquery-1.4.2.min.js"></script>\n    <script type="text/javascript" src="/{{=this_app}}/static/components/jquery/add-ons.js"></script>\n    <script type="text/javascript" src="/{{=this_app}}/static/components/markitup/jquery.markitup.js"></script>\n    <script type="text/javascript" src="/{{=this_app}}/static/custom/script.js"></script>\n    <script src="http://www.google.com/jsapi?key=ABQIAAAAhDaHyndn3TRHW8aVVgNfsBTPFwiohxerrbIfi_L7lDZ1YENwhRROxgxsy_RTT4IRmc8SWIpWu3KrsQ" type="text/javascript"></script>\n    <script type="text/javascript" src="/{{=this_app}}/static/components/google/search_init.js"></script>\n    <script type="text/javascript">\n      if ({{=str(refresh_page).lower()}}){\n          window.location.reload();\n      }\n      \n      $(document).ready(function(){\n          var browser_not=true;\n          try { \n              browser_not=!($.browser.mozilla || $.browser.webkit); \n          }\n          catch(e) {} \n          if (browser_not){\n              $(\'#content\').append(\'<div class="text-alignc margt5pc"><em>{{=T("(Graphical design not tested (corrected) on this browser...)")}}</em></div>\');\n          }\n      });      \n    </script>\n\n  </head>\n\n  <body>\n\n    <div id="wrapper" class="margt2pc  width60pc">\n\n      <div id="user-menu" class="right">\n         {{ if \'auth\' in globals():}}\n           {{if not auth.user:}} \n             {{=A(T(\'login\'),_href=URL(r=request,c=\'default\',f=\'user/login\'))}}\n           {{else:}}\n             <!-- {{=auth.user.display_name}} -->\n             {{=A(T(\'logout\'),_href=URL(r=request,c=\'default\',f=\'user/logout\'))}} | \n           {{pass}}\n         {{pass}}\n      </div>\n      <!-- end #user-menu -->\n\n      <div id="cli_web" class="left margt2pc  width100pc">\n        <form onsubmit="return false;">\n            <input type="text" id="_cmd" name="_cmd" class="width30pc transparent"/>\n            <font id="_cmd_msg" class="flash small">\n                {{if session.cli_web_flash:}}{{=session.cli_web_flash}}{{ session.cli_web_flash=False }}{{pass}}\n                {{flash = session.flash if session.flash else response.flash}}\n                {{if flash:}}{{=XML(flash)}}{{pass}}\n            </font>\n            <input type="hidden" id="_cmd_history_cur" value="-1"/>\n        </form>\n      </div>\n      <!-- end #cli_web -->\n    \n      <div id="content" class="padl3pc left margt5pc width100pc">\n        <div id="searchcontrol"></div>\n        {{include}}\n      </div>\n      <!-- end #content -->\n\n      <div id="sidebar" class="right width30pc text-alignr">\n        <div id="sidebar-content" class="display-none">\n          <!-- #sidebar menu deactivated. See cms theme foreventual reactivation -->\n          {{include "themes/%s/sidebar/%s.html"%(response.theme, tentative_app)}}\n        </div>\n        <!-- end #sidebar-content -->\n      </div>\n      <!-- end #sidebar -->\n\n      <div id="utility" class="clear">&nbsp;</div>\n\n      <div id="footer">\n          {{=A(T(\'acknowledgements\'), _href=URL( r=request, c=\'default\', f=\'page\', args=[\'acknowledgements\']))}}\n          {{=A(T(\'sidebar\'), _href=\'javascript:return false;\',  _onclick=\'$("#sidebar-content").toggle();\')}}\n      </div>\n        \n    </div>\n    <!-- end #wrapper -->\n\n    <div id="tracking">\n        <script type="text/javascript" id="tracking_src">\n            var gaJsHost = (("https:" == document.location.protocol) ? "https://ssl." : "http://www.");\n            document.write(unescape("%3Cscript src=\'" + gaJsHost + "google-analytics.com/ga.js\' type=\'text/javascript\'%3E%3C/script%3E"));\n        </script>\n        <script type="text/javascript" id="tracking_process">\n            try {\n                var pageTracker = _gat._getTracker("UA-5101967-1");\n                pageTracker._initData();\n                pageTracker._trackPageview();\n            }\n            catch(e) {\n                if (console) try{console.log(e);}catch(e){}\n            }\n        </script>\n    </div>    \n    <!-- end #tracking -->\n\n    <div id="links">\n             {{=A(T(\'add page/post\'),_href=URL(r=request,c=\'default\',f=\'add/page\'), _class=\'color-transparent\')}}\n             {{\n                 _post=None\n                 try: _post=post\n                 except Exception, ex: pass\n             }}\n             {{if _post:}}\n                 {{if _post.post_type==\'page\':}}\n                     {{=A(T(\'edit page/post ?\'),_href=URL(r=request,c=\'default\',f=\'edit/page/%i\' % _post.id), _class=\'color-transparent\')}}\n                 {{else:}}\n                     {{=A(T(\'edit page/post ?\'),_href=URL(r=request,c=\'default\',f=\'edit/post/%i\' % _post.id), _class=\'color-transparent\')}}\n                 {{pass}}\n             {{pass}}\n             {{if response.home_page:}}\n                 {{=A(T(\'root\'),_href=URL(r=request,c=\'default\',f=\'page/%i\' % response.home_page.id), _class=\'color-transparent\')}}\n             {{pass}}\n             {{if response.help_page:}}\n                 {{=A(T(\'help\'),_href=URL(r=request,c=\'default\',f=\'page/%i\' % response.help_page.id), _class=\'color-transparent\')}}\n             {{pass}}\n             \n             {{=A(T(\'links\'),_href=URL(r=request,c=\'default\',f=\'manage/link\'), _class=\'color-transparent\')}}\n             {{if response.links:}}\n                 {{for _name,_link,_id in response.links:}}\n                         {{=A(T(_name),_href=_link, _class=\'color-transparent\')}}\n                 {{pass}}\n             {{pass}}\n             \n             {{=A(T(\'pages\'),_href=URL(r=request,c=\'default\',f=\'pages\'), _class=\'color-transparent\')}}\n             {{if response.pages:}}\n                 {{for _title,_false,_link in response.links:}}\n                         {{=A(T(_title),_href=_link, _class=\'color-transparent\')}}\n                 {{pass}}\n             {{pass}}\n    </div>\n    <!-- end #links -->\n  \n  </body>\n</html>\n'
p7
sS'snapshot'
p8
(dp9
S'exception'
p10
(dp11
S'__hash__'
p12
S"<method-wrapper '__hash__' of exceptions.IOError object at 0x8d0508c>"
p13
sS'__setattr__'
p14
S"<method-wrapper '__setattr__' of exceptions.IOError object at 0x8d0508c>"
p15
sS'__reduce_ex__'
p16
S'<built-in method __reduce_ex__ of exceptions.IOError object at 0x8d0508c>'
p17
sS'__getslice__'
p18
S"<method-wrapper '__getslice__' of exceptions.IOError object at 0x8d0508c>"
p19
sS'__getitem__'
p20
S"<method-wrapper '__getitem__' of exceptions.IOError object at 0x8d0508c>"
p21
sS'__setstate__'
p22
S'<built-in method __setstate__ of exceptions.IOError object at 0x8d0508c>'
p23
sS'__reduce__'
p24
S'<built-in method __reduce__ of exceptions.IOError object at 0x8d0508c>'
p25
sS'__str__'
p26
S"<method-wrapper '__str__' of exceptions.IOError object at 0x8d0508c>"
p27
sS'args'
p28
S"(2, 'No such file or directory')"
p29
sS'__getattribute__'
p30
S"<method-wrapper '__getattribute__' of exceptions.IOError object at 0x8d0508c>"
p31
sS'__class__'
p32
S"<type 'exceptions.IOError'>"
p33
sS'filename'
p34
S"'/home/herve/development/workspaces/molhokwai.net...applications/a/views/themes/0/sidebar/ff0000.html'"
p35
sS'__delattr__'
p36
S"<method-wrapper '__delattr__' of exceptions.IOError object at 0x8d0508c>"
p37
sS'strerror'
p38
S"'No such file or directory'"
p39
sS'__repr__'
p40
S"<method-wrapper '__repr__' of exceptions.IOError object at 0x8d0508c>"
p41
sS'errno'
p42
S'2'
sS'__dict__'
p43
S'{}'
p44
sS'__doc__'
p45
S"'I/O operation failed.'"
p46
sS'__init__'
p47
S"<method-wrapper '__init__' of exceptions.IOError object at 0x8d0508c>"
p48
sS'__new__'
p49
S'<built-in method __new__ of type object at 0x82395c0>'
p50
ssS'evalue'
p51
S"[Errno 2] No such file or directory: '/home/herve/development/workspaces/molhokwai.net/web/applications/a/views/themes/0/sidebar/ff0000.html'"
p52
sS'frames'
p53
(lp54
(dp55
S'file'
p56
S'/home/herve/development/workspaces/molhokwai.net/web/gluon/template.py'
p57
sS'dump'
p58
(dp59
S'builtinopen'
p60
S'<built-in function open>'
p61
sS'fileobj'
p62
S'undefined'
p63
sS'filepath'
p64
S"'/home/herve/development/workspaces/molhokwai.net...applications/a/views/themes/0/sidebar/ff0000.html'"
p65
ssS'lnum'
p66
I435
sS'lines'
p67
(dp68
I430
S'        # Get the path of the file on the system.'
p69
sI431
S'        filepath = os.path.join(self.path, filename)'
p70
sI432
S''
sI433
S'        # Lets try to read teh text.'
p71
sI434
S'        try:'
p72
sI435
S"            fileobj = open(filepath, 'rb')"
p73
sI436
S''
sI437
S'            text = fileobj.read()'
p74
sI438
S''
sI439
S'            fileobj.close()'
p75
ssS'call'
p76
S"(self=<gluon.template.TemplateParser object at 0x91076ac>, filename='themes/0/sidebar/ff0000.html')"
p77
sS'func'
p78
S'_get_file_text'
p79
sasS'pyver'
p80
S'Python 2.5.1: /usr/local/bin/python'
p81
sS'etype'
p82
S"<type 'exceptions.IOError'>"
p83
sS'date'
p84
S'Fri Mar 25 13:56:06 2011'
p85
sS'locals'
p86
(dp87
S'self'
p88
S'<gluon.template.TemplateParser object at 0x91076ac>'
p89
sS'filepath'
p90
S"'/home/herve/development/workspaces/molhokwai.net...applications/a/views/themes/0/sidebar/ff0000.html'"
p91
sg34
S"'themes/0/sidebar/ff0000.html'"
p92
sssS'traceback'
p93
S'Traceback (most recent call last):\n  File "/home/herve/development/workspaces/molhokwai.net/web/gluon/template.py", line 435, in _get_file_text\n    fileobj = open(filepath, \'rb\')\nIOError: [Errno 2] No such file or directory: \'/home/herve/development/workspaces/molhokwai.net/web/applications/a/views/themes/0/sidebar/ff0000.html\'\n'
p94
s.