(dp1
S'output'
p2
S''
sS'layer'
p3
S'/home/herve/development/workspaces/molhokwai.net/web/applications/a/models/utilities.py'
p4
sS'code'
p5
S'# coding: utf8\n\n#########################################################################\n## APPLICATION DETAILS, COMMON\'Z & UTILITIES\n#########################################################################\n\nclass AppDetails():\n    title = T("molhokwai.net - \'a\' cm/dms"), \n    keywords = T("blog, weblog, journal, web, log, web2py, pypress, cms, dms, simple, lightweight, straight-forward, direct, programming, programmer"),\n    description = T("molhokwai.net - \'a\' cm/dms, lightweight, simple, straight & direct")\n    init_app_config = {\n        \'pages\' : {\n            \'help\' : """\n                Dbl Ctrl to access <i>command line</i> <small>(css-ly removed outline makes cursor faintly visible in chrome, but it\'s there)</small>\n                <br/>\n                <br/>\n                <br/>\n                --------------------------------------------------------------------------------------------<br/>\n                Add links to pages to access the pages from the command line\n                --------------------------------------------------------------------------------------------<br/>\n                login <br/>\n                logout <br/>\n                add <br/>\n                edit <br/>\n                delete <br/>\n                submit <br/>\n                pages <br/>\n                links <br/>\n                root <br/>\n                help <br/>\n                <br/>\n                <br/>\n                --------------------------------------------------------------------------------------------<br/>\n                idem, translated in available languages\n            """,\n            \'home\' : """\n                <b>Command line interface<br/>\n                &nbsp;&nbsp;&nbsp;&nbsp;<small>command based human machine interface basic cms</small>...\n                <br/>\n                <br/>\n                Dbl Ctrl to access <i>command line</i> <small>(css-ly removed outline makes cursor faintly visible in chrome, but it\'s there)</small><br/>\n                &nbsp;&nbsp;&nbsp;&nbsp;<small>*<b>eventually</b>, if the page has elligible primary content, search falls back on <img src="http://www.google.com/uds/css/small-logo.png" alt="Google(reg)"> search \n                if no <i>internally found</i> response</small>.<br/>\n                --------------------------------------------------------------------------------------------\n                <br/>\n                <br/>\n                login <br/>\n                logout <br/>\n                add <br/>\n                edit <br/>\n                delete <br/>\n                submit <br/>\n                pages <br/>\n                links <br/>\n                root <br/>\n                help <br/>\n                <br/>\n                <br/>\n                --------------------------------------------------------------------------------------------<br/>\n                Add links to pages to access them from the command line<br/>\n                --------------------------------------------------------------------------------------------<br/>\n                <br/>\n                <br/>\n                <br/>\n                <br/>\n                <br/>\n                <br/>\n                <br/>\n                <br/>\n                --------------------------------------------------------------------------------------------<br/>\n                idem, translated in available languages            \n            """,\n            \'acknowledgements\' : """\n                <ul>\n                  <li><a href="http://www.web2py.org">web2py</a></li>\n                  <li><a href="http://code.google.com/appengine">google app engine</a></li>\n                  <li><a href="http://python.org">python</a></li>\n                  <li><a href="http://jquery.org">jquery</a></li>\n                  <li><a href="http://www.google.be/search?sourceid=chrome&amp;ie=UTF-8&amp;q=pypress">pypress</a></li>\n                  <li><a href="http://www.google.be/search?sourceid=chrome&amp;ie=UTF-8&amp;q=pypress#sclient=psy&amp;hl=nl&amp;source=hp&amp;q=acknowledgements:everything+up+to+now&amp;aq=f&amp;aqi=&amp;aql=&amp;oq=&amp;gs_rfai=&amp;pbx=1&amp;psj=1&amp;fp=1eb96132f70894e9">...</a> </li>\n                </ul>\n                <br>\n                <p class="text-alignr font-size09em italic width60pc">(if you find there is missing acknowledgedment, an e-mail to <a href="mailto:admin@molhokwai.net" title="[GMCP] Compose a new mail to admin@molhokwai.net" \n                onclick="window.open(\'https://mail.google.com/mail/?view=cm&amp;fs=1&amp;tf=1&amp;to=admin@molhokwai.net\',\'Compose new message\',\'width=640,height=480\');return false" rel="noreferrer">admin@molhokwai.net</a> \n                is more than welcome)"</p>                \n            """\n        }\n    }\napp_details=AppDetails()\nif app_config and app_config.APP_METAS:\n    app_details.title=app_config.APP_METAS[0]\n    app_details.keywords=app_config.APP_METAS[1]\n    app_details.description=app_config.APP_METAS[2]\n        \nclass aConvert():\n    def to_int(self, value):\n        """Attention: Eventually returns 0 which \'equals\' the False ValueError return"""\n        try:\n            return int(value)\n        except ValueError:\n            return False\na_convert=aConvert()\n\nclass Struct:\n    def __init__(self, **entries): \n        self.__dict__.update(entries)\n\napp_objects=Struct({\'details\':app_details,\'config\':app_config})\n\n########################\n## Print, Log Wrapper\n########################\n\ndef print_wrapped(_name, _value):\n    print \'-------| %s : %s\' % (repr(_name), repr(_value))\n\ndef log_wrapped(_name, _value):\n    if request.env.web2py_runtime_gae:\n        import logging\n        logging.info(\'-------| %s : %s\' % (repr(_name), repr(_value)))\n    else:\n        print_wrapped(_name, _value)\n\n#########################################################################\n## from : http://bytes.com/topic/python/answers/592479-regex-url-extracting\n#########################################################################\nexpressions={\n  \'url_find\' : [\n"([0-9]{1,3}\\\\.[0-9]{1,3}\\\\.[0-9]{1,3}\\\\.[0-9]{1,3}|(((news|telnet|nttp|file|http|ftp|https)://)|(www|ftp)[-A-Za-z0-9]*\\\\.)[-A-Za-z0-9\\\\.]+)(:[0-9]*)?/[-A-Za-z0-9_\\\\$\\\\.\\\\+\\\\!\\\\*\\\\(\\\\),;:@&=\\\\?/~\\\\#\\\\%]*[^]\'\\\\.}>\\\\),\\\\\\"]",\n"([0-9]{1,3}\\\\.[0-9]{1,3}\\\\.[0-9]{1,3}\\\\.[0-9]{1,3}|(((news|telnet|nttp|file|http|ftp|https)://)|(www|ftp)[-A-Za-z0-9]*\\\\.)[-A-Za-z0-9\\\\.]+)(:[0-9]*)?",\n"(~/|/|\\\\./)([-A-Za-z0-9_\\\\$\\\\.\\\\+\\\\!\\\\*\\\\(\\\\),;:@&=\\\\?/~\\\\#\\\\%]|\\\\\\\\)+",\n"\'\\\\<((mailto:)|)[-A-Za-z0-9\\\\.]+@[-A-Za-z0-9\\\\.]+"\n  ],\n  \'rel_url_and_end_tags_find\' : ["[0-9]{0,1}/[-A-Za-z0-9_\\\\$\\\\.\\\\+\\\\!\\\\*\\\\(\\\\),;:@&=\\\\?/~\\\\#\\\\%]*[^]\'\\\\.}>\\\\),\\\\\\"]"]\n}\n\nimport re\nurl_finders = [\nre.compile(expressions[\'url_find\'][0]),\nre.compile(expressions[\'url_find\'][1]),\nre.compile(expressions[\'url_find\'][2]),\nre.compile(expressions[\'url_find\'][3]),\n]\nrel_url_and_end_tags_finders = [\nre.compile(expressions[\'rel_url_and_end_tags_find\'][0]),\n]\n'
p6
sS'snapshot'
p7
(dp8
S'exception'
p9
(dp10
S'__hash__'
p11
S"<method-wrapper '__hash__' of exceptions.TypeError object at 0x93e302c>"
p12
sS'__setattr__'
p13
S"<method-wrapper '__setattr__' of exceptions.TypeError object at 0x93e302c>"
p14
sS'__reduce_ex__'
p15
S'<built-in method __reduce_ex__ of exceptions.TypeError object at 0x93e302c>'
p16
sS'__getslice__'
p17
S"<method-wrapper '__getslice__' of exceptions.TypeError object at 0x93e302c>"
p18
sS'__getitem__'
p19
S"<method-wrapper '__getitem__' of exceptions.TypeError object at 0x93e302c>"
p20
sS'__setstate__'
p21
S'<built-in method __setstate__ of exceptions.TypeError object at 0x93e302c>'
p22
sS'__reduce__'
p23
S'<built-in method __reduce__ of exceptions.TypeError object at 0x93e302c>'
p24
sS'__str__'
p25
S"<method-wrapper '__str__' of exceptions.TypeError object at 0x93e302c>"
p26
sS'args'
p27
S"('__init__() takes exactly 1 argument (2 given)',)"
p28
sS'__getattribute__'
p29
S"<method-wrapper '__getattribute__' of exceptions.TypeError object at 0x93e302c>"
p30
sS'__class__'
p31
S"<type 'exceptions.TypeError'>"
p32
sS'__delattr__'
p33
S"<method-wrapper '__delattr__' of exceptions.TypeError object at 0x93e302c>"
p34
sS'__repr__'
p35
S"<method-wrapper '__repr__' of exceptions.TypeError object at 0x93e302c>"
p36
sS'__dict__'
p37
S'{}'
p38
sS'__doc__'
p39
S"'Inappropriate argument type.'"
p40
sS'__init__'
p41
S"<method-wrapper '__init__' of exceptions.TypeError object at 0x93e302c>"
p42
sS'__new__'
p43
S'<built-in method __new__ of type object at 0x8239080>'
p44
ssS'evalue'
p45
S'__init__() takes exactly 1 argument (2 given)'
p46
sS'request'
p47
(dp48
S'function'
p49
S"'page'"
p50
sS'body'
p51
S'<cStringIO.StringO object at 0x9544760>'
p52
sS'wsgi'
p53
S"<Storage {'start_response': <function <lambda> a...ING': 'gzip,deflate', 'HTTP_KEEP_ALIVE': '115'}}>"
p54
sS'extension'
p55
S"'html'"
p56
sS'vars'
p57
S'<Storage {}>'
p58
sS'cid'
p59
S'None'
p60
sS'url'
p61
S'<gluon.html.XML object at 0x9544fec>'
p62
sS'raw_extension'
p63
S'None'
p64
sg27
S"['24']"
p65
sS'controller'
p66
S"'default'"
p67
sS'cookies'
p68
S"<SimpleCookie: SESS29af1facda0a866a687d5055f2fad...-bbc0c086-0f6d-4a1f-8e43-a9445d594d30' theme='1'>"
p69
sS'application'
p70
S"'a'"
p71
sS'ajax'
p72
S'False'
p73
sS'client'
p74
S"'127.0.0.1'"
p75
sS'env'
p76
S"<Storage {'wsgi_multithread': True, 'http_accept...nput': <socket._fileobject object at 0x9290d14>}>"
p77
sS'raw_args'
p78
S"'24'"
p79
sS'get_vars'
p80
S'<Storage {}>'
p81
sS'folder'
p82
S"'/home/herve/development/workspaces/molhokwai.net/web/applications/a/'"
p83
sS'now'
p84
S'datetime.datetime(2011, 1, 31, 15, 18, 11, 888493)'
p85
sS'post_vars'
p86
S'<Storage {}>'
p87
ssS'frames'
p88
(lp89
(dp90
S'file'
p91
S'/home/herve/development/workspaces/molhokwai.net/web/gluon/restricted.py'
p92
sS'dump'
p93
(dp94
S'environment'
p95
S"{'A': <class 'gluon.html.A'>, 'AppDetails': <class __builtin__.AppDetails at 0x9533cbc>, 'Auth': <class 'gluon.tools.Auth'>, 'B': <class 'gluon.html.B'>, 'BEAUTIFY': <class 'gluon.html.BEAUTIFY'>, 'BODY': <class 'gluon.html.BODY'>, 'BR': <class 'gluon.html.BR'>, 'CENTER': <class 'gluon.html.CENTER'>, 'CLEANUP': <class 'gluon.validators.CLEANUP'>, 'CODE': <class 'gluon.html.CODE'>, ...}"
p96
sS'ccode'
p97
S'<code object <module> at 0x927de78, file "/home/.../web/applications/a/models/utilities.py", line 7>'
p98
ssS'lnum'
p99
I188
sS'lines'
p100
(dp101
I192
S'        # XXX Show exception in Wing IDE if running in debugger'
p102
sI183
S'        if type(code) == types.CodeType:'
p103
sI184
S'            ccode = code'
p104
sI185
S'        else:'
p105
sI186
S'            ccode = compile2(code,layer)'
p106
sI187
S''
sI188
S'        exec ccode in environment'
p107
sI189
S'    except HTTP:'
p108
sI190
S'        raise'
p109
sI191
S'    except Exception:'
p110
ssS'call'
p111
S'(code="# coding: utf8\\n\\n################################...(expressions[\'rel_url_and_end_tags_find\'][0]),\\n]\\n", environment={\'A\': <class \'gluon.html.A\'>, \'AppDetails\': <class __builtin__.AppDetails at 0x9533cbc>, \'Auth\': <class \'gluon.tools.Auth\'>, \'B\': <class \'gluon.html.B\'>, \'BEAUTIFY\': <class \'gluon.html.BEAUTIFY\'>, \'BODY\': <class \'gluon.html.BODY\'>, \'BR\': <class \'gluon.html.BR\'>, \'CENTER\': <class \'gluon.html.CENTER\'>, \'CLEANUP\': <class \'gluon.validators.CLEANUP\'>, \'CODE\': <class \'gluon.html.CODE\'>, ...}, layer=\'/home/herve/development/workspaces/molhokwai.net/web/applications/a/models/utilities.py\')'
p112
sS'func'
p113
S'restricted'
p114
sa(dp115
g91
S'/home/herve/development/workspaces/molhokwai.net/web/applications/a/models/utilities.py'
p116
sg93
(dp117
S'app_objects'
p118
S'undefined'
p119
sS'app_config'
p120
S'<Row {\'APP_METAS\': ["molhokwai.net - \'a\' cm/dms"...elete_record\': <function <lambda> at 0x9290bfc>}>'
p121
sS'Struct'
p122
S'<class __builtin__.Struct at 0x93f8f2c>'
p123
sS'app_details'
p124
S'<__builtin__.AppDetails instance at 0x93e3ccc>'
p125
ssg99
I108
sg100
(dp126
I103
S''
sI104
S'class Struct:'
p127
sI105
S'    def __init__(self, **entries):'
p128
sI106
S'        self.__dict__.update(entries)'
p129
sI107
S''
sI108
S"app_objects=Struct({'details':app_details,'config':app_config})"
p130
sI109
S''
sI110
S'########################'
p131
sI111
S'## Print, Log Wrapper'
p132
sI112
S'########################'
p133
ssg111
S'()'
p134
sg113
S'<module>'
p135
sasS'pyver'
p136
S'Python 2.5.1: /usr/local/bin/python'
p137
sS'session'
p138
(dp139
S'auth'
p140
S'None'
p141
ssS'etype'
p142
S"<type 'exceptions.TypeError'>"
p143
sS'date'
p144
S'Mon Jan 31 15:18:11 2011'
p145
sS'response'
p146
(dp147
S'status'
p148
S'200'
p149
sg51
S'<cStringIO.StringO object at 0x95448a0>'
p150
sg68
S"<SimpleCookie: session_id_a='127.0.0.1-8234cfed-3591-4bdf-86a6-7e61420f8236'>"
p151
sS'_vars'
p152
S'None'
p153
sS'menu'
p154
S'[]'
p155
sS'flash'
p156
S"''"
p157
sS'session_new'
p158
S'True'
p159
sS'_custom_rollback'
p160
S'None'
p161
sS'session_id'
p162
S"'127.0.0.1-8234cfed-3591-4bdf-86a6-7e61420f8236'"
p163
sS'headers'
p164
S"<Storage {'Expires': 'Mon, 31 Jan 2011 14:18:11 ...he, must-revalidate, post-check=0, pre-check=0'}>"
p165
sS'meta'
p166
S'<Storage {}>'
p167
sS'session_filename'
p168
S"'/home/herve/development/workspaces/molhokwai.net...ns/127.0.0.1-8234cfed-3591-4bdf-86a6-7e61420f8236'"
p169
sS'postprocessing'
p170
S'[]'
p171
sS'_caller'
p172
S'<function <lambda> at 0x9290064>'
p173
sS'_view_environment'
p174
S"{'A': <class 'gluon.html.A'>, 'B': <class 'gluon.html.B'>, 'BEAUTIFY': <class 'gluon.html.BEAUTIFY'>, 'BODY': <class 'gluon.html.BODY'>, 'BR': <class 'gluon.html.BR'>, 'CENTER': <class 'gluon.html.CENTER'>, 'CLEANUP': <class 'gluon.validators.CLEANUP'>, 'CODE': <class 'gluon.html.CODE'>, 'CRYPT': <class 'gluon.validators.CRYPT'>, 'DAL': <class 'gluon.dal.DAL'>, ...}"
p175
sS'session_id_name'
p176
S"'session_id_a'"
p177
sS'_custom_commit'
p178
S'None'
p179
sS'files'
p180
S'[]'
p181
sS'view'
p182
S"'default/page.html'"
p183
ssS'locals'
p184
(dp185
S'protocol'
p186
S"'http'"
p187
sS'app_details'
p188
S'<__builtin__.AppDetails instance at 0x93e3ccc>'
p189
sS'Service'
p190
S"<class 'gluon.tools.Service'>"
p191
sS'OBJECT'
p192
S"<class 'gluon.html.OBJECT'>"
p193
sS'SQLDB'
p194
S"<class 'gluon.dal.DAL'>"
p195
sg138
S"<Storage {'auth': None}>"
p196
sS'LINK'
p197
S"<class 'gluon.html.LINK'>"
p198
sS'BR'
p199
S"<class 'gluon.html.BR'>"
p200
sS'local_import'
p201
S'<function <lambda> at 0x9290c6c>'
p202
sS'OPTGROUP'
p203
S"<class 'gluon.html.OPTGROUP'>"
p204
sS'link_labels'
p205
S"{'link_title': 'Name', 'link_url': 'URL'}"
p206
sS'PRE'
p207
S"<class 'gluon.html.PRE'>"
p208
sS'IS_INT_IN_RANGE'
p209
S"<class 'gluon.validators.IS_INT_IN_RANGE'>"
p210
sS'IS_LOWER'
p211
S"<class 'gluon.validators.IS_LOWER'>"
p212
sS'IS_STRONG'
p213
S"<class 'gluon.validators.IS_STRONG'>"
p214
sS'Recaptcha'
p215
S"<class 'gluon.tools.Recaptcha'>"
p216
sS'cache'
p217
S'<gluon.cache.Cache object at 0x9544fac>'
p218
sS'IS_IN_DB'
p219
S"<class 'gluon.validators.IS_IN_DB'>"
p220
sS'TAG'
p221
S'<gluon.html.__TAG__ object at 0x4411cc>'
p222
sS'SQLField'
p223
S"<class 'gluon.dal.Field'>"
p224
sS'BODY'
p225
S"<class 'gluon.html.BODY'>"
p226
sS'IS_DATE_IN_RANGE'
p227
S"<class 'gluon.validators.IS_DATE_IN_RANGE'>"
p228
sS'IFRAME'
p229
S"<class 'gluon.html.IFRAME'>"
p230
sS'URL'
p231
S'<function _URL at 0x929095c>'
p232
sS'db'
p233
S"<DAL {'auth_permission': <Table {'ALL': <gluon.d..._name': <gluon.dal.Field object at 0x93e322c>}>}>"
p234
sg140
S'<gluon.tools.Auth object at 0x954442c>'
p235
sS'P'
S"<class 'gluon.html.P'>"
p236
sS'TFOOT'
p237
S"<class 'gluon.html.TFOOT'>"
p238
sS'XHTML'
p239
S"<class 'gluon.html.XHTML'>"
p240
sS'datetime'
p241
S"<module 'datetime' from '/usr/local/lib/python2.5/lib-dynload/datetime.so'>"
p242
sS'ON'
p243
g159
sS'OL'
p244
S"<class 'gluon.html.OL'>"
p245
sS'TEXTAREA'
p246
S"<class 'gluon.html.TEXTAREA'>"
p247
sS'MENU'
p248
S"<class 'gluon.html.MENU'>"
p249
sS'a_convert'
p250
S'<__builtin__.aConvert instance at 0x93e38ec>'
p251
sS'EM'
p252
S"<class 'gluon.html.EM'>"
p253
sS'CODE'
p254
S"<class 'gluon.html.CODE'>"
p255
sS'HTTP'
p256
S"<class 'gluon.http.HTTP'>"
p257
sS'HR'
p258
S"<class 'gluon.html.HR'>"
p259
sS'comment_labels'
p260
S"{'comment_author': 'Name', 'comment_author_email': 'Email', 'comment_author_website': 'Website', 'comment_text': 'Comment', 'post_id': 'Post ID'}"
p261
sS'IS_DATETIME'
p262
S"<class 'gluon.validators.IS_DATETIME'>"
p263
sS'STYLE'
p264
S"<class 'gluon.html.STYLE'>"
p265
sS'LABEL'
p266
S"<class 'gluon.html.LABEL'>"
p267
sS'cat_labels'
p268
S"{'category_name': 'Name'}"
p269
sS'META'
p270
S"<class 'gluon.html.META'>"
p271
sS'SELECT'
p272
S"<class 'gluon.html.SELECT'>"
p273
sS'CENTER'
p274
S"<class 'gluon.html.CENTER'>"
p275
sS'prettydate'
p276
S'<function prettydate at 0x91a810c>'
p277
sS'Crud'
p278
S"<class 'gluon.tools.Crud'>"
p279
sS'Auth'
p280
S"<class 'gluon.tools.Auth'>"
p281
sS'__builtins__'
p282
S"{'ArithmeticError': <type 'exceptions.ArithmeticError'>, 'AssertionError': <type 'exceptions.AssertionError'>, 'AttributeError': <type 'exceptions.AttributeError'>, 'BaseException': <type 'exceptions.BaseException'>, 'DeprecationWarning': <type 'exceptions.DeprecationWarning'>, 'EOFError': <type 'exceptions.EOFError'>, 'Ellipsis': Ellipsis, 'EnvironmentError': <type 'exceptions.EnvironmentError'>, 'Exception': <type 'exceptions.Exception'>, 'False': False, ...}"
p283
sS'IS_LIST_OF'
p284
S"<class 'gluon.validators.IS_LIST_OF'>"
p285
sS'SQLFORM'
p286
S"<class 'gluon.sqlhtml.SQLFORM'>"
p287
sS'file_labels'
p288
S"{'file': 'File', 'filename': 'Enter file name'}"
p289
sS'LOAD'
p290
S'<gluon.compileapp.LoadFactory object at 0x9544d8c>'
p291
sS'redirect'
p292
S'<function redirect at 0x97725c>'
p293
sS'FIELDSET'
p294
S"<class 'gluon.html.FIELDSET'>"
p295
sS'IS_EQUAL_TO'
p296
S"<class 'gluon.validators.IS_EQUAL_TO'>"
p297
sS'embed64'
p298
S'<function embed64 at 0x43faac>'
p299
sS'INPUT'
p300
S"<class 'gluon.html.INPUT'>"
p301
sS'EMBED'
p302
S"<class 'gluon.html.EMBED'>"
p303
sS'FORM'
p304
S"<class 'gluon.html.FORM'>"
p305
sS'H2'
p306
S"<class 'gluon.html.H2'>"
p307
sS'H3'
p308
S"<class 'gluon.html.H3'>"
p309
sS'H1'
p310
S"<class 'gluon.html.H1'>"
p311
sS'H6'
p312
S"<class 'gluon.html.H6'>"
p313
sS'H4'
p314
S"<class 'gluon.html.H4'>"
p315
sS'H5'
p316
S"<class 'gluon.html.H5'>"
p317
sS'UL'
p318
S"<class 'gluon.html.UL'>"
p319
sS'IS_UPPER'
p320
S"<class 'gluon.validators.IS_UPPER'>"
p321
sS'xmlescape'
p322
S'<function xmlescape at 0x43f4c4>'
p323
sS'IS_TIME'
p324
S"<class 'gluon.validators.IS_TIME'>"
p325
sS'OPTION'
p326
S"<class 'gluon.html.OPTION'>"
p327
sS'TITLE'
p328
S"<class 'gluon.html.TITLE'>"
p329
sS'CRYPT'
p330
S"<class 'gluon.validators.CRYPT'>"
p331
sS'administrators_emails'
p332
S"['molhokwai@gmail.com']"
p333
sS'IS_EMPTY_OR'
p334
S"<class 'gluon.validators.IS_EMPTY_OR'>"
p335
sS'MARKMIN'
p336
S"<class 'gluon.html.MARKMIN'>"
p337
sS'current_language'
p338
S"'en-en'"
p339
sS'this_app'
p340
S"'a'"
p341
sS'AppDetails'
p342
S'<class __builtin__.AppDetails at 0x9533cbc>'
p343
sS'IS_EMAIL'
p344
S"<class 'gluon.validators.IS_EMAIL'>"
p345
sS'service'
p346
S'<gluon.tools.Service object at 0x9535f8c>'
p347
sS'SCRIPT'
p348
S"<class 'gluon.html.SCRIPT'>"
p349
sS'geocode'
p350
S'<function geocode at 0x91a7ae4>'
p351
sS'TABLE'
p352
S"<class 'gluon.html.TABLE'>"
p353
sS'IS_IPV4'
p354
S"<class 'gluon.validators.IS_IPV4'>"
p355
sS'IS_LENGTH'
p356
S"<class 'gluon.validators.IS_LENGTH'>"
p357
sS'XML'
p358
S"<class 'gluon.html.XML'>"
p359
sS'B'
S"<class 'gluon.html.B'>"
p360
sS'IMG'
p361
S"<class 'gluon.html.IMG'>"
p362
sS'SQLTABLE'
p363
S"<class 'gluon.sqlhtml.SQLTABLE'>"
p364
sS'IS_MATCH'
p365
S"<class 'gluon.validators.IS_MATCH'>"
p366
sS'IS_ALPHANUMERIC'
p367
S"<class 'gluon.validators.IS_ALPHANUMERIC'>"
p368
sS'SPAN'
p369
S"<class 'gluon.html.SPAN'>"
p370
sS'IS_SLUG'
p371
S"<class 'gluon.validators.IS_SLUG'>"
p372
sS'CLEANUP'
p373
S"<class 'gluon.validators.CLEANUP'>"
p374
sS'fetch'
p375
S'<function fetch at 0x91a7a3c>'
p376
sS'IS_DATE'
p377
S"<class 'gluon.validators.IS_DATE'>"
p378
sS'Struct'
p379
S'<class __builtin__.Struct at 0x93f8f2c>'
p380
sS'IS_NOT_EMPTY'
p381
S"<class 'gluon.validators.IS_NOT_EMPTY'>"
p382
sS'IS_FLOAT_IN_RANGE'
p383
S"<class 'gluon.validators.IS_FLOAT_IN_RANGE'>"
p384
sS'BEAUTIFY'
p385
S"<class 'gluon.html.BEAUTIFY'>"
p386
sS'TBODY'
p387
S"<class 'gluon.html.TBODY'>"
p388
sS'Field'
p389
S"<class 'gluon.dal.Field'>"
p390
sS'Mail'
p391
S"<class 'gluon.tools.Mail'>"
p392
sS'DIV'
p393
S"<class 'gluon.html.DIV'>"
p394
sS'LEGEND'
p395
S"<class 'gluon.html.LEGEND'>"
p396
sS'post_labels'
p397
S"{'post_category': 'Category', 'post_text': 'Post', 'post_text_TCode': 'Translation code (code & language texts must be set in the translation files)', 'post_time': 'Post Date', 'post_title': 'Title', 'post_type': 'Type', 'show_in_menu': 'Show in menu'}"
p398
sS'global_site_url'
p399
S"'http://localhost:8001'"
p400
sS'DAL'
p401
S"<class 'gluon.dal.DAL'>"
p402
sS'TT'
p403
S"<class 'gluon.html.TT'>"
p404
sS'TR'
p405
S"<class 'gluon.html.TR'>"
p406
sS'this_app_url'
p407
S"'http://localhost:8001/a'"
p408
sS'LI'
p409
S"<class 'gluon.html.LI'>"
p410
sS'TH'
p411
S"<class 'gluon.html.TH'>"
p412
sS'TD'
p413
S"<class 'gluon.html.TD'>"
p414
sS'PluginManager'
p415
S"<class 'gluon.tools.PluginManager'>"
p416
sS'IS_URL'
p417
S"<class 'gluon.validators.IS_URL'>"
p418
sS'A'
S"<class 'gluon.html.A'>"
p419
sS'HEAD'
p420
S"<class 'gluon.html.HEAD'>"
p421
sS'IS_DATETIME_IN_RANGE'
p422
S"<class 'gluon.validators.IS_DATETIME_IN_RANGE'>"
p423
sS'HTML'
p424
S"<class 'gluon.html.HTML'>"
p425
sS'IS_IMAGE'
p426
S"<class 'gluon.validators.IS_IMAGE'>"
p427
sS'I'
S"<class 'gluon.html.I'>"
p428
sS'crud'
p429
S'<gluon.tools.Crud object at 0x953522c>'
p430
sS'IS_NOT_IN_DB'
p431
S"<class 'gluon.validators.IS_NOT_IN_DB'>"
p432
sS'aConvert'
p433
S'<class __builtin__.aConvert at 0x93f820c>'
p434
sS'app_config'
p435
S'<Row {\'APP_METAS\': ["molhokwai.net - \'a\' cm/dms"...elete_record\': <function <lambda> at 0x9290bfc>}>'
p436
sg146
S"<Storage {'status': 200, 'body': <cStringIO.Stri...t': None, 'files': [], '_custom_rollback': None}>"
p437
sS'THEAD'
p438
S"<class 'gluon.html.THEAD'>"
p439
sS'IS_NULL_OR'
p440
S"<class 'gluon.validators.IS_EMPTY_OR'>"
p441
sg47
S"<Storage {'function': 'page', 'body': <cStringIO... 15, 18, 11, 888493), 'post_vars': <Storage {}>}>"
p442
sS'IS_EXPR'
p443
S"<class 'gluon.validators.IS_EXPR'>"
p444
sS'RPXAccount'
p445
S"<class 'gluon.contrib.login_methods.rpx_account.RPXAccount'>"
p446
sS'IS_IN_SET'
p447
S"<class 'gluon.validators.IS_IN_SET'>"
p448
sS'IS_UPLOAD_FILENAME'
p449
S"<class 'gluon.validators.IS_UPLOAD_FILENAME'>"
p450
sS'IS_DECIMAL_IN_RANGE'
p451
S"<class 'gluon.validators.IS_DECIMAL_IN_RANGE'>"
p452
sS'T'
S'<gluon.languages.translator object at 0x954460c>'
p453
sssS'traceback'
p454
S'Traceback (most recent call last):\n  File "/home/herve/development/workspaces/molhokwai.net/web/gluon/restricted.py", line 188, in restricted\n    exec ccode in environment\n  File "/home/herve/development/workspaces/molhokwai.net/web/applications/a/models/utilities.py", line 108, in <module>\n    app_objects=Struct({\'details\':app_details,\'config\':app_config})\nTypeError: __init__() takes exactly 1 argument (2 given)\n'
p455
s.