(dp1
S'output'
p2
S''
sS'layer'
p3
S'/home/herve/development/workspaces/molhokwai.net/web/applications/a/controllers/default.py'
p4
sS'code'
p5
S'###################################\n## CONTROLLER INITIALIZATION\n###################################    \nexec(\'from applications.%s.modules import common\' % this_app)\npage_helper, post_helper = common.controller_init(request, response, session, cache, T, db, auth, app_config, app_details)\n\n###################################\n## CONTROLLER FUNCTIONS\n###################################    \n# The main page\n# Shows the home page if one created (see \'home_page\' function page with title)\n# Otherwise, defaults to showing the first 10 posts\ndef index():\n    if len(request.args)==0:\n        if response.home_page:\n            redirect(URL(r = request,c=\'default\',f = \'page/%i\' % response.home_page.id))\n    else:\n      return dict(posts = app_details.start_page_html)\n\n# The post page\n# Shows the entire post, the comments, and the comment form\ndef post():\n    #try: \n    post_id = int(request.args[0])\n    post = db(db.posts.id == post_id).select()[0]\n    comments = db(db.comments.post_id == post_id).select(db.comments.ALL)\n    comment_count = len(db(db.comments.post_id == post_id).select(db.comments.ALL))\n    db.comments.post_id.default = post_id\n    comment_form = SQLFORM(db.comments, fields = [\'comment_author\', \'comment_author_email\', \'comment_author_website\', \'comment_text\'], labels = comment_labels)\n        \n    if comment_form.accepts(request.vars, session):\n        session.flash = T("Comment added.")\n        redirect(URL(r = request,f = \'post/%i\' % post_id ))\n\n    return dict(post = post, comments = comments, comment_form = comment_form, comment_count = comment_count)\n    #except: \n    #    redirect(URL(r = request,f = \'index\'))\n\n# The page page\n# Shows the entire page. Does not show comments or the comment form\ndef page():\n    try:\n        if len(request.args)>0:\n            post=\'\'\n            if a_convert.to_int(request.args[0]):\n                post = db(db.posts.id == int(request.args[0])).select()[0]\n            else:\n                post = db(db.posts.post_title == request.args[0]).select()[0]\n                        \n            nake=(request.args[len(request.args)-1]==\'nake\'\n                 or post.post_text.find(\'<!-- nake page -->\')>=0)\n        \n            return dict(post = post, nake  = nake)\n        else:\n            redirect(URL(r = request,f = \'index\'))\n    except Exception, ex: \n        log_wrapped(\'Error\', str(ex))\n        session.flash=T("(Caught) Error occured: %(err)s ", dict(err=str(ex)))\n        redirect(URL(r = request,f = \'index\'))\n\n# The pages page\n# Shows links to all pages\ndef pages():\n    return dict(manage_title=T("pages"))\n\n# The category page\n# Shows all the posts in the requested category\ndef category():\n    def fp(p): return p.post_type==\'post\'\n    try:\n        cat_name = request.args[0]\n        cat = db(db.categories.category_name == cat_name\n                    ).select(db.categories.ALL)[0]\n        posts = db((db.posts.post_type == \'post\') &\n                   (db.posts.post_category == cat.id)\n                   ).select(db.posts.ALL) ## , orderby=~db.posts.post_time\n        filter(fp,posts)\n\n        response.sidebar_note = T("You are currently browsing the archives for the %(cat_name)s category.",dict(cat_name=cat_name))\n        return dict(posts = posts)\n    except:\n        redirect(URL(r = request,f = \'index\'))\n\n@auth.requires_login()\ndef add():\n    try:\n        area = request.args[0]\n\n        if area == "post":\n            db.posts.post_type.default = \'post\'\n            page_form = SQLFORM(db.posts, fields = [\'post_title\', \'post_text\', \n                                                    \'post_category\', \'is_translated\'], \n                                                    labels = post_labels)\n            page_form.append(INPUT(_type=\'checkbox\', \n                                    _name=\'post_attributes_content_is_original\', \n                                    _id=\'post_attributes_content_is_original\', value=\'\'))\n            page_title = T("Add Post")\n            \n            if page_form.accepts(request.vars, session):\n                tcode="post_id_"+str(page_form.vars.id)\n                from gluon.contrib import simplejson\n                _json=simplejson.loads(request.vars.post_attributes_json)\n                _json[\'content_is\'][\'original\']=request.vars.post_attributes_content_is_original==\'on\'\n                pg=db(db.posts.id==page_form.vars.id).update(\n                                                post_text_TCode=tcode,\n                                                post_attributes_json=simplejson.dumps(_json))\n                ## FEATURE REQUEST: to add the translation code if not existing\n                T(tcode)\n                session.flash = T("Post added.")\n                redirect(URL(r = request,f = \'post/%i\' % page_form.vars.id))\n        \n        elif area == "page":\n            db.posts.post_type.default = \'page\'\n            page_form = SQLFORM(db.posts, fields = [\'post_title\', \'post_text\', \n                                                    \'show_in_menu\', \'is_translated\'], \n                                                    labels = post_labels)\n            page_form.append(INPUT(_type=\'checkbox\', _name=\'post_attributes_content_is_original\', \n                                                    _id=\'post_attributes_content_is_original\', value=\'\'))\n            page_title = T("Add Page")\n            \n            if page_form.accepts(request.vars, session):\n                tcode="page_id_"+str(page_form.vars.id)\n                from gluon.contrib import simplejson\n                _json=simplejson.loads(request.vars.post_attributes_json)\n                _json[\'content_is\'][\'original\']=request.vars.post_attributes_content_is_original==\'on\'\n                pg=db(db.posts.id==page_form.vars.id).update(\n                                                post_text_TCode=tcode,\n                                                post_attributes_json=simplejson.dumps(_json)\n                                            )\n                ## FEATURE REQUEST: to add the translation code if not existing\n                T(tcode)\n                session.flash = T("Page added.")\n                redirect(URL(r = request,f = \'page/%i\' % page_form.vars.id))          \n                \n        else:\n            redirect(URL(r = request,f = \'index\'))\n            \n        return dict(page_title = page_title, page_form = page_form)\n    except Exception, ex:\n        session.flash=T("Error occured: %(err)s ", dict(err=str(ex)))\n        redirect(URL(r = request,f = \'index\'))\n\n@auth.requires_login()\ndef edit():\n    this_item=None\n    area=None\n    id=None\n    p_a_c_i_o_val=None\n    try:\n        area = request.args[0]\n        id = int(request.args[1])\n        this_item = db(db.posts.id == id).select()[0]\n    except Exception, ex:\n        session.flash=T("Error occured: %(err)s ", dict(err=str(ex)))\n        redirect(URL(r = request,f = \'index\'))\n\n    try:\n        from gluon.contrib import simplejson\n        _json=simplejson.loads(this_item.post_attributes_json)\n        p_a_c_i_o_val=\'on\' if _json[\'content_is\'][\'original\'] else \'\'\n    except Exception, ex:\n        session.flash=T("(Minor) Error occured: %(err)s ", dict(err=str(ex)))\n    \n    if area == \'post\':\n        edit_form = SQLFORM(db.posts, this_item, fields = [\'post_title\', \'post_text\', \'post_text_TCode\', \n                                                            \'post_category\',\'is_translated\'], \n                                                            deletable=True, labels = post_labels)\n        edit_form.append(INPUT(_type=\'checkbox\', _name=\'post_attributes_content_is_original\', \n                                                _id=\'post_attributes_content_is_original\', value=p_a_c_i_o_val))\n        edit_title = T("Edit Post")\n    \n        if edit_form.accepts(request.vars, session):\n            if request.vars.delete_this_record==\'on\':\n                session.flash = T("Post deleted.")\n                redirect(URL(r = request,f = \'index/posts\'))\n            else:    \n                _json[\'content_is\'][\'original\']=request.vars.post_attributes_content_is_original==\'on\'\n                db(db.posts.id==id).update(post_attributes_json=simplejson.dumps(_json))\n                session.flash = T("Post updated.")\n                redirect(URL(r = request,f = \'post/%s\' %id))\n\n    elif area == \'page\':\n        this_item = db(db.posts.id == id).select()[0]\n        edit_form = SQLFORM(db.posts, this_item, fields = [\'post_title\', \'post_text\', \'post_text_TCode\', \n                                                            \'is_translated\', \'show_in_menu\'], \n                                                            deletable=True, labels = post_labels)\n        edit_form.append(INPUT(_type=\'checkbox\', _name=\'post_attributes_content_is_original\', \n                                                 _id=\'post_attributes_content_is_original\', value=p_a_c_i_o_val))\n        edit_title = T("Edit Page")\n    \n        if edit_form.accepts(request.vars, session):\n            if request.vars.delete_this_record==\'on\':\n                session.flash = T("Page deleted.")\n                redirect(URL(r = request,f = \'pages\'))\n            else:\n                try:\n                    _json[\'content_is\'][\'original\']=request.vars.post_attributes_content_is_original==\'on\'\n                    db(db.posts.id==id).update(post_attributes_json=simplejson.dumps(_json))\n                    session.flash = T("Page updated.")\n                except Exception, ex:\n                    session.flash=T("(Minor) Error occured: %(err)s ", dict(err=str(ex)))\n                finally:\n                    redirect(URL(r = request,f = \'page/%s\' %id))\n                        \n    else:\n        redirect(URL(r = request,f = \'index\'))\n    \n    return dict(edit_form = edit_form, edit_title = edit_title, post=this_item)\n\n        \n@auth.requires_login()\ndef manage():\n\n    area = None\n    if len(request.args)>0:\n        area = request.args[0]\n    else:\n        area = \'post\'\n    \n    try: command = request.args[1]\n    except: command = ""\n        \n    if area == \'post\':\n        rows = db(db.posts.post_type == \'post\').select(db.posts.ALL)\n        manage_title = T(\'Manage Posts\')\n\n        if command == \'add\':\n            edit_form = SQLFORM(db.posts, labels = post_labels)\n            \n            if edit_form.accepts(request.vars, session):\n                session.flash = T("Post added")\n                redirect(URL(r = request, f = \'manage/post\'))\n            else:\n                session.flash = T("Error")\n       \n        elif command == \'edit\':\n            try: id = request.args[2]\n            except: id = ""\n            \n            if id != \'\':\n                this_post = db(db.posts.id == id).select()[0]\n                edit_form = SQLFORM(db.posts, this_post)\n                \n                if edit_form.accepts(request.vars, session):\n                    session.flash = T("Post updated")\n                    redirect(URL(r = request, f = \'manage/post\'))\n                else:\n                    log_wrapped(\'Error\', ex)\n                    session.flash=T("(Caught) Error occured: %(err)s ", dict(err=str(ex)))\n                    \n        elif command == \'delete\':\n            try: id = request.args[2]\n            except: id = ""\n            \n            if id != \'\':\n                db(db.posts.id == id).delete()\n                session.flash = T("Post deleted")\n                redirect(URL(r = request, f = \'index\'))\n        else:\n            edit_form = \'\'\n\n        return dict(rows = rows, manage_title = manage_title, edit_form = edit_form, area = area)\n    \n    elif area == \'link\':\n        rows = db().select(db.links.ALL)\n        manage_title = T(\'Manage Links\')\n\n        if command == \'add\':\n            edit_form = SQLFORM(db.links, labels = link_labels)\n            \n            if edit_form.accepts(request.vars, session):\n                session.flash = T("Link added")\n                redirect(URL(r = request, f = \'manage/link\'))\n            else:\n                log_wrapped(\'Error\', ex)\n                session.flash=T("(Caught) Error occured: %(err)s ", dict(err=str(ex)))\n       \n        elif command == \'edit\':\n            try: id = request.args[2]\n            except: id = ""\n            \n            if id != \'\':\n                this_link = db(db.links.id == id).select()[0]\n                edit_form = SQLFORM(db.links, this_link)\n                \n                if edit_form.accepts(request.vars, session):\n                    session.flash = T("Link updated")\n                    redirect(URL(r = request, f = \'manage/link\'))\n                else:\n                    log_wrapped(\'Error\', ex)\n                    session.flash=T("(Caught) Error occured: %(err)s ", dict(err=str(ex)))\n        \n        elif command == \'delete\':\n            try: id = request.args[2]\n            except: id = ""\n            \n            if id != \'\':\n                db(db.links.id == id).delete()\n                session.flash = T("Link deleted")\n                redirect(URL(r = request, f = \'manage/link\'))\n        else:\n            edit_form = \'\'\n            \n        return dict(rows = rows, manage_title = manage_title, edit_form = edit_form, area = area)\n    \n    elif area == \'category\':\n        rows = db().select(db.categories.ALL)\n        manage_title = T(\'Manage Categories\')\n       \n        if command == \'add\':\n            edit_form = SQLFORM(db.categories, labels = cat_labels)\n            \n            if edit_form.accepts(request.vars, session):\n                session.flash = T("Category added")\n                redirect(URL(r = request, f = \'manage/category\'))\n        \n        elif command == \'edit\':\n            try: id = request.args[2]\n            except: id = ""\n            \n            if id != \'\':\n                this_cat = db(db.categories.id == id).select()[0]\n                edit_form = SQLFORM(db.categories, this_cat)\n                \n                if edit_form.accepts(request.vars, session):\n                    session.flash = T("Category updated")\n                    redirect(URL(r = request, f = \'manage/category\'))\n                else:\n                    log_wrapped(\'Error\', ex)\n                    session.flash=T("(Caught) Error occured: %(err)s ", dict(err=str(ex)))\n        \n        elif command == \'delete\':\n            try: id = request.args[2]\n            except: id = ""\n            \n            if id != \'\':\n                db(db.categories.id == id).delete()\n                session.flash = T("Category deleted")\n                redirect(URL(r = request, f = \'manage/category\'))\n        \n        else:\n            edit_form = \'\'\n\n        return dict(rows = rows, manage_title = manage_title, edit_form = edit_form, area = area)        \n    \n    else:\n        redirect(URL(r = request,f = \'index\'))\n\ndef error():\n    ticket=\'\'\n    code=\'\'\n    requested_uri=\'\'\n    err=\'\'\n\n    try:\n        ticket=request.vars.ticket\n        if ticket == \'None\': ticket=None\n        \n        code=request.vars.code\n        if code == \'None\': code=None\n        \n        requested_uri=request.vars.requested_uri\n        if requested_uri == \'None\': requested_uri=None\n    except Exception, ex:\n        err=str(ex)\n        session.flash=T("Error occured: %(err)s ", dict(err=str(ex)))\n        \n    return dict(ticket=ticket, code=code, requested_uri=requested_uri, err=err)\n        \ndef files():\n    upload_form=SQLFORM(db.files,labels=file_labels)\n    if request.vars.file!=None:\n        # TODO: strip_path_and_sanitize()\n        upload_form.vars.filename=request.vars.file.filename.lower()\n        if upload_form.accepts(request.vars,session):\n            response.flash=T(\'file uploaded\')\n        \n    download_form=FORM(LABEL(T(\'Enter file name\'))\n                        ,INPUT(_name="filename", requires=IS_NOT_EMPTY())\n                        ,INPUT(_type="submit",_value=T(\'Submit\')))\n    if (download_form.accepts(request.vars,session)\n        or (request.vars.download and request.vars.filename)):\n        _file=db(db.files.filename==request.vars.filename.lower()).select()\n        if _file: \n            _file=_file[0]\n            redirect(URL(r = request,f = \'download/%s/%s\' % (_file.file,_file.filename)))\n        else:\n            response.flash=T(\'no file found with the name %(filename)s\',\n                             dict(filename=request.vars.filename.lower()))\n        \n    return dict(upload_form=upload_form,download_form=download_form,\n                upload_title=T(\'upload\'),download_title=T(\'download\'))\n\ndef json():\n    area=request.args[0]\n    return response.json({\n        \'status\' : 1,\n        \'message\' : \'done\',\n        \'result\' : {\n            \'pages\' : lambda x: db(db.posts.post_type==\'page\').select()\n        }.get(request.args[0], None)(request.args[0])\n    })\n    \ndef user():\n    """\n    exposes:\n    http://..../[app]/default/user/login \n    http://..../[app]/default/user/logout\n    http://..../[app]/default/user/register\n    http://..../[app]/default/user/profile\n    http://..../[app]/default/user/retrieve_password\n    http://..../[app]/default/user/change_password\n    use @auth.requires_login()\n        @auth.requires_membership(\'group name\')\n        @auth.requires_permission(\'read\',\'table name\',record_id)\n    to decorate functions that need access control\n    """\n    if request.args[0]==\'logout\':\n        session.user_authorization_done=False\n    if auth.user and request.vars.next:\n        redirect(request.vars.next)\n    return dict(form=auth())\n\n\n@auth.requires_login()\ndef app_admin():\n    area=request.args[0]\n    if area==\'auth_user\':\n        form=SQLFORM(db.auth_user,response.anon_user,fields=[\'display_name\',\'email\'])\n        if request.post_vars.email:\n            auth.user.email=request.vars.email\n            \n            if (request.vars.email==response.anon_user.email and\n                request.vars.display_name==response.anon_user.display_name):\n                if form.accepts(request.vars,session):\n                    session.flash =T("Update done.")\n                    redirect(URL(r = request,f=\'index\'))\n                else:\n                    db.auth_user.insert(registration_id=auth.user.registration_id,\n                                        email=request.vars.email,\n                                        display_name=request.vars.display_name)\n                    session.flash =T("Data successfully saved.")\n                    redirect(URL(r = request,f=\'index\'))\n        return dict(form=form,area=area)\n    if area==\'user\':\n        if auth.user:\n            if auth.user.is_admin:\n                _fields=[\'registration_id\',\'display_name\',\'email\',\'is_admin\']\n            else:\n                _fields=[\'display_name\',\'email\']\n                \n            form=None\n            usr=None\n            if len(request.args)>1 and len(request.args[1])>0:\n                usr=db(db.auth_user.id==request.args[1]).select()\n                if len(usr)>0:usr=usr[0]\n                else:\n                    session.flash=\'User not found.\'\n                    redirect(URL(r=request,f=\'app_admin/user/\'))\n                form=SQLFORM(db.auth_user,usr,fields=_fields,deletable=True)\n                if form.accepts(request.vars,session):\n                    if request.vars.delete_this_record==\'on\':\n                        response.flash=T(\'User deleted.\')\n                    else:\n                        response.flash=T(\'User updated.\')\n                _form_title=T("edit user")\n            else:\n                form=SQLFORM(db.auth_user,fields=_fields)\n                if form.accepts(request.vars,session):\n                    session.flash=\'User created.\'\n                    redirect(URL(r=request,f=\'app_admin/user/%(id)i\' % form.vars.id))\n                _form_title=T("create user")\n            return dict(form=form,area=area,form_title=_form_title)\n        else:            \n            response.flash=T(\'woooups... not allowed\')\n            return dict(form=\'...\',area=area,form_title=\'...\')\n\ndef download():\n    import os\n    return response.stream(open(os.path.join(request.folder,\'uploads\',request.args[0]),\'rb\'))\n\n@auth.requires_login()\ndef do_stuff():\n    if request.args[0]==\'u_tcode_istrans\':\n        for pg in _pages:\n            tcode="page_id_"+str(pg.id)\n            is_trans=str(pg.id) in request.vars.ids.split(\',\')\n            upd=db(db.posts.id==pg.id).update(post_text_TCode=tcode,is_translated=is_trans)\n        session.flash=T(\'Translated pages post text T code updated.\')\n    elif request.args[0]==\'u_none_tcode_istrans\':\n        for pg in _pages:\n            tcode="page_id_"+str(pg.id)\n            if str(pg.id) in request.vars.ids.split(\',\'):\n                upd=db(db.posts.id==pg.id).update(post_text_TCode=None,is_translated=False)\n        session.flash=T(\'Translated pages post text T code updated.\')\n    elif request.args[0]==\'u_auth_user\':\n        for au in db().select(db.auth_user.ALL):\n            upd=db(db.auth_user.id==au.id).update(is_admin=False,is_anonymous=False)\n        session.flash=T(\'Auth user fields updated.\')\n        \n    redirect(URL(r = request,f = \'index\'))\n\nresponse._vars=response._caller(manage)\n'
p6
sS'snapshot'
p7
(dp8
S'exception'
p9
(dp10
S'__hash__'
p11
S"<method-wrapper '__hash__' of exceptions.NameError object at 0x91b278c>"
p12
sS'__setattr__'
p13
S"<method-wrapper '__setattr__' of exceptions.NameError object at 0x91b278c>"
p14
sS'__reduce_ex__'
p15
S'<built-in method __reduce_ex__ of exceptions.NameError object at 0x91b278c>'
p16
sS'__getslice__'
p17
S"<method-wrapper '__getslice__' of exceptions.NameError object at 0x91b278c>"
p18
sS'__getitem__'
p19
S"<method-wrapper '__getitem__' of exceptions.NameError object at 0x91b278c>"
p20
sS'__setstate__'
p21
S'<built-in method __setstate__ of exceptions.NameError object at 0x91b278c>'
p22
sS'__reduce__'
p23
S'<built-in method __reduce__ of exceptions.NameError object at 0x91b278c>'
p24
sS'__str__'
p25
S"<method-wrapper '__str__' of exceptions.NameError object at 0x91b278c>"
p26
sS'args'
p27
S'("global name \'ex\' is not defined",)'
p28
sS'__getattribute__'
p29
S"<method-wrapper '__getattribute__' of exceptions.NameError object at 0x91b278c>"
p30
sS'__class__'
p31
S"<type 'exceptions.NameError'>"
p32
sS'__delattr__'
p33
S"<method-wrapper '__delattr__' of exceptions.NameError object at 0x91b278c>"
p34
sS'__repr__'
p35
S"<method-wrapper '__repr__' of exceptions.NameError object at 0x91b278c>"
p36
sS'__dict__'
p37
S'{}'
p38
sS'__doc__'
p39
S"'Name not found globally.'"
p40
sS'__init__'
p41
S"<method-wrapper '__init__' of exceptions.NameError object at 0x91b278c>"
p42
sS'__new__'
p43
S'<built-in method __new__ of type object at 0x8239980>'
p44
ssS'evalue'
p45
S"global name 'ex' is not defined"
p46
sS'request'
p47
(dp48
S'function'
p49
S"'manage'"
p50
sS'body'
p51
S'<cStringIO.StringO object at 0x91017a0>'
p52
sS'wsgi'
p53
S"<Storage {'start_response': <function <lambda> a...ING': 'gzip,deflate', 'HTTP_KEEP_ALIVE': '115'}}>"
p54
sS'extension'
p55
S"'html'"
p56
sS'vars'
p57
S'<Storage {}>'
p58
sS'cid'
p59
S'None'
p60
sS'url'
p61
S'<gluon.html.XML object at 0x910122c>'
p62
sS'raw_extension'
p63
S'None'
p64
sg27
S"['link', 'add']"
p65
sS'controller'
p66
S"'default'"
p67
sS'cookies'
p68
S"<SimpleCookie: session_id_a='127.0.0.1-fbcb8fdb-...-358cc460-0c1f-4e50-8305-c250665363a9' theme='1'>"
p69
sS'application'
p70
S"'a'"
p71
sS'ajax'
p72
S'False'
p73
sS'client'
p74
S"'127.0.0.1'"
p75
sS'env'
p76
S"<Storage {'wsgi_multithread': True, 'http_accept...nput': <socket._fileobject object at 0x91d95a4>}>"
p77
sS'raw_args'
p78
S"'link/add'"
p79
sS'get_vars'
p80
S'<Storage {}>'
p81
sS'folder'
p82
S"'/home/herve/development/workspaces/molhokwai.net/web/applications/a/'"
p83
sS'now'
p84
S'datetime.datetime(2011, 1, 7, 8, 59, 48, 117)'
p85
sS'post_vars'
p86
S'<Storage {}>'
p87
ssS'frames'
p88
(lp89
(dp90
S'file'
p91
S'/home/herve/development/workspaces/molhokwai.net/web/gluon/restricted.py'
p92
sS'dump'
p93
(dp94
S'environment'
p95
S"{'A': <class 'gluon.html.A'>, 'AppDetails': <class __builtin__.AppDetails at 0x957d02c>, 'Auth': <class 'gluon.tools.Auth'>, 'B': <class 'gluon.html.B'>, 'BEAUTIFY': <class 'gluon.html.BEAUTIFY'>, 'BODY': <class 'gluon.html.BODY'>, 'BR': <class 'gluon.html.BR'>, 'CENTER': <class 'gluon.html.CENTER'>, 'CLEANUP': <class 'gluon.validators.CLEANUP'>, 'CODE': <class 'gluon.html.CODE'>, ...}"
p96
sS'ccode'
p97
S'<code object <module> at 0x90c59b0, file "/home/...b/applications/a/controllers/default.py", line 4>'
p98
ssS'lnum'
p99
I188
sS'lines'
p100
(dp101
I192
S'        # XXX Show exception in Wing IDE if running in debugger'
p102
sI183
S'        if type(code) == types.CodeType:'
p103
sI184
S'            ccode = code'
p104
sI185
S'        else:'
p105
sI186
S'            ccode = compile2(code,layer)'
p106
sI187
S''
sI188
S'        exec ccode in environment'
p107
sI189
S'    except HTTP:'
p108
sI190
S'        raise'
p109
sI191
S'    except Exception:'
p110
ssS'call'
p111
S'(code="###################################\\n## CONTROLLE...ndex\'))\\n\\nresponse._vars=response._caller(manage)\\n", environment={\'A\': <class \'gluon.html.A\'>, \'AppDetails\': <class __builtin__.AppDetails at 0x957d02c>, \'Auth\': <class \'gluon.tools.Auth\'>, \'B\': <class \'gluon.html.B\'>, \'BEAUTIFY\': <class \'gluon.html.BEAUTIFY\'>, \'BODY\': <class \'gluon.html.BODY\'>, \'BR\': <class \'gluon.html.BR\'>, \'CENTER\': <class \'gluon.html.CENTER\'>, \'CLEANUP\': <class \'gluon.validators.CLEANUP\'>, \'CODE\': <class \'gluon.html.CODE\'>, ...}, layer=\'/home/herve/development/workspaces/molhokwai.net/web/applications/a/controllers/default.py\')'
p112
sS'func'
p113
S'restricted'
p114
sa(dp115
g91
S'/home/herve/development/workspaces/molhokwai.net/web/applications/a/controllers/default.py'
p116
sg93
(dp117
sg99
I503
sg100
(dp118
I492
S'            tcode="page_id_"+str(pg.id)'
p119
sI493
S"            if str(pg.id) in request.vars.ids.split(','):"
p120
sI494
S'                upd=db(db.posts.id==pg.id).update(post_text_TCode=None,is_translated=False)'
p121
sI495
S"        session.flash=T('Translated pages post text T code updated.')"
p122
sI496
S"    elif request.args[0]=='u_auth_user':"
p123
sI497
S'        for au in db().select(db.auth_user.ALL):'
p124
sI498
S'            upd=db(db.auth_user.id==au.id).update(is_admin=False,is_anonymous=False)'
p125
sI499
S"        session.flash=T('Auth user fields updated.')"
p126
sI500
S''
sI501
S"    redirect(URL(r = request,f = 'index'))"
p127
ssg111
S'()'
p128
sg113
S'<module>'
p129
sa(dp130
g91
S'/home/herve/development/workspaces/molhokwai.net/web/gluon/globals.py'
p131
sg93
(dp132
S'self'
p133
S'undefined'
p134
sS'f'
S'<function manage at 0x9111bfc>'
p135
ssg99
I95
sg100
(dp136
I96
S'        self._view_environment = None'
p137
sI97
S'        self._custom_commit = None'
p138
sI98
S'        self._custom_rollback = None'
p139
sI99
S''
sI90
S"        self.flash = ''           # used by the default view layout"
p140
sI91
S'        self.meta = Storage()     # used by web2py_ajax.html'
p141
sI92
S'        self.menu = []            # used by the default view layout'
p142
sI93
S'        self.files = []           # used by web2py_ajax.html'
p143
sI94
S'        self._vars = None'
p144
sI95
S'        self._caller = lambda f: f()'
p145
ssg111
S'(f=<function manage at 0x9111bfc>)'
p146
sg113
S'<lambda>'
p147
sa(dp148
g91
S'/home/herve/development/workspaces/molhokwai.net/web/gluon/tools.py'
p149
sg93
(dp150
S'action'
p151
S'<function manage at 0x9111684>'
p152
sS'a'
S'()'
p153
sS'b'
g38
ssg99
I2292
sg100
(dp154
I2287
S'                    self.environment.session.flash = self.environment.response.flash'
p155
sI2288
S'                    return call_or_redirect(self.settings.on_failed_authentication,'
p156
sI2289
S'                                            self.settings.login_url + \\'
p157
sI2290
S"                                                '?_next='+urllib.quote(next)"
p158
sI2291
S'                                            )'
p159
sI2292
S'                return action(*a, **b)'
p160
sI2293
S'            f.__doc__ = action.__doc__'
p161
sI2294
S'            f.__name__ = action.__name__'
p162
sI2295
S'            f.__dict__.update(action.__dict__)'
p163
sI2296
S'            return f'
p164
ssg111
S'(*a=(), **b={})'
p165
sg113
S'f'
sa(dp166
g91
S'/home/herve/development/workspaces/molhokwai.net/web/applications/a/controllers/default.py'
p167
sg93
(dp168
S'global log_wrapped'
p169
S'<function log_wrapped at 0x910efb4>'
p170
sS'ex'
p171
g134
ssg99
I275
sg100
(dp172
I270
S''
sI271
S'            if edit_form.accepts(request.vars, session):'
p173
sI272
S'                session.flash = T("Link added")'
p174
sI273
S"                redirect(URL(r = request, f = 'manage/link'))"
p175
sI274
S'            else:'
p176
sI275
S"                log_wrapped('Error', ex)"
p177
sI276
S'                session.flash=T("(Caught) Error occured: %(err)s ", dict(err=str(ex)))'
p178
sI277
S''
sI278
S"        elif command == 'edit':"
p179
sI279
S'            try: id = request.args[2]'
p180
ssg111
S'()'
p181
sg113
S'manage'
p182
sasS'pyver'
p183
S'Python 2.5.1: /usr/local/bin/python'
p184
sS'session'
p185
(dp186
S'flash'
p187
S'None'
p188
sS'auth'
p189
S"<Storage {'expiration': 3600, 'user': <Storage {...(2011, 1, 7, 8, 59, 48, 117), 'remember': False}>"
p190
sS'user_authorization_done'
p191
S'True'
p192
sS'_formkey[links_create]'
p193
S"'47e429ed-7e6c-4c61-8ba1-4b6b8beeb912'"
p194
sS'authorized'
p195
g192
ssS'etype'
p196
S"<type 'exceptions.NameError'>"
p197
sS'date'
p198
S'Fri Jan  7 08:59:48 2011'
p199
sS'response'
p200
(dp201
S'_vars'
p202
S'None'
p203
sg68
S"<SimpleCookie: session_id_a='127.0.0.1-fbcb8fdb-d998-4890-8338-2a6eb7e1d56d'>"
p204
sS'links'
p205
S"[['web2py', 'http://www.web2py.com', 1], ['Python', 'http://www.python.org', 2], ['DePaul CTI', 'http://www.cs.depaul.edu', 3], ['DePaul University', 'http://www.depaul.edu', 5], ['downloads', '/a/default/page/32', 15], ['media / picasa / gallery', '/a/media/picasa/gallery', 16]]"
p206
sS'themes'
p207
S"['0', '1']"
p208
sS'meta'
p209
S'<Storage {}>'
p210
sS'anon_user'
p211
S"<Row {'auth_event': <gluon.dal.Set object at 0x9...elete_record': <function <lambda> at 0x910ea74>}>"
p212
sS'_view_environment'
p213
S"{'A': <class 'gluon.html.A'>, 'AppDetails': <class __builtin__.AppDetails at 0x957d02c>, 'Auth': <class 'gluon.tools.Auth'>, 'B': <class 'gluon.html.B'>, 'BEAUTIFY': <class 'gluon.html.BEAUTIFY'>, 'BODY': <class 'gluon.html.BODY'>, 'BR': <class 'gluon.html.BR'>, 'CENTER': <class 'gluon.html.CENTER'>, 'CLEANUP': <class 'gluon.validators.CLEANUP'>, 'CODE': <class 'gluon.html.CODE'>, ...}"
p214
sS'keywords'
p215
S"(<lazyT 'blog, weblog, journal, web, log, web2py,...raight-forward, direct, programming, programmer'>,)"
p216
sS'files'
p217
S'[]'
p218
sS'_caller'
p219
S'<function <lambda> at 0x92ee6bc>'
p220
sS'title'
p221
S'(<lazyT "molhokwai.net - \'a\' cm/dms">,)'
p222
sS'home_page'
p223
S"<Row {'post_text_TCode': 'page_id_24', 'post_tim...elete_record': <function <lambda> at 0x92ee33c>}>"
p224
sS'menu'
p225
S"[['home', False, '/a/default/page/16'], ['community', False, '/a/default/page/18']]"
p226
sS'flash'
p227
S"''"
p228
sS'theme'
p229
S"'1'"
p230
sS'session_file'
p231
S"<open file '/home/herve/development/workspaces/m...4890-8338-2a6eb7e1d56d', mode 'rb+' at 0x8fa7920>"
p232
sS'_custom_commit'
p233
S'None'
p234
sS'session_filename'
p235
S"'/home/herve/development/workspaces/molhokwai.net...ns/127.0.0.1-fbcb8fdb-d998-4890-8338-2a6eb7e1d56d'"
p236
sg51
S'<cStringIO.StringO object at 0x8f08040>'
p237
sS'description'
p238
S'<lazyT "molhokwai.net - \'a\' cm/dms, lightweight, simple, straight & direct">'
p239
sS'session_id_name'
p240
S"'session_id_a'"
p241
sS'_custom_rollback'
p242
S'None'
p243
sS'pages'
p244
S"[['beliefs', False, '/a/default/page/15'], ['home', False, '/a/default/page/16'], ['community', False, '/a/default/page/18'], ['SMS', False, '/a/default/page/21'], ['', False, '/a/default/page/23'], ['a_home', False, '/a/default/page/24'], ['a_help', False, '/a/default/page/26'], ['help', False, '/a/default/page/27'], ['a_home', False, '/a/default/page/29'], ['siblos', False, '/a/default/page/30'], ['dev', False, '/a/default/page/31'], ['downloads', False, '/a/default/page/32'], ['themes', False, '/a/default/page/35'], ['media upload', False, '/a/default/page/36'], ['acknowledgements', False, '/a/default/page/37']]"
p245
sS'categories'
p246
S"[['misc', 2, '/a/default/category/misc'], ['message', 1, '/a/default/category/message']]"
p247
sS'help_page'
p248
S"<Row {'post_text_TCode': 'page_id_26', 'post_tim...elete_record': <function <lambda> at 0x92eef44>}>"
p249
sS'session_id'
p250
S"'127.0.0.1-fbcb8fdb-d998-4890-8338-2a6eb7e1d56d'"
p251
sS'headers'
p252
S"<Storage {'Expires': 'Fri, 07 Jan 2011 07:59:48 ...he, must-revalidate, post-check=0, pre-check=0'}>"
p253
sS'status'
p254
S'200'
p255
sS'postprocessing'
p256
S'[]'
p257
sS'auth_users'
p258
S'<gluon.dal.Rows object at 0x93e726c>'
p259
sS'view'
p260
S"'default/manage.html'"
p261
ssS'locals'
p262
(dp263
S'edit_form'
p264
S'<gluon.sqlhtml.SQLFORM object at 0x926db0c>'
p265
sS'rows'
p266
S'<gluon.dal.Rows object at 0x901848c>'
p267
sS'command'
p268
S"'add'"
p269
sS'manage_title'
p270
S"<lazyT 'Manage Links'>"
p271
sS'area'
p272
S"'link'"
p273
sssS'traceback'
p274
S'Traceback (most recent call last):\n  File "/home/herve/development/workspaces/molhokwai.net/web/gluon/restricted.py", line 188, in restricted\n    exec ccode in environment\n  File "/home/herve/development/workspaces/molhokwai.net/web/applications/a/controllers/default.py", line 503, in <module>\n  File "/home/herve/development/workspaces/molhokwai.net/web/gluon/globals.py", line 95, in <lambda>\n    self._caller = lambda f: f()\n  File "/home/herve/development/workspaces/molhokwai.net/web/gluon/tools.py", line 2292, in f\n    return action(*a, **b)\n  File "/home/herve/development/workspaces/molhokwai.net/web/applications/a/controllers/default.py", line 275, in manage\n    log_wrapped(\'Error\', ex)\nNameError: global name \'ex\' is not defined\n'
p275
s.