(dp1
S'output'
p2
S''
sS'layer'
p3
S'/home/herve/development/workspaces/molhokwai.net/web/applications/a/views/media/social.html'
p4
sS'code'
p5
S'if not nake:\n    response.write(\'\\n    \', escape=False)\n    response.write(\'<!DOCTYPE html PUBLIC "-//W3C//DTD XHTML 1.0 Transitional//EN" "http://www.w3.org/TR/xhtml1/DTD/xhtml1-transitional.dtd">\\n<html xmlns="http://www.w3.org/1999/xhtml" xml:lang="\', escape=False)\n    response.write(T.accepted_language or \'en\')\n    response.write(\'">\\n\\n  <head>\\n    <title>\', escape=False)\n    if response.title:\n        response.write(response.title)\n    else:\n        response.write(URL(r=request))\n        pass\n    response.write(\'</title>\\n\\n    <title>\', escape=False)\n    response.write(response.title or request.application)\n    response.write(\'</title>\\n    <meta http-equiv="Content-Type" content="text/html; charset=UTF-8" />\\n    <meta name="keywords" content="\', escape=False)\n    response.write(response.keywords)\n    response.write(\'" />\\n    <meta name="description" content="\', escape=False)\n    response.write(response.description)\n    response.write(\'" />\\n    <meta name="google-site-verification" content="r0Pfq2q9SK7Pk9gkh1NnbsV28-mQoD8LoIGOeUhfer8" />\\n    \', escape=False)\n    if response.refresh:\n        response.write(XML(response.refresh))\n        pass\n    response.write(\'\\n    \\n    <link rel="stylesheet" href="/\', escape=False)\n    response.write(this_app)\n    response.write(\'/static/css/_base.css" type="text/css" media="screen" />\\n    <link rel="stylesheet" href="/\', escape=False)\n    response.write(this_app)\n    response.write(\'/static/css/base.css" type="text/css" media="screen" />\\n    <link rel="stylesheet" href="/\', escape=False)\n    response.write(this_app)\n    response.write(\'/static/css/themes/\', escape=False)\n    response.write(response.theme)\n    response.write(\'/base.css" type="text/css" media="screen" />\\n    <link rel="stylesheet" href="/\', escape=False)\n    response.write(this_app)\n    response.write(\'/static/components/markitup/style.css" type="text/css" media="screen" />\\n    <link rel="stylesheet" href="/\', escape=False)\n    response.write(this_app)\n    response.write(\'/static/components/markitup/sets/default/style.css" type="text/css" media="screen" />\\n    <style type="text/css"></style>\\n    \\n    \', escape=False)\n    response.write(\'<script type="text/javascript">\\n<!--\\n/*\\nWritten by Massimo Di Pierro.\\n\\nThis is a minimalistic AJAX for web2py, for more sophisticated stuff\\nyou should use Scriptacolous or some other AJAX toolkit. Anyway...\\n\\nTo use web2py_ajax.html just make sure you include \\\'web2py_ajax.html\\\'\\nin your layout.html. This provides four functions:\\n\\npopup(url)\\ncollapse(id)\\nfade(id,value) // try value= +0.1 or -0.1\\najax(url,sources,taget) \\n// will send sources[i].value to url and dispaly result in target\\n*/\\n\\nfunction popup(url) {\\n  newwindow=window.open(url,\\\'name\\\',\\\'height=400,width=600\\\');\\n  if (window.focus) {newwindow.focus()}\\n  return false;\\n}\\n\\nfunction collapse(id) {\\n   if(this.document.getElementById(id).style.display=="none")\\n   (this.document.getElementById(id).style.display="block") ;\\n   else (this.document.getElementById(id).style.display="none") ;\\n}\\n\\nfunction fade(id,value) {\\n  var object=document.getElementById(id);\\n  if(value<0 && !object.style.opacity) {\\n     this.document.getElementById(id).style.display="block";\\n     object.style.opacity=1;\\n  }\\n  if(value>0 && object.style.opacity>=1) object.style.opacity=1;\\n  else if(value<0 && object.style.opacity<=0) {\\n     this.document.getElementById(id).style.display="none";\\n     object.style.opacity=0;\\n  }\\n  else {\\n     this.document.getElementById(id).style.display="block";\\n     object.style.opacity-=-value;\\n     setTimeout(function(){fade(id,value);},100);\\n     return false;\\n  }\\n  return true;\\n}\\n\\nfunction ajax(url,sources,target) {\\n  var req = null; \\n  var ctarget=document.getElementById(target);\\n  window.status="connecting...";\\n  if(window.XMLHttpRequest)\\n     req = new XMLHttpRequest(); \\n  else if (window.ActiveXObject)\\n     req  = new ActiveXObject("Microsoft.XMLHTTP");\\n  req.onreadystatechange = function() {\\n     window.status="waiting...";\\n     if(req.readyState == 4)\\n       if(req.status == 200) {\\n          window.status=\\\'Ajax Done!\\\'\\n          try { \\n             ctarget.innerHTML=req.responseText; \\n             try {ctarget.scrollTop=ctarget.scrollHeight-ctarget.clientHeight;}\\n             catch(err) {}\\n          } catch(err) { ctarget.value=req.responseText; }\\n       } else alert("AJAX Error: " + req.status);\\n  }\\n  var query=""\\n  for(i=0; i<sources.length; i++) {\\n     if(i>0) query=query+"&";\\n     query=query+encodeURIComponent(sources[i])+"="+encodeURIComponent(document.getElementById(sources[i]).value);\\n  }\\n  req.open("POST",url,true); \\n  req.setRequestHeader("Content-Type", "application/x-www-form-urlencoded"); \\n  req.send(query); \\n} \\n//-->\\n</script>\', escape=False)\n    response.write(\'\\n\\n    <script type="text/javascript">\\n      var server={\\n          request : {\\n              application : \\\'\', escape=False)\n    response.write(this_app)\n    response.write(\'\\\'\\n          },\\n          pages : []\\n      };\\n    </script>\\n    <script type="text/javascript" src="/\', escape=False)\n    response.write(this_app)\n    response.write(\'/static/components/molhokwai/namespace.js"></script>\\n    <script type="text/javascript" src="/\', escape=False)\n    response.write(this_app)\n    response.write(\'/static/components/jquery/jquery-1.4.2.min.js"></script>\\n    <script type="text/javascript" src="/\', escape=False)\n    response.write(this_app)\n    response.write(\'/static/components/markitup/jquery.markitup.js"></script>\\n    <script type="text/javascript" src="/\', escape=False)\n    response.write(this_app)\n    response.write(\'/static/custom/script.js"></script>\\n    <script src="http://www.google.com/jsapi?key=ABQIAAAAhDaHyndn3TRHW8aVVgNfsBTPFwiohxerrbIfi_L7lDZ1YENwhRROxgxsy_RTT4IRmc8SWIpWu3KrsQ" type="text/javascript"></script>\\n    <script type="text/javascript" src="/\', escape=False)\n    response.write(this_app)\n    response.write(\'/static/components/google/search_init.js"></script>\\n    <script type="text/javascript">\\n      $(document).ready(function(){\\n          var browser_not=true;\\n          try { \\n              browser_not=!($.browser.mozilla || $.browser.webkit); \\n          }\\n          catch(e) {} \\n          if (browser_not){\\n              $(\\\'#content\\\').append(\\\'<div class="text-alignc margt5pc"><em>\', escape=False)\n    response.write(T("(Graphical design not tested (corrected) on this browser...)"))\n    response.write(\'</em></div>\\\');\\n          }\\n      });      \\n    </script>\\n\\n  </head>\\n\\n  <body>\\n\\n    <div id="wrapper" class="margt2pc  width60pc">\\n\\n      <div id="user-menu" class="right">\\n         \', escape=False)\n    if \'auth\' in globals():\n        response.write(\'\\n           \', escape=False)\n        if not auth.user:\n            response.write(\' \\n             \', escape=False)\n            response.write(A(T(\'login\'),_href=URL(r=request,c=\'default\',f=\'user/login\')))\n            response.write(\'\\n           \', escape=False)\n        else:\n            response.write(\'\\n             <!-- \', escape=False)\n            response.write(auth.user.display_name)\n            response.write(\' -->\\n             \', escape=False)\n            response.write(A(T(\'logout\'),_href=URL(r=request,c=\'default\',f=\'user/logout\')))\n            response.write(\' | \\n           \', escape=False)\n            pass\n        response.write(\'\\n         \', escape=False)\n        pass\n    response.write(\'\\n      </div>\\n      <!-- end #user-menu -->\\n\\n      <div id="cli_web" class="left margt2pc  width100pc">\\n        <form onsubmit="return false;">\\n            <input type="text" id="_cmd" name="_cmd" class="width30pc transparent"/>\\n            <font id="_cmd_msg" class="flash small">\\n                \', escape=False)\n    if session.cli_web_flash:\n        response.write(session.cli_web_flash)\n        session.cli_web_flash=False\n        pass\n    response.write(\'\\n                \', escape=False)\n    flash = session.flash if session.flash else response.flash\n    response.write(\'\\n                \', escape=False)\n    if flash:\n        response.write(flash)\n        pass\n    response.write(\'\\n            </font>\\n            <input type="hidden" id="_cmd_history_cur" value="-1"/>\\n        </form>\\n      </div>\\n      <!-- end #cli_web -->\\n    \\n      <div id="content" class="padl3pc left margt5pc width100pc">\\n        <div id="searchcontrol"></div>\\n        \', escape=False)\n    response.write(\'\\n\\n\', escape=False)\nelse:\n    response.write(\'\\n    \', escape=False)\n    if response.refresh:\n        response.write(XML(response.refresh))\n        pass\n    response.write(\'\\n    <link rel="stylesheet" href="/\', escape=False)\n    response.write(this_app)\n    response.write(\'/static/css/_base.css" type="text/css" media="screen" />\\n    <link rel="stylesheet" href="/\', escape=False)\n    response.write(this_app)\n    response.write(\'/static/css/base.css" type="text/css" media="screen" />\\n    <link rel="stylesheet" href="/\', escape=False)\n    response.write(this_app)\n    response.write(\'/static/css/themes/\', escape=False)\n    response.write(response.theme)\n    response.write(\'/base.css" type="text/css" media="screen" />\\n    <style type="text/css">\\n        #footer, footer, #top-bar, top-bar {\\n            display:none;\\n        }\\n    </style>\\n\', escape=False)\n    pass\nresponse.write(\'\\n\\n\', escape=False)\nif area in [\'twitter\']:\n    response.write(\'\\n    \', escape=False)\n    for item in items:\n        response.write(\'\\n        \', escape=False)\n        response.write(XML(item.replace(\'\\\\n\', \'\')))\n        response.write(\'\\n    \', escape=False)\n        pass\n    response.write(\'\\n\', escape=False)\n    pass\nresponse.write(\'\\n\', escape=False)\nresponse.write(\'\\n      </div>\\n      <!-- end #content -->\\n\\n      <div id="utility" class="clear">&nbsp;</div>\\n\\n      <div id="footer">\', escape=False)\nresponse.write(A(T(\'acknowledgements\'), _href=URL( r=request, c=\'default\', f=\'page\', args=[\'acknowledgements\'])))\nresponse.write(\'</div>\\n        \\n    </div>\\n    <!-- end #wrapper -->\\n\\n    <div id="tracking">\\n        <script type="text/javascript" id="tracking_src">\\n            var gaJsHost = (("https:" == document.location.protocol) ? "https://ssl." : "http://www.");\\n            document.write(unescape("%3Cscript src=\\\'" + gaJsHost + "google-analytics.com/ga.js\\\' type=\\\'text/javascript\\\'%3E%3C/script%3E"));\\n        </script>\\n        <script type="text/javascript" id="tracking_process">\\n            try {\\n                var pageTracker = _gat._getTracker("UA-5101967-1");\\n                pageTracker._initData();\\n                pageTracker._trackPageview();\\n            }\\n            catch(e) {\\n                if (console) try{console.log(e);}catch(e){}\\n            }\\n        </script>\\n    </div>    \\n    <!-- end #tracking -->\\n\\n    <div id="links">\\n             \', escape=False)\nresponse.write(A(T(\'add page/post\'),_href=URL(r=request,c=\'default\',f=\'add/page\'), _class=\'color-transparent\'))\nresponse.write(\'\\n             \', escape=False)\n_post=None\ntry: _post=post\nexcept Exception, ex: pass\nresponse.write(\'\\n             \', escape=False)\nif _post:\n    response.write(\'\\n                 \', escape=False)\n    if _post.post_type==\'page\':\n        response.write(\'\\n                     \', escape=False)\n        response.write(A(T(\'edit page/post ?\'),_href=URL(r=request,c=\'default\',f=\'edit/page/%i\' % _post.id), _class=\'color-transparent\'))\n        response.write(\'\\n                 \', escape=False)\n    else:\n        response.write(\'\\n                     \', escape=False)\n        response.write(A(T(\'edit page/post ?\'),_href=URL(r=request,c=\'default\',f=\'edit/post/%i\' % _post.id), _class=\'color-transparent\'))\n        response.write(\'\\n                 \', escape=False)\n        pass\n    response.write(\'\\n             \', escape=False)\n    pass\nresponse.write(\'\\n             \', escape=False)\nif response.home_page:\n    response.write(\'\\n                 \', escape=False)\n    response.write(A(T(\'root\'),_href=URL(r=request,c=\'default\',f=\'page/%i\' % response.home_page.id), _class=\'color-transparent\'))\n    response.write(\'\\n             \', escape=False)\n    pass\nresponse.write(\'\\n             \', escape=False)\nif response.help_page:\n    response.write(\'\\n                 \', escape=False)\n    response.write(A(T(\'help\'),_href=URL(r=request,c=\'default\',f=\'page/%i\' % response.help_page.id), _class=\'color-transparent\'))\n    response.write(\'\\n             \', escape=False)\n    pass\nresponse.write(\'\\n             \\n             \', escape=False)\nresponse.write(A(T(\'links\'),_href=URL(r=request,c=\'default\',f=\'manage/link\'), _class=\'color-transparent\'))\nresponse.write(\'\\n             \', escape=False)\nif response.links:\n    response.write(\'\\n                 \', escape=False)\n    for _name,_link,_id in response.links:\n        response.write(\'\\n                         \', escape=False)\n        response.write(A(T(_name),_href=_link, _class=\'color-transparent\'))\n        response.write(\'\\n                 \', escape=False)\n        pass\n    response.write(\'\\n             \', escape=False)\n    pass\nresponse.write(\'\\n             \\n             \', escape=False)\nresponse.write(A(T(\'pages\'),_href=URL(r=request,c=\'default\',f=\'pages\'), _class=\'color-transparent\'))\nresponse.write(\'\\n             \', escape=False)\nif response.pages:\n    response.write(\'\\n                 \', escape=False)\n    for _title,_false,_link in response.links:\n        response.write(\'\\n                         \', escape=False)\n        response.write(A(T(_title),_href=_link, _class=\'color-transparent\'))\n        response.write(\'\\n                 \', escape=False)\n        pass\n    response.write(\'\\n             \', escape=False)\n    pass\nresponse.write(\'\\n    </div>\\n    <!-- end #links -->\\n  \\n  </body>\\n</html>\\n\', escape=False)'
p6
sS'snapshot'
p7
(dp8
S'exception'
p9
(dp10
S'__hash__'
p11
S"<method-wrapper '__hash__' of exceptions.AttributeError object at 0xa53738c>"
p12
sS'__setattr__'
p13
S"<method-wrapper '__setattr__' of exceptions.AttributeError object at 0xa53738c>"
p14
sS'__reduce_ex__'
p15
S'<built-in method __reduce_ex__ of exceptions.AttributeError object at 0xa53738c>'
p16
sS'__getslice__'
p17
S"<method-wrapper '__getslice__' of exceptions.AttributeError object at 0xa53738c>"
p18
sS'__getitem__'
p19
S"<method-wrapper '__getitem__' of exceptions.AttributeError object at 0xa53738c>"
p20
sS'__setstate__'
p21
S'<built-in method __setstate__ of exceptions.AttributeError object at 0xa53738c>'
p22
sS'__reduce__'
p23
S'<built-in method __reduce__ of exceptions.AttributeError object at 0xa53738c>'
p24
sS'__str__'
p25
S"<method-wrapper '__str__' of exceptions.AttributeError object at 0xa53738c>"
p26
sS'args'
p27
S'("\'dict\' object has no attribute \'replace\'",)'
p28
sS'__getattribute__'
p29
S"<method-wrapper '__getattribute__' of exceptions.AttributeError object at 0xa53738c>"
p30
sS'__class__'
p31
S"<type 'exceptions.AttributeError'>"
p32
sS'__delattr__'
p33
S"<method-wrapper '__delattr__' of exceptions.AttributeError object at 0xa53738c>"
p34
sS'__repr__'
p35
S"<method-wrapper '__repr__' of exceptions.AttributeError object at 0xa53738c>"
p36
sS'__dict__'
p37
S'{}'
p38
sS'__doc__'
p39
S"'Attribute not found.'"
p40
sS'__init__'
p41
S"<method-wrapper '__init__' of exceptions.AttributeError object at 0xa53738c>"
p42
sS'__new__'
p43
S'<built-in method __new__ of type object at 0x8239b00>'
p44
ssS'evalue'
p45
S"'dict' object has no attribute 'replace'"
p46
sS'request'
p47
(dp48
S'function'
p49
S"'social'"
p50
sS'body'
p51
S'<cStringIO.StringO object at 0xa531040>'
p52
sS'wsgi'
p53
S"<Storage {'start_response': <function <lambda> a...ING': 'gzip,deflate', 'HTTP_KEEP_ALIVE': '115'}}>"
p54
sS'extension'
p55
S"'html'"
p56
sS'vars'
p57
S'<Storage {}>'
p58
sS'cid'
p59
S'None'
p60
sS'url'
p61
S'<gluon.html.XML object at 0xa527fec>'
p62
sS'raw_extension'
p63
S'None'
p64
sg27
S"['twitter']"
p65
sS'controller'
p66
S"'media'"
p67
sS'cookies'
p68
S"<SimpleCookie: session_id_a='127.0.0.1-76250500-...c4fd76-048f-4688-8653-aa55bd9624a8' theme='blue'>"
p69
sS'application'
p70
S"'a'"
p71
sS'ajax'
p72
S'False'
p73
sS'client'
p74
S"'127.0.0.1'"
p75
sS'env'
p76
S"<Storage {'wsgi_multithread': True, 'http_accept...nput': <socket._fileobject object at 0xa51ae64>}>"
p77
sS'raw_args'
p78
S"'twitter'"
p79
sS'get_vars'
p80
S'<Storage {}>'
p81
sS'folder'
p82
S"'/home/herve/development/workspaces/molhokwai.net/web/applications/a/'"
p83
sS'now'
p84
S'datetime.datetime(2011, 1, 12, 17, 20, 35, 502640)'
p85
sS'post_vars'
p86
S'<Storage {}>'
p87
ssS'frames'
p88
(lp89
(dp90
S'file'
p91
S'/home/herve/development/workspaces/molhokwai.net/web/gluon/restricted.py'
p92
sS'dump'
p93
(dp94
S'environment'
p95
S"{'A': <class 'gluon.html.A'>, 'AppDetails': <class __builtin__.AppDetails at 0xa5347dc>, 'Auth': <class 'gluon.tools.Auth'>, 'B': <class 'gluon.html.B'>, 'BEAUTIFY': <class 'gluon.html.BEAUTIFY'>, 'BODY': <class 'gluon.html.BODY'>, 'BR': <class 'gluon.html.BR'>, 'CENTER': <class 'gluon.html.CENTER'>, 'CLEANUP': <class 'gluon.validators.CLEANUP'>, 'CODE': <class 'gluon.html.CODE'>, ...}"
p96
sS'ccode'
p97
S'<code object <module> at 0xa536410, file "/home/.../applications/a/views/media/social.html", line 1>'
p98
ssS'lnum'
p99
I188
sS'lines'
p100
(dp101
I192
S'        # XXX Show exception in Wing IDE if running in debugger'
p102
sI183
S'        if type(code) == types.CodeType:'
p103
sI184
S'            ccode = code'
p104
sI185
S'        else:'
p105
sI186
S'            ccode = compile2(code,layer)'
p106
sI187
S''
sI188
S'        exec ccode in environment'
p107
sI189
S'    except HTTP:'
p108
sI190
S'        raise'
p109
sI191
S'    except Exception:'
p110
ssS'call'
p111
S'(code="if not nake:\\n    response.write(\'\\\\n    \', escape...nks -->\\\\n  \\\\n  </body>\\\\n</html>\\\\n\', escape=False)", environment={\'A\': <class \'gluon.html.A\'>, \'AppDetails\': <class __builtin__.AppDetails at 0xa5347dc>, \'Auth\': <class \'gluon.tools.Auth\'>, \'B\': <class \'gluon.html.B\'>, \'BEAUTIFY\': <class \'gluon.html.BEAUTIFY\'>, \'BODY\': <class \'gluon.html.BODY\'>, \'BR\': <class \'gluon.html.BR\'>, \'CENTER\': <class \'gluon.html.CENTER\'>, \'CLEANUP\': <class \'gluon.validators.CLEANUP\'>, \'CODE\': <class \'gluon.html.CODE\'>, ...}, layer=\'/home/herve/development/workspaces/molhokwai.net/web/applications/a/views/media/social.html\')'
p112
sS'func'
p113
S'restricted'
p114
sa(dp115
g91
S'/home/herve/development/workspaces/molhokwai.net/web/applications/a/views/media/social.html'
p116
sg93
(dp117
sg99
I98
sg100
(dp118
I96
S'    for item in items:'
p119
sI97
S"        response.write('\\n        ', escape=False)"
p120
sI98
S"        response.write(XML(item.replace('\\\\n', '')))"
p121
sI99
S"        response.write('\\n    ', escape=False)"
p122
sI100
S'        pass'
p123
sI101
S"    response.write('\\n', escape=False)"
p124
sI102
S'    pass'
p125
sI103
S"response.write('\\n', escape=False)"
p126
sI104
S'response.write(\'\\n      </div>\\n      <!-- end #content -->\\n\\n      <div id="utility" class="clear">&nbsp;</div>\\n\\n      <div id="footer">\', escape=False)'
p127
sI105
S"response.write(A(T('acknowledgements'), _href=URL( r=request, c='default', f='page', args=['acknowledgements'])))"
p128
sI106
S'response.write(\'</div>\\n        \\n    </div>\\n    <!-- end #wrapper -->\\n\\n    <div id="tracking">\\n        <script type="text/javascript" id="tracking_src">\\n            var gaJsHost = (("https:" == document.location.protocol) ? "https://ssl." : "http://www.");\\n            document.write(unescape("%3Cscript src=\\\'" + gaJsHost + "google-analytics.com/ga.js\\\' type=\\\'text/javascript\\\'%3E%3C/script%3E"));\\n        </script>\\n        <script type="text/javascript" id="tracking_process">\\n            try {\\n                var pageTracker = _gat._getTracker("UA-5101967-1");\\n                pageTracker._initData();\\n                pageTracker._trackPageview();\\n            }\\n            catch(e) {\\n                if (console) try{console.log(e);}catch(e){}\\n            }\\n        </script>\\n    </div>    \\n    <!-- end #tracking -->\\n\\n    <div id="links">\\n             \', escape=False)'
p129
sI107
S"response.write(A(T('add page/post'),_href=URL(r=request,c='default',f='add/page'), _class='color-transparent'))"
p130
sI108
S"response.write('\\n             ', escape=False)"
p131
sI89
S"    response.write('/static/css/themes/', escape=False)"
p132
sI90
S'    response.write(response.theme)'
p133
sI91
S'    response.write(\'/base.css" type="text/css" media="screen" />\\n    <style type="text/css">\\n        #footer, footer, #top-bar, top-bar {\\n            display:none;\\n        }\\n    </style>\\n\', escape=False)'
p134
sI92
S'    pass'
p135
sI93
S"response.write('\\n\\n', escape=False)"
p136
sI94
S"if area in ['twitter']:"
p137
sI95
S"    response.write('\\n    ', escape=False)"
p138
ssg111
S'()'
p139
sg113
S'<module>'
p140
sasS'pyver'
p141
S'Python 2.5.1: /usr/local/bin/python'
p142
sS'session'
p143
(dp144
S'user_authorization_done'
p145
S'True'
p146
sS'_formkey[app_config_1]'
p147
S"'68410527-5c6f-4673-8a8a-58f5422cac7f'"
p148
sS'flash'
p149
S'None'
p150
sS'_formkey[links_create]'
p151
S"'f8e43d71-2aab-48dd-ac0f-6301d2985ea9'"
p152
sS'auth'
p153
S"<Storage {'expiration': 3600, 'user': <Storage {..., 1, 12, 17, 20, 35, 502640), 'remember': False}>"
p154
sS'authorized'
p155
g146
ssS'etype'
p156
S"<type 'exceptions.AttributeError'>"
p157
sS'date'
p158
S'Wed Jan 12 17:20:36 2011'
p159
sS'response'
p160
(dp161
S'_vars'
p162
S"{'area': 'twitter', 'items': [{u'created_at': u'Wed, 12 Jan 2011 16:20:27 +0000', u'from_user': u'FlexOnDaDevil', u'from_user_id': 161093365, u'from_user_id_str': u'161093365', u'geo': None, u'id': 25225603040944128L, u'id_str': u'25225603040944128', u'iso_language_code': u'en', u'metadata': {u'result_type': u'recent'}, u'profile_image_url': u'http://a1.twimg.com/profile_images/1200811907/1293545330732_normal.jpg', ...}, {u'created_at': u'Wed, 12 Jan 2011 16:20:24 +0000', u'from_user': u'tigorpasaribu', u'from_user_id': 147582330, u'from_user_id_str': u'147582330', u'geo': None, u'id': 25225593595363329L, u'id_str': u'25225593595363329', u'iso_language_code': u'en', u'metadata': {u'result_type': u'recent'}, u'profile_image_url': u'http://a2.twimg.com/profile_images/1143647280/193302908_normal.jpg', ...}, {u'created_at': u'Wed, 12 Jan 2011 16:20:24 +0000', u'from_user': u'fortyoneacres', u'from_user_id': 4089, u'from_user_id_str': u'4089', u'geo': None, u'id': 25225592496455680L, u'id_str': u'25225592496455680', u'iso_language_code': u'en', u'metadata': {u'result_type': u'recent'}, u'profile_image_url': u'http://a1.twimg.com/profile_images/1207568194/DSCN0063_normal.JPG', ...}, {u'created_at': u'Wed, 12 Jan 2011 16:20:24 +0000', u'from_user': u'rizkyhafizan', u'from_user_id': 87088173, u'from_user_id_str': u'87088173', u'geo': None, u'id': 25225591368187904L, u'id_str': u'25225591368187904', u'iso_language_code': u'id', u'metadata': {u'result_type': u'recent'}, u'profile_image_url': u'http://a3.twimg.com/profile_images/1210279522/P1070013_normal.jpg', ...}, {u'created_at': u'Wed, 12 Jan 2011 16:20:23 +0000', u'from_user': u'iPutYouOn', u'from_user_id': 7066964, u'from_user_id_str': u'7066964', u'geo': None, u'id': 25225586448269313L, u'id_str': u'25225586448269313', u'iso_language_code': u'en', u'metadata': {u'result_type': u'recent'}, u'profile_image_url': u'http://a0.twimg.com/profile_images/1209610057/founder_lqh9_normal.jpg', ...}, {u'created_at': u'Wed, 12 Jan 2011 16:20:20 +0000', u'from_user': u'DaniWaldanI', u'from_user_id': 167803387, u'from_user_id_str': u'167803387', u'geo': None, u'id': 25225575668912128L, u'id_str': u'25225575668912128', u'iso_language_code': u'id', u'metadata': {u'result_type': u'recent'}, u'profile_image_url': u'http://a2.twimg.com/profile_images/1202285734/timnas_1_normal.jpg', ...}, {u'created_at': u'Wed, 12 Jan 2011 16:20:19 +0000', u'from_user': u'marcelordejesus', u'from_user_id': 103135110, u'from_user_id_str': u'103135110', u'geo': None, u'id': 25225570631557120L, u'id_str': u'25225570631557120', u'iso_language_code': u'pt', u'metadata': {u'result_type': u'recent'}, u'profile_image_url': u'http://a0.twimg.com/profile_images/683993181/DSC02726_normal.JPG', ...}, {u'created_at': u'Wed, 12 Jan 2011 16:20:18 +0000', u'from_user': u'frozenorigami', u'from_user_id': 154135630, u'from_user_id_str': u'154135630', u'geo': None, u'id': 25225565984268289L, u'id_str': u'25225565984268289', u'iso_language_code': u'no', u'metadata': {u'result_type': u'recent'}, u'profile_image_url': u'http://a2.twimg.com/profile_images/1211753283/cutout2_normal.jpg', ...}, {u'created_at': u'Wed, 12 Jan 2011 16:20:17 +0000', u'from_user': u'Ridho151', u'from_user_id': 117935134, u'from_user_id_str': u'117935134', u'geo': None, u'id': 25225564415598593L, u'id_str': u'25225564415598593', u'iso_language_code': u'id', u'metadata': {u'result_type': u'recent'}, u'profile_image_url': u'http://a3.twimg.com/profile_images/1205379405/217064597_normal.jpg', ...}, {u'created_at': u'Wed, 12 Jan 2011 16:20:17 +0000', u'from_user': u'andika14', u'from_user_id': 136629928, u'from_user_id_str': u'136629928', u'geo': None, u'id': 25225563723530242L, u'id_str': u'25225563723530242', u'iso_language_code': u'en', u'metadata': {u'result_type': u'recent'}, u'profile_image_url': u'http://a0.twimg.com/profile_images/1213647480/DSC00462_normal.JPG', ...}, {u'created_at': u'Wed, 12 Jan 2011 16:20:12 +0000', u'from_user': u'romyvasquez', u'from_user_id': 103190544, u'from_user_id_str': u'103190544', u'geo': None, u'id': 25225541367889920L, u'id_str': u'25225541367889920', u'iso_language_code': u'es', u'metadata': {u'result_type': u'recent'}, u'profile_image_url': u'http://a1.twimg.com/profile_images/1205688943/IMG_3866__2__normal.jpg', ...}, {u'created_at': u'Wed, 12 Jan 2011 16:20:09 +0000', u'from_user': u'watshermann', u'from_user_id': 21983286, u'from_user_id_str': u'21983286', u'geo': None, u'id': 25225528063561728L, u'id_str': u'25225528063561728', u'iso_language_code': u'pt', u'metadata': {u'result_type': u'recent'}, u'profile_image_url': u'http://a2.twimg.com/profile_images/1161454862/image_normal.jpg', ...}, {u'created_at': u'Wed, 12 Jan 2011 16:20:07 +0000', u'from_user': u'marshafm', u'from_user_id': 126104193, u'from_user_id_str': u'126104193', u'geo': None, u'id': 25225522451582976L, u'id_str': u'25225522451582976', u'iso_language_code': u'id', u'metadata': {u'result_type': u'recent'}, u'profile_image_url': u'http://a2.twimg.com/profile_images/1213195249/242693513_normal.jpg', ...}, {u'created_at': u'Wed, 12 Jan 2011 16:20:07 +0000', u'from_user': u'drgirni', u'from_user_id': 181947495, u'from_user_id_str': u'181947495', u'geo': {u'coordinates': [-6.0654000000000003, 106.12390000000001], u'type': u'Point'}, u'id': 25225521793073152L, u'id_str': u'25225521793073152', u'iso_language_code': u'es', u'metadata': {u'result_type': u'recent'}, u'place': {u'full_name': u'Kramat Watu, Kota Serang', u'id': u'66512cff855520a7', u'type': u'city'}, ...}, {u'created_at': u'Wed, 12 Jan 2011 16:20:07 +0000', u'from_user': u'jazzashleyhair', u'from_user_id': 114903767, u'from_user_id_str': u'114903767', u'geo': None, u'id': 25225519196807168L, u'id_str': u'25225519196807168', u'iso_language_code': u'eo', u'metadata': {u'result_type': u'recent'}, u'profile_image_url': u'http://a2.twimg.com/profile_images/1213025584/jazzashleyhair_normal.jpg', ...}], 'nake': False}"
p163
sg68
S"<SimpleCookie: session_id_a='127.0.0.1-76250500-f357-4eb7-95d6-602a5ce036a8'>"
p164
sS'links'
p165
S"[['web2py', 'http://www.web2py.com', 1], ['Python', 'http://www.python.org', 2], ['DePaul CTI', 'http://www.cs.depaul.edu', 3], ['DePaul University', 'http://www.depaul.edu', 5], ['downloads', '/a/default/page/32', 15], ['media / picasa / gallery', '/a/media/picasa/gallery', 16], ['manage media / manage picasa albums / manage photos', '/a/media/picasa/albums', 17], ['setup, application initialization', '/a/setup', 18], ['twitter', '/a/media/social/twitter', 19]]"
p166
sS'themes'
p167
S"['0', '1']"
p168
sS'meta'
p169
S'<Storage {}>'
p170
sS'anon_user'
p171
S"<Row {'auth_event': <gluon.dal.Set object at 0xa...elete_record': <function <lambda> at 0xa6de5dc>}>"
p172
sS'_view_environment'
p173
S"{'A': <class 'gluon.html.A'>, 'AppDetails': <class __builtin__.AppDetails at 0xa5347dc>, 'Auth': <class 'gluon.tools.Auth'>, 'B': <class 'gluon.html.B'>, 'BEAUTIFY': <class 'gluon.html.BEAUTIFY'>, 'BODY': <class 'gluon.html.BODY'>, 'BR': <class 'gluon.html.BR'>, 'CENTER': <class 'gluon.html.CENTER'>, 'CLEANUP': <class 'gluon.validators.CLEANUP'>, 'CODE': <class 'gluon.html.CODE'>, ...}"
p174
sS'keywords'
p175
S"'blog, weblog, journal, web, log, web2py, pypress...straight-forward, direct, programming, programmer'"
p176
sS'files'
p177
S'[]'
p178
sS'_caller'
p179
S'<function <lambda> at 0xa51af0c>'
p180
sS'title'
p181
S'"molhokwai.net - \'a\' cm/dms"'
p182
sS'home_page'
p183
S"<Row {'post_text_TCode': 'page_id_24', 'post_tim...elete_record': <function <lambda> at 0xa6dedbc>}>"
p184
sS'menu'
p185
S"[['home', False, '/a/default/page/16'], ['community', False, '/a/default/page/18']]"
p186
sS'flash'
p187
S"''"
p188
sS'theme'
p189
S"'blue'"
p190
sS'session_file'
p191
S"<open file '/home/herve/development/workspaces/m...4eb7-95d6-602a5ce036a8', mode 'rb+' at 0xa523d10>"
p192
sS'_custom_commit'
p193
S'None'
p194
sS'session_filename'
p195
S"'/home/herve/development/workspaces/molhokwai.net...ns/127.0.0.1-76250500-f357-4eb7-95d6-602a5ce036a8'"
p196
sg51
S'<cStringIO.StringO object at 0xa527ca0>'
p197
sS'description'
p198
S'"molhokwai.net - \'a\' cm/dms, lightweight, simple, straight & direct"'
p199
sS'session_id_name'
p200
S"'session_id_a'"
p201
sS'_custom_rollback'
p202
S'None'
p203
sS'pages'
p204
S"[['beliefs', False, '/a/default/page/15'], ['home', False, '/a/default/page/16'], ['community', False, '/a/default/page/18'], ['SMS', False, '/a/default/page/21'], ['', False, '/a/default/page/23'], ['a_home', False, '/a/default/page/24'], ['a_help', False, '/a/default/page/26'], ['help', False, '/a/default/page/27'], ['a_home', False, '/a/default/page/29'], ['siblos', False, '/a/default/page/30'], ['dev', False, '/a/default/page/31'], ['downloads', False, '/a/default/page/32'], ['themes', False, '/a/default/page/35'], ['media upload', False, '/a/default/page/36'], ['acknowledgements', False, '/a/default/page/37']]"
p205
sS'categories'
p206
S"[['misc', 2, '/a/default/category/misc'], ['message', 1, '/a/default/category/message']]"
p207
sS'help_page'
p208
S"<Row {'post_text_TCode': 'page_id_26', 'post_tim...elete_record': <function <lambda> at 0xa6dee2c>}>"
p209
sS'session_id'
p210
S"'127.0.0.1-76250500-f357-4eb7-95d6-602a5ce036a8'"
p211
sS'headers'
p212
S"<Storage {'Expires': 'Wed, 12 Jan 2011 16:20:35 ...he, must-revalidate, post-check=0, pre-check=0'}>"
p213
sS'status'
p214
S'200'
p215
sS'postprocessing'
p216
S'[]'
p217
sS'auth_users'
p218
S'<gluon.dal.Rows object at 0xa61e62c>'
p219
sS'view'
p220
S"'media/social.html'"
p221
ssS'locals'
p222
(dp223
S'protocol'
p224
S"'http'"
p225
sS'app_details'
p226
S'<__builtin__.AppDetails instance at 0xa61c64c>'
p227
sS'Service'
p228
S"<class 'gluon.tools.Service'>"
p229
sS'OBJECT'
p230
S"<class 'gluon.html.OBJECT'>"
p231
sS'SQLDB'
p232
S"<class 'gluon.dal.DAL'>"
p233
sg143
S"<Storage {'user_authorization_done': True, '_for...02640), 'remember': False}>, 'authorized': True}>"
p234
sS'LINK'
p235
S"<class 'gluon.html.LINK'>"
p236
sS'BR'
p237
S"<class 'gluon.html.BR'>"
p238
sS'local_import'
p239
S'<function <lambda> at 0xa5356f4>'
p240
sS'OPTGROUP'
p241
S"<class 'gluon.html.OPTGROUP'>"
p242
sS'expressions'
p243
S'{\'rel_url_and_end_tags_find\': [\'[0-9]{0,1}/[-A-Za-z0-9_\\\\$\\\\.\\\\+\\\\!\\\\*\\\\(\\\\),;:@&=\\\\?/~\\\\#\\\\%]*[^]\\\'\\\\.}>\\\\),\\\\"]\'], \'url_find\': [\'([0-9]{1,3}\\\\.[0-9]{1,3}\\\\.[0-9]{1,3}\\\\.[0-9]{1,3}|...z0-9_\\\\$\\\\.\\\\+\\\\!\\\\*\\\\(\\\\),;:@&=\\\\?/~\\\\#\\\\%]*[^]\\\'\\\\.}>\\\\),\\\\"]\', r\'([0-9]{1,3}\\.[0-9]{1,3}\\.[0-9]{1,3}\\.[0-9]{1,3}|...ww|ftp)[-A-Za-z0-9]*\\.)[-A-Za-z0-9\\.]+)(:[0-9]*)?\', r\'(~/|/|\\./)([-A-Za-z0-9_\\$\\.\\+\\!\\*\\(\\),;:@&=\\?/~\\#\\%]|\\\\)+\', r"\'\\<((mailto:)|)[-A-Za-z0-9\\.]+@[-A-Za-z0-9\\.]+"]}'
p244
sS'link_labels'
p245
S"{'link_title': 'Name', 'link_url': 'URL'}"
p246
sS'PRE'
p247
S"<class 'gluon.html.PRE'>"
p248
sS'IS_INT_IN_RANGE'
p249
S"<class 'gluon.validators.IS_INT_IN_RANGE'>"
p250
sS'IS_LOWER'
p251
S"<class 'gluon.validators.IS_LOWER'>"
p252
sS'IS_STRONG'
p253
S"<class 'gluon.validators.IS_STRONG'>"
p254
sS'Recaptcha'
p255
S"<class 'gluon.tools.Recaptcha'>"
p256
sS'cache'
p257
S'<gluon.cache.Cache object at 0xa532c0c>'
p258
sS'IS_IN_DB'
p259
S"<class 'gluon.validators.IS_IN_DB'>"
p260
sS'TAG'
p261
S'<gluon.html.__TAG__ object at 0x57c1cc>'
p262
sS'SQLField'
p263
S"<class 'gluon.dal.Field'>"
p264
sS'BODY'
p265
S"<class 'gluon.html.BODY'>"
p266
sS'IS_DATE_IN_RANGE'
p267
S"<class 'gluon.validators.IS_DATE_IN_RANGE'>"
p268
sS'TH'
p269
S"<class 'gluon.html.TH'>"
p270
sS'URL'
p271
S'<function _URL at 0xa53502c>'
p272
sS'db'
p273
S"<DAL {'auth_permission': <Table {'ALL': <gluon.d..._name': <gluon.dal.Field object at 0xa63cf8c>}>}>"
p274
sS'auth'
p275
S'<gluon.tools.Auth object at 0xa54e52c>'
p276
sS'P'
S"<class 'gluon.html.P'>"
p277
sS'TFOOT'
p278
S"<class 'gluon.html.TFOOT'>"
p279
sS'XHTML'
p280
S"<class 'gluon.html.XHTML'>"
p281
sS'datetime'
p282
S"<module 'datetime' from '/usr/local/lib/python2.5/lib-dynload/datetime.so'>"
p283
sS'ON'
p284
g146
sS'OL'
p285
S"<class 'gluon.html.OL'>"
p286
sS'TEXTAREA'
p287
S"<class 'gluon.html.TEXTAREA'>"
p288
sS'Struct'
p289
S'<class __builtin__.Struct at 0xa5a9ddc>'
p290
sS'MENU'
p291
S"<class 'gluon.html.MENU'>"
p292
sS'item'
p293
S"{u'created_at': u'Wed, 12 Jan 2011 16:20:27 +0000', u'from_user': u'FlexOnDaDevil', u'from_user_id': 161093365, u'from_user_id_str': u'161093365', u'geo': None, u'id': 25225603040944128L, u'id_str': u'25225603040944128', u'iso_language_code': u'en', u'metadata': {u'result_type': u'recent'}, u'profile_image_url': u'http://a1.twimg.com/profile_images/1200811907/1293545330732_normal.jpg', ...}"
p294
sS'a_convert'
p295
S'<__builtin__.aConvert instance at 0xa61c66c>'
p296
sS'EM'
p297
S"<class 'gluon.html.EM'>"
p298
sS'CODE'
p299
S"<class 'gluon.html.CODE'>"
p300
sS'HTTP'
p301
S"<class 'gluon.http.HTTP'>"
p302
sS'url_finders'
p303
S'[<_sre.SRE_Pattern object at 0xa664460>, <_sre.SRE_Pattern object at 0xa664b88>, <_sre.SRE_Pattern object at 0xa48cef8>, <_sre.SRE_Pattern object at 0xa5a7200>]'
p304
sS'log_wrapped'
p305
S'<function log_wrapped at 0xa611924>'
p306
sS'HR'
p307
S"<class 'gluon.html.HR'>"
p308
sS'comment_labels'
p309
S"{'comment_author': 'Name', 'comment_author_email': 'Email', 'comment_author_website': 'Website', 'comment_text': 'Comment', 'post_id': 'Post ID'}"
p310
sS'IS_DATETIME'
p311
S"<class 'gluon.validators.IS_DATETIME'>"
p312
sS'HEAD'
p313
S"<class 'gluon.html.HEAD'>"
p314
sS'LABEL'
p315
S"<class 'gluon.html.LABEL'>"
p316
sS'cat_labels'
p317
S"{'category_name': 'Name'}"
p318
sS'META'
p319
S"<class 'gluon.html.META'>"
p320
sS'print_wrapped'
p321
S'<function print_wrapped at 0xa6118ec>'
p322
sS'SELECT'
p323
S"<class 'gluon.html.SELECT'>"
p324
sS'CENTER'
p325
S"<class 'gluon.html.CENTER'>"
p326
sS'prettydate'
p327
S'<function prettydate at 0xa611064>'
p328
sS'Crud'
p329
S"<class 'gluon.tools.Crud'>"
p330
sS'Auth'
p331
S"<class 'gluon.tools.Auth'>"
p332
sS'IS_EQUAL_TO'
p333
S"<class 'gluon.validators.IS_EQUAL_TO'>"
p334
sS'IS_LIST_OF'
p335
S"<class 'gluon.validators.IS_LIST_OF'>"
p336
sS'SQLFORM'
p337
S"<class 'gluon.sqlhtml.SQLFORM'>"
p338
sS'file_labels'
p339
S"{'file': 'File', 'filename': 'Enter file name'}"
p340
sS'LOAD'
p341
S'<gluon.compileapp.LoadFactory object at 0xa532bcc>'
p342
sS'redirect'
p343
S'<function redirect at 0x9b125c>'
p344
sS'FIELDSET'
p345
S"<class 'gluon.html.FIELDSET'>"
p346
sS'__builtins__'
p347
S"{'ArithmeticError': <type 'exceptions.ArithmeticError'>, 'AssertionError': <type 'exceptions.AssertionError'>, 'AttributeError': <type 'exceptions.AttributeError'>, 'BaseException': <type 'exceptions.BaseException'>, 'DeprecationWarning': <type 'exceptions.DeprecationWarning'>, 'EOFError': <type 'exceptions.EOFError'>, 'Ellipsis': Ellipsis, 'EnvironmentError': <type 'exceptions.EnvironmentError'>, 'Exception': <type 'exceptions.Exception'>, 'False': False, ...}"
p348
sS'embed64'
p349
S'<function embed64 at 0x57aaac>'
p350
sS'INPUT'
p351
S"<class 'gluon.html.INPUT'>"
p352
sS'EMBED'
p353
S"<class 'gluon.html.EMBED'>"
p354
sS'IS_IMAGE'
p355
S"<class 'gluon.validators.IS_IMAGE'>"
p356
sS'H2'
p357
S"<class 'gluon.html.H2'>"
p358
sS'H3'
p359
S"<class 'gluon.html.H3'>"
p360
sS'H1'
p361
S"<class 'gluon.html.H1'>"
p362
sS'H6'
p363
S"<class 'gluon.html.H6'>"
p364
sS'H4'
p365
S"<class 'gluon.html.H4'>"
p366
sS'H5'
p367
S"<class 'gluon.html.H5'>"
p368
sS'UL'
p369
S"<class 'gluon.html.UL'>"
p370
sS'IS_UPPER'
p371
S"<class 'gluon.validators.IS_UPPER'>"
p372
sS'xmlescape'
p373
S'<function xmlescape at 0x57a4c4>'
p374
sS'IS_TIME'
p375
S"<class 'gluon.validators.IS_TIME'>"
p376
sg187
S"''"
p377
sS'OPTION'
p378
S"<class 'gluon.html.OPTION'>"
p379
sS'TITLE'
p380
S"<class 'gluon.html.TITLE'>"
p381
sS'CRYPT'
p382
S"<class 'gluon.validators.CRYPT'>"
p383
sS'administrators_emails'
p384
S"['molhokwai@gmail.com']"
p385
sS'IS_EMPTY_OR'
p386
S"<class 'gluon.validators.IS_EMPTY_OR'>"
p387
sS'MARKMIN'
p388
S"<class 'gluon.html.MARKMIN'>"
p389
sS'current_language'
p390
S"'en-en'"
p391
sS'this_app'
p392
S"'a'"
p393
sS'AppDetails'
p394
S'<class __builtin__.AppDetails at 0xa5347dc>'
p395
sS'nake'
p396
g73
sS'service'
p397
S'<gluon.tools.Service object at 0xa60f8ac>'
p398
sS'area'
p399
S"'twitter'"
p400
sS'geocode'
p401
S'<function geocode at 0xa610a3c>'
p402
sS'TABLE'
p403
S"<class 'gluon.html.TABLE'>"
p404
sS'IS_IPV4'
p405
S"<class 'gluon.validators.IS_IPV4'>"
p406
sS'IS_LENGTH'
p407
S"<class 'gluon.validators.IS_LENGTH'>"
p408
sS'XML'
p409
S"<class 'gluon.html.XML'>"
p410
sS'B'
S"<class 'gluon.html.B'>"
p411
sS'IMG'
p412
S"<class 'gluon.html.IMG'>"
p413
sS'SQLTABLE'
p414
S"<class 'gluon.sqlhtml.SQLTABLE'>"
p415
sS'IS_MATCH'
p416
S"<class 'gluon.validators.IS_MATCH'>"
p417
sS'IS_ALPHANUMERIC'
p418
S"<class 'gluon.validators.IS_ALPHANUMERIC'>"
p419
sS'SPAN'
p420
S"<class 'gluon.html.SPAN'>"
p421
sS'IS_SLUG'
p422
S"<class 'gluon.validators.IS_SLUG'>"
p423
sS'CLEANUP'
p424
S"<class 'gluon.validators.CLEANUP'>"
p425
sS'items'
p426
S"[{u'created_at': u'Wed, 12 Jan 2011 16:20:27 +0000', u'from_user': u'FlexOnDaDevil', u'from_user_id': 161093365, u'from_user_id_str': u'161093365', u'geo': None, u'id': 25225603040944128L, u'id_str': u'25225603040944128', u'iso_language_code': u'en', u'metadata': {u'result_type': u'recent'}, u'profile_image_url': u'http://a1.twimg.com/profile_images/1200811907/1293545330732_normal.jpg', ...}, {u'created_at': u'Wed, 12 Jan 2011 16:20:24 +0000', u'from_user': u'tigorpasaribu', u'from_user_id': 147582330, u'from_user_id_str': u'147582330', u'geo': None, u'id': 25225593595363329L, u'id_str': u'25225593595363329', u'iso_language_code': u'en', u'metadata': {u'result_type': u'recent'}, u'profile_image_url': u'http://a2.twimg.com/profile_images/1143647280/193302908_normal.jpg', ...}, {u'created_at': u'Wed, 12 Jan 2011 16:20:24 +0000', u'from_user': u'fortyoneacres', u'from_user_id': 4089, u'from_user_id_str': u'4089', u'geo': None, u'id': 25225592496455680L, u'id_str': u'25225592496455680', u'iso_language_code': u'en', u'metadata': {u'result_type': u'recent'}, u'profile_image_url': u'http://a1.twimg.com/profile_images/1207568194/DSCN0063_normal.JPG', ...}, {u'created_at': u'Wed, 12 Jan 2011 16:20:24 +0000', u'from_user': u'rizkyhafizan', u'from_user_id': 87088173, u'from_user_id_str': u'87088173', u'geo': None, u'id': 25225591368187904L, u'id_str': u'25225591368187904', u'iso_language_code': u'id', u'metadata': {u'result_type': u'recent'}, u'profile_image_url': u'http://a3.twimg.com/profile_images/1210279522/P1070013_normal.jpg', ...}, {u'created_at': u'Wed, 12 Jan 2011 16:20:23 +0000', u'from_user': u'iPutYouOn', u'from_user_id': 7066964, u'from_user_id_str': u'7066964', u'geo': None, u'id': 25225586448269313L, u'id_str': u'25225586448269313', u'iso_language_code': u'en', u'metadata': {u'result_type': u'recent'}, u'profile_image_url': u'http://a0.twimg.com/profile_images/1209610057/founder_lqh9_normal.jpg', ...}, {u'created_at': u'Wed, 12 Jan 2011 16:20:20 +0000', u'from_user': u'DaniWaldanI', u'from_user_id': 167803387, u'from_user_id_str': u'167803387', u'geo': None, u'id': 25225575668912128L, u'id_str': u'25225575668912128', u'iso_language_code': u'id', u'metadata': {u'result_type': u'recent'}, u'profile_image_url': u'http://a2.twimg.com/profile_images/1202285734/timnas_1_normal.jpg', ...}, {u'created_at': u'Wed, 12 Jan 2011 16:20:19 +0000', u'from_user': u'marcelordejesus', u'from_user_id': 103135110, u'from_user_id_str': u'103135110', u'geo': None, u'id': 25225570631557120L, u'id_str': u'25225570631557120', u'iso_language_code': u'pt', u'metadata': {u'result_type': u'recent'}, u'profile_image_url': u'http://a0.twimg.com/profile_images/683993181/DSC02726_normal.JPG', ...}, {u'created_at': u'Wed, 12 Jan 2011 16:20:18 +0000', u'from_user': u'frozenorigami', u'from_user_id': 154135630, u'from_user_id_str': u'154135630', u'geo': None, u'id': 25225565984268289L, u'id_str': u'25225565984268289', u'iso_language_code': u'no', u'metadata': {u'result_type': u'recent'}, u'profile_image_url': u'http://a2.twimg.com/profile_images/1211753283/cutout2_normal.jpg', ...}, {u'created_at': u'Wed, 12 Jan 2011 16:20:17 +0000', u'from_user': u'Ridho151', u'from_user_id': 117935134, u'from_user_id_str': u'117935134', u'geo': None, u'id': 25225564415598593L, u'id_str': u'25225564415598593', u'iso_language_code': u'id', u'metadata': {u'result_type': u'recent'}, u'profile_image_url': u'http://a3.twimg.com/profile_images/1205379405/217064597_normal.jpg', ...}, {u'created_at': u'Wed, 12 Jan 2011 16:20:17 +0000', u'from_user': u'andika14', u'from_user_id': 136629928, u'from_user_id_str': u'136629928', u'geo': None, u'id': 25225563723530242L, u'id_str': u'25225563723530242', u'iso_language_code': u'en', u'metadata': {u'result_type': u'recent'}, u'profile_image_url': u'http://a0.twimg.com/profile_images/1213647480/DSC00462_normal.JPG', ...}, {u'created_at': u'Wed, 12 Jan 2011 16:20:12 +0000', u'from_user': u'romyvasquez', u'from_user_id': 103190544, u'from_user_id_str': u'103190544', u'geo': None, u'id': 25225541367889920L, u'id_str': u'25225541367889920', u'iso_language_code': u'es', u'metadata': {u'result_type': u'recent'}, u'profile_image_url': u'http://a1.twimg.com/profile_images/1205688943/IMG_3866__2__normal.jpg', ...}, {u'created_at': u'Wed, 12 Jan 2011 16:20:09 +0000', u'from_user': u'watshermann', u'from_user_id': 21983286, u'from_user_id_str': u'21983286', u'geo': None, u'id': 25225528063561728L, u'id_str': u'25225528063561728', u'iso_language_code': u'pt', u'metadata': {u'result_type': u'recent'}, u'profile_image_url': u'http://a2.twimg.com/profile_images/1161454862/image_normal.jpg', ...}, {u'created_at': u'Wed, 12 Jan 2011 16:20:07 +0000', u'from_user': u'marshafm', u'from_user_id': 126104193, u'from_user_id_str': u'126104193', u'geo': None, u'id': 25225522451582976L, u'id_str': u'25225522451582976', u'iso_language_code': u'id', u'metadata': {u'result_type': u'recent'}, u'profile_image_url': u'http://a2.twimg.com/profile_images/1213195249/242693513_normal.jpg', ...}, {u'created_at': u'Wed, 12 Jan 2011 16:20:07 +0000', u'from_user': u'drgirni', u'from_user_id': 181947495, u'from_user_id_str': u'181947495', u'geo': {u'coordinates': [-6.0654000000000003, 106.12390000000001], u'type': u'Point'}, u'id': 25225521793073152L, u'id_str': u'25225521793073152', u'iso_language_code': u'es', u'metadata': {u'result_type': u'recent'}, u'place': {u'full_name': u'Kramat Watu, Kota Serang', u'id': u'66512cff855520a7', u'type': u'city'}, ...}, {u'created_at': u'Wed, 12 Jan 2011 16:20:07 +0000', u'from_user': u'jazzashleyhair', u'from_user_id': 114903767, u'from_user_id_str': u'114903767', u'geo': None, u'id': 25225519196807168L, u'id_str': u'25225519196807168', u'iso_language_code': u'eo', u'metadata': {u'result_type': u'recent'}, u'profile_image_url': u'http://a2.twimg.com/profile_images/1213025584/jazzashleyhair_normal.jpg', ...}]"
p427
sS'fetch'
p428
S'<function fetch at 0xa610994>'
p429
sS'IS_DATE'
p430
S"<class 'gluon.validators.IS_DATE'>"
p431
sS'IS_EMAIL'
p432
S"<class 'gluon.validators.IS_EMAIL'>"
p433
sS'IS_NOT_EMPTY'
p434
S"<class 'gluon.validators.IS_NOT_EMPTY'>"
p435
sg47
S"<Storage {'function': 'social', 'body': <cString... 17, 20, 35, 502640), 'post_vars': <Storage {}>}>"
p436
sS'BEAUTIFY'
p437
S"<class 'gluon.html.BEAUTIFY'>"
p438
sS'TBODY'
p439
S"<class 'gluon.html.TBODY'>"
p440
sS'Field'
p441
S"<class 'gluon.dal.Field'>"
p442
sS'Mail'
p443
S"<class 'gluon.tools.Mail'>"
p444
sS'DIV'
p445
S"<class 'gluon.html.DIV'>"
p446
sS'LEGEND'
p447
S"<class 'gluon.html.LEGEND'>"
p448
sS'post_labels'
p449
S"{'post_category': 'Category', 'post_text': 'Post', 'post_text_TCode': 'Translation code (code & language texts must be set in the translation files)', 'post_time': 'Post Date', 'post_title': 'Title', 'post_type': 'Type', 'show_in_menu': 'Show in menu'}"
p450
sS'global_site_url'
p451
S"'http://localhost:8001'"
p452
sS'DAL'
p453
S"<class 'gluon.dal.DAL'>"
p454
sS'TT'
p455
S"<class 'gluon.html.TT'>"
p456
sS'TR'
p457
S"<class 'gluon.html.TR'>"
p458
sS'this_app_url'
p459
S"'http://localhost:8001/a'"
p460
sS'LI'
p461
S"<class 'gluon.html.LI'>"
p462
sS'IFRAME'
p463
S"<class 'gluon.html.IFRAME'>"
p464
sS'SCRIPT'
p465
S"<class 'gluon.html.SCRIPT'>"
p466
sS'TD'
p467
S"<class 'gluon.html.TD'>"
p468
sS'PluginManager'
p469
S"<class 'gluon.tools.PluginManager'>"
p470
sS'IS_URL'
p471
S"<class 'gluon.validators.IS_URL'>"
p472
sS'A'
S"<class 'gluon.html.A'>"
p473
sS'STYLE'
p474
S"<class 'gluon.html.STYLE'>"
p475
sS'rel_url_and_end_tags_finders'
p476
S'[<_sre.SRE_Pattern object at 0xa504c80>]'
p477
sS'IS_DATETIME_IN_RANGE'
p478
S"<class 'gluon.validators.IS_DATETIME_IN_RANGE'>"
p479
sS'HTML'
p480
S"<class 'gluon.html.HTML'>"
p481
sS'FORM'
p482
S"<class 'gluon.html.FORM'>"
p483
sS'I'
S"<class 'gluon.html.I'>"
p484
sS'crud'
p485
S'<gluon.tools.Crud object at 0xa60f84c>'
p486
sS'IS_NOT_IN_DB'
p487
S"<class 'gluon.validators.IS_NOT_IN_DB'>"
p488
sS'aConvert'
p489
S'<class __builtin__.aConvert at 0xa5a9e0c>'
p490
sS'app_config'
p491
S'<Row {\'APP_METAS\': ["molhokwai.net - \'a\' cm/dms"...elete_record\': <function <lambda> at 0xa535c6c>}>'
p492
sg160
S"<Storage {'body': <cStringIO.StringO object at 0...bda> at 0xa51af0c>, 'view': 'media/social.html'}>"
p493
sS'THEAD'
p494
S"<class 'gluon.html.THEAD'>"
p495
sS'IS_NULL_OR'
p496
S"<class 'gluon.validators.IS_EMPTY_OR'>"
p497
sS'IS_FLOAT_IN_RANGE'
p498
S"<class 'gluon.validators.IS_FLOAT_IN_RANGE'>"
p499
sS'IS_EXPR'
p500
S"<class 'gluon.validators.IS_EXPR'>"
p501
sS'T'
S'<gluon.languages.translator object at 0xa532c2c>'
p502
sS'RPXAccount'
p503
S"<class 'gluon.contrib.login_methods.rpx_account.RPXAccount'>"
p504
sS'IS_IN_SET'
p505
S"<class 'gluon.validators.IS_IN_SET'>"
p506
sS'IS_UPLOAD_FILENAME'
p507
S"<class 'gluon.validators.IS_UPLOAD_FILENAME'>"
p508
sS're'
p509
S"<module 're' from '/usr/local/lib/python2.5/re.pyc'>"
p510
sS'IS_DECIMAL_IN_RANGE'
p511
S"<class 'gluon.validators.IS_DECIMAL_IN_RANGE'>"
p512
sssS'traceback'
p513
S'Traceback (most recent call last):\n  File "/home/herve/development/workspaces/molhokwai.net/web/gluon/restricted.py", line 188, in restricted\n    exec ccode in environment\n  File "/home/herve/development/workspaces/molhokwai.net/web/applications/a/views/media/social.html", line 98, in <module>\nAttributeError: \'dict\' object has no attribute \'replace\'\n'
p514
s.