(dp1
S'output'
p2
S''
sS'layer'
p3
S'/home/herve/development/workspaces/molhokwai.net/web/applications/a/views/default/files.html'
p4
sS'code'
p5
S'response.write(\'<!DOCTYPE html PUBLIC "-//W3C//DTD XHTML 1.0 Transitional//EN" "http://www.w3.org/TR/xhtml1/DTD/xhtml1-transitional.dtd">\\n<html xmlns="http://www.w3.org/1999/xhtml" xml:lang="\', escape=False)\nresponse.write(T.accepted_language or \'en\')\nresponse.write(\'">\\n    <head>\\n    <title>\', escape=False)\nresponse.write(response.title or request.application)\nresponse.write(\'</title>\\n    <meta http-equiv="Content-Type" content="text/html; charset=UTF-8" />\\n    <meta name="keywords" content="\', escape=False)\nresponse.write(response.keywords)\nresponse.write(\'" />\\n    <meta name="description" content="\', escape=False)\nresponse.write(response.description)\nresponse.write(\'" />\\n    <meta name="google-site-verification" content="2TmmFn8eNL7GNZuDtORTZ89uxj5fmTtuwqQLqv8webc" /><!-- old: r0Pfq2q9SK7Pk9gkh1NnbsV28-mQoD8LoIGOeUhfer8 -->\\n    <!-- include required CSS files, further most first -->\\n    <!-- include requires CSS files\\n    \', escape=False)\nresponse.files.append(URL(request.application,\'static\',\'jquery-ui-1.8.2.custom/jquery-ui-1.8.2.custom.css\'))\nresponse.write(\'\\n    -->\\n    <link rel="stylesheet" href="/\', escape=False)\nresponse.write(this_app)\nresponse.write(\'/static/css/_base.css" type="text/css" media="screen" />\\n    <link rel="stylesheet" href="http://www.google.com/cse/style/look/minimalist.css" type="text/css" />\\n    <link rel="stylesheet" href="/\', escape=False)\nresponse.write(this_app)\nresponse.write(\'/static/css/themes/\', escape=False)\nresponse.write(response.theme)\nresponse.write(\'/base.css" type="text/css" media="screen" />\\n    \', escape=False)\nif response.child_theme and response.theme_stylesheet:\n    response.write(\'\\n        <link rel="stylesheet" href="\', escape=False)\n    response.write(response.theme_stylesheet)\n    response.write(\'" media="screen" />\\n    \', escape=False)\n    pass\nresponse.write(\'\\n    <link rel="stylesheet" href="/\', escape=False)\nresponse.write(this_app)\nresponse.write(\'/static/css/themes/\', escape=False)\nresponse.write(response.theme)\nresponse.write(\'/style.css" type="text/css" media="screen" />\\n    <link rel="stylesheet" href="/\', escape=False)\nresponse.write(this_app)\nresponse.write(\'/static/components/markitup/style.css" type="text/css" media="screen" />\\n    <link rel="stylesheet" href="/\', escape=False)\nresponse.write(this_app)\nresponse.write(\'/static/components/markitup/sets/default/style.css" type="text/css" media="screen" />\\n    <!-- include requires CSS files\\n    \', escape=False)\n## TODO: why is this not working?\nresponse.files.append(URL(request.application,\'static\',\'style.css\'))\nresponse.write(\'\\n    -->\\n    \', escape=False)\nresponse.write(\'<script type="text/javascript">\\n<!--\\n/*\\nWritten by Massimo Di Pierro.\\n\\nThis is a minimalistic AJAX for web2py, for more sophisticated stuff\\nyou should use Scriptacolous or some other AJAX toolkit. Anyway...\\n\\nTo use web2py_ajax.html just make sure you include \\\'web2py_ajax.html\\\'\\nin your layout.html. This provides four functions:\\n\\npopup(url)\\ncollapse(id)\\nfade(id,value) // try value= +0.1 or -0.1\\najax(url,sources,taget) \\n// will send sources[i].value to url and dispaly result in target\\n*/\\n\\nfunction popup(url) {\\n  newwindow=window.open(url,\\\'name\\\',\\\'height=400,width=600\\\');\\n  if (window.focus) {newwindow.focus()}\\n  return false;\\n}\\n\\nfunction collapse(id) {\\n   if(this.document.getElementById(id).style.display=="none")\\n   (this.document.getElementById(id).style.display="block") ;\\n   else (this.document.getElementById(id).style.display="none") ;\\n}\\n\\nfunction fade(id,value) {\\n  var object=document.getElementById(id);\\n  if(value<0 && !object.style.opacity) {\\n     this.document.getElementById(id).style.display="block";\\n     object.style.opacity=1;\\n  }\\n  if(value>0 && object.style.opacity>=1) object.style.opacity=1;\\n  else if(value<0 && object.style.opacity<=0) {\\n     this.document.getElementById(id).style.display="none";\\n     object.style.opacity=0;\\n  }\\n  else {\\n     this.document.getElementById(id).style.display="block";\\n     object.style.opacity-=-value;\\n     setTimeout(function(){fade(id,value);},100);\\n     return false;\\n  }\\n  return true;\\n}\\n\\nfunction ajax(url,sources,target) {\\n  var req = null; \\n  var ctarget=document.getElementById(target);\\n  window.status="connecting...";\\n  if(window.XMLHttpRequest)\\n     req = new XMLHttpRequest(); \\n  else if (window.ActiveXObject)\\n     req  = new ActiveXObject("Microsoft.XMLHTTP");\\n  req.onreadystatechange = function() {\\n     window.status="waiting...";\\n     if(req.readyState == 4)\\n       if(req.status == 200) {\\n          window.status=\\\'Ajax Done!\\\'\\n          try { \\n             ctarget.innerHTML=req.responseText; \\n             try {ctarget.scrollTop=ctarget.scrollHeight-ctarget.clientHeight;}\\n             catch(err) {}\\n          } catch(err) { ctarget.value=req.responseText; }\\n       } else alert("AJAX Error: " + req.status);\\n  }\\n  var query=""\\n  for(i=0; i<sources.length; i++) {\\n     if(i>0) query=query+"&";\\n     query=query+encodeURIComponent(sources[i])+"="+encodeURIComponent(document.getElementById(sources[i]).value);\\n  }\\n  req.open("POST",url,true); \\n  req.setRequestHeader("Content-Type", "application/x-www-form-urlencoded"); \\n  req.send(query); \\n} \\n//-->\\n</script>\', escape=False)\nresponse.write(\'\\n    <script type="text/javascript">\\n      <!-- /* this adds sfhover class to menu li items to make IE6 work */ jQuery(document).ready(function(){jQuery(\\\'li.web2py-menu-expand\\\').hover(function ()     {jQuery(this).addClass(\\\'sfhover\\\');},function () {jQuery(this).removeClass(\\\'sfhover\\\');});});//-->\\n    </script>\\n    <script type="text/javascript">\\n      var server={\\n          request : {\\n              application : \\\'\', escape=False)\nresponse.write(this_app)\nresponse.write(\'\\\'\\n          },\\n          pages : []\\n      };\\n    </script>\\n    <script type="text/javascript" src="/\', escape=False)\nresponse.write(this_app)\nresponse.write(\'/static/components/net.molhokwai/molhokwai.common.js"></script>\\n    <script type="text/javascript" src="/\', escape=False)\nresponse.write(this_app)\nresponse.write(\'/static/components/jquery/jquery-1.4.2.min.js"></script>\\n    <script type="text/javascript" src="/\', escape=False)\nresponse.write(this_app)\nresponse.write(\'/static/components/markitup/jquery.markitup.js"></script>\\n    <script type="text/javascript" src="/\', escape=False)\nresponse.write(this_app)\nresponse.write(\'/static/custom/script.js"></script>\\n    <script src="http://www.google.com/jsapi?key=ABQIAAAAhDaHyndn3TRHW8aVVgNfsBTPFwiohxerrbIfi_L7lDZ1YENwhRROxgxsy_RTT4IRmc8SWIpWu3KrsQ" type="text/javascript"></script>\\n    <script type="text/javascript" src="/\', escape=False)\nresponse.write(this_app)\nresponse.write(\'/static/components/google/search_init.js"></script>\\n    <script type="text/javascript" src="/\', escape=False)\nresponse.write(this_app)\nresponse.write(\'/static/components/jquery/add-ons.js"></script>\\n    <script type="text/javascript">\\n        $(document).ready(function(){\\n            $(\\\'#google_translate_element\\\').hide();\\n            $(\\\'#cse-search-form\\\').hide();\\n            $(\\\'#cli_web\\\').hide(\\\'slow\\\');\\n        });\\n        \\n        var huTi=null;\\n        var toggleUtilities=function(a){\\n            var selectors={\\n                \\\'#google_translate_element\\\' : \\\'.goog-te-combo\\\',\\n                \\\'#cse-search-form\\\' : \\\'.gsc-input\\\',\\n                \\\'#cli_web\\\' : \\\'#_cmd\\\'\\n            };\\n            \\n            for(k in selectors){\\n                if(a.href.indexOf(k)>=0 && !$(k).is(\\\':visible\\\')){\\n                    $(k).show();\\n                    huTi = setTimeout(\\\'$("\\\'+selectors[k]+\\\'").focus();clearTiemout(huTi);\\\', 200);\\n                }\\n                else{\\n                    $(k).hide();\\n                }\\n            }\\n            $("html").animate({ scrollTop: 0 });\\n        };\\n    </script>    \\n    </head>\\n    <body>\\n        <div id="top-bar">\\n            <a href="#google_translate_element" onclick="toggleUtilities(this);" class="float-left">\', escape=False)\nresponse.write(T(\'translation\'))\nresponse.write(\' | </a>\\n            <a href="#cse-search-form" onclick="toggleUtilities(this);" class="float-left"> \', escape=False)\nresponse.write(T(\'search (google)\'))\nresponse.write(\' | </a>\\n            <a href="#cli_web" onclick="toggleUtilities(this);" class="float-left"> <em>\', escape=False)\nresponse.write(T(\'command line\'))\nresponse.write(\' | </em></a>\\n            \\n            <span id="user-menu">\\n             \', escape=False)\nif \'auth\' in globals():\n    response.write(\'\\n               \', escape=False)\n    if not auth.user:\n        response.write(\' \\n                 <a>]</a> \', escape=False)\n        response.write(A(T(\'login\'),_href=URL(r=request,c=\'default\',f=\'user/login\')))\n        response.write(\' <a>[</a>\\n               \', escape=False)\n    else:\n        response.write(\'\\n                 \', escape=False)\n        response.write(auth.user.display_name)\n        response.write(\' \\n                 \', escape=False)\n        response.write(A(T(\'logout\'),_href=URL(r=request,c=\'default\',f=\'user/logout\')))\n        response.write(\' |\\n               \', escape=False)\n        pass\n    response.write(\'\\n             \', escape=False)\n    pass\nresponse.write(\'\\n            </span> \\n            <!-- end #user-menu -->\\n            \\n            <div class="clear"></div>\\n                    \\n            <div id="utilities" class="padt2pc">\\n            \\n              <div id="google_translate_element"></div>\\n              <script>\\n                function googleTranslateElementInit() {\\n                  new google.translate.TranslateElement({\\n                    pageLanguage: \\\'\', escape=False)\nresponse.write(current_language[:2])\nresponse.write(\'\\\'\\n                  }, \\\'google_translate_element\\\');\\n                }\\n              </script><script src="http://translate.google.com/translate_a/element.js?cb=googleTranslateElementInit"></script>     \\n              <!-- end #google_translate_element-->    \\n            \\n              <div class="clear"></div>\\n              \\n              <div id="cli_web">\\n                <form action="/lcs/cli_web/_do" method="post" onsubmit="return on_cli_web_submit();">\\n                    <input type="text" id="_cmd" name="_cmd" />\\n                    \', escape=False)\nif session.cli_web_flash:\n    response.write(\'<font class="flash small">\', escape=False)\n    response.write(XML(session.cli_web_flash))\n    session.cli_web_flash=False\n    response.write(\'</font>\', escape=False)\n    pass\nresponse.write(\'\\n                </form>\\n              </div>\\n              <!-- end #cli_web -->\\n            \\n              <div id="cse-search-form">Loading</div>\\n              <script src="http://www.google.com/jsapi" type="text/javascript"></script>\\n              <script type="text/javascript">\\n                google.load(\\\'search\\\', \\\'1\\\', {language : \\\'\', escape=False)\nresponse.write(current_language[:2])\nresponse.write(\'\\\'});\\n                google.setOnLoadCallback(function() {\\n                  var customSearchControl = new google.search.CustomSearchControl(\\\'014007428035866690530:qpoerqfcidu\\\');\\n                  customSearchControl.setResultSetSize(google.search.Search.FILTERED_CSE_RESULTSET);\\n                  var options = new google.search.DrawOptions();\\n                  options.setSearchFormRoot(\\\'cse-search-form\\\');\\n              \\n                  options.setAutoComplete(true);\\n                  customSearchControl.draw(\\\'cse\\\', options);\\n                }, true);\\n              </script>\\n              <!-- end #cse-search-form -->\\n            \\n            </div>\\n            <!-- end #utilities -->\\n            \\n        </div>\\n        <!-- end #top-bar-->\\n        \\n        <div class="clear"></div>\\n            \\n        <div id="wrapper" class="width60pc">\\n            \\n            <div id="header" class="padtb1pc">\\n                <h1 class="font-s2em padl2pc left">Paradigm Shift</h1>\\n                <h2 class="font-s095em padl2pc left margt1pc"> | </h2>\\n                <h2 class="font-s095em padl2pc left margt1-2pc">Individual Freedom. Collective Responsibility.</h2>\\n    \\n                <div class="clear"></div>\\n            </div>\\n    \\n            <!-- #menu-tabs deactivated. See cms theme for eventual reactivation -->\\n            <!--div id="menu-tabs"></div -->\\n            <!--div class="clear"></div -->\\n            <!-- end #menu-tabs -->\\n    \\n            <div id="body" class="height50em">\\n                \\n                <div class="left width70pc padl2pc">\\n                    <blockquote class="width60pc margt5pc">\\n                        " Words are precious. Use each one of them wisely "\\n                    </blockquote>\\n\\n                    \', escape=False)\nif response.flash:\n    response.write(\'\\n                        <div id="flash">\', escape=False)\n    response.write(XML(response.flash))\n    response.write(\'</div>\\n                    \', escape=False)\n    pass\nresponse.write(\'\\n                            \\n                    <div id="content" class="margt10pc">\\n                        \', escape=False)\nresponse.write(\'\\n\\n<!-- original code from http://www.google.be/search?sourceid=chrome&ie=UTF-8&q=host2py -->\\n<h1>- \', escape=False)\nresponse.write(T(\'Files\'))\nresponse.write(\'</h1>\\n<table width=100%>\\n    <tr><th>\', escape=False)\nresponse.write(T(\'file\'))\nresponse.write(\'</th><th>\', escape=False)\nresponse.write(T(\'action\'))\nresponse.write(\'</th></tr>\\n\', escape=False)\nfor file in files:\n    response.write(\'\\n   <tr>\\n    <td><a href="\', escape=False)\n    response.write(URL(r=request,c=\'default\',f=\'file\',args=[file.filename]))\n    response.write(\'">\', escape=False)\n    response.write(file.filename)\n    response.write(\'</a></td>\\n    <td><a href="javascript:;" onclick="location.href=\\\'?ren=\', escape=False)\n    response.write(file.id)\n    response.write("&new=\'+prompt(\'", escape=False)\n    response.write(T(\'New Filename\'\'))\n    response.write(\')">\', escape=False)\n    response.write(T(\'rename\'))\n    response.write(\'</a> | <a href="?del=\', escape=False)\n    response.write(file.id)\n    response.write(\'">\', escape=False)\n    response.write(T(\'delete\'))\n    response.write(\'</a></td>\\n   </tr>\\n\', escape=False)\n    pass\nresponse.write(\'\\n</table>\\n\', escape=False)\nresponse.write(\'\\n                    </div>\\n                    <!-- end #body #content -->\\n\\n                </div>\\n                <!-- end #body .left -->\\n                \\n                <div class="left height49em margt1pc">\\n                    &nbsp;\\n                </div>\\n                <!-- end #body .left+.left -->\\n                \\n                <div id="sidebar" class="right width25pc text-alignr">\\n                    <!-- #sidebar menu & content deactivated. See cms theme foreventual reactivation -->\\n                    \', escape=False)\nresponse.write(\'<script type="text/javascript" src="/a/static/components/jquery/jquery.media.js"></script>\\n<script type="text/javascript">\\n    $(document).ready(function(){\\n        $.fn.media.defaults.attrs = { \\\'class\\\' : \\\'media\\\', \\\'bgColor\\\' : \\\'#000000\\\' };\\n        $(\\\'.media\\\').media();\\n    });\\n    \\n    var onChatClick = function(el){\\n        var p_m_u = [\\\'+\\\',\\\'-\\\', \\\'http://talkgadget.google.com/talkgadget/popout\\\'];\\n        if ($(el).html().indexOf(\\\'(-)\\\')>0){\\n            p_m_u = [\\\'-\\\',\\\'+\\\', \\\'\\\'];\\n        }\\n        $(\\\'iframe[name="iframe-chat"]\\\').animate({\\n            height: p_m_u[0]+\\\'=10em\\\',\\n          }, 1500, function(){\\n              for(var i=0;i<p_m_u.length;i++){\\n                  if (p_m_u[i] == \\\'+\\\'){\\n                      $(el).html($(el).html().replace(\\\'(\\\'+p_m_u[0]+\\\')\\\',\\\'(\\\'+p_m_u[1]+\\\')\\\'));\\n                  }\\n                  else if (p_m_u[i] == \\\'-\\\'){\\n                      $(\\\'iframe[name="iframe-chat"]\\\')[0].src = p_m_u[2];\\n                  }\\n              }\\n              $("html").animate({ scrollTop: $(document).height() }, "slow");\\n          });\\n    }\\n</script>\\n\\n<div class="media-box width80pc">\\n    <a class="media" href="/a/default/file/a.mp4">Mayou Nkensa Herv\\xc3\\xa9, Tuesday the 1st of May, around 08:57&#39;07&#39;&#39;</a>\\n    \\n    <h1>Professional - Profile, CV -</h1>\\n    <a target="_blank" href="https://docs.google.com/viewer?a=v&pid=explorer&chrome=true&srcid=0B39Sj9mqtvSyNmQyNDYwOWMtNWE2MC00N2M3LWFiMjQtMGE4NjE1ZmQyODNl">Light</a> | \\n    <a target="_blank" href="https://docs.google.com/viewer?a=v&pid=explorer&chrome=true&srcid=0B39Sj9mqtvSyMmRjZGZhNWQtODRmOC00MTE5LWExZDktYjA2MWU1NjhhZDY2" target="_blank">Extended</a>\\n    \\n    <h1>Current Projects -</h1>\\n    <div class="text-alignl">\\n        <a target="_blank" href="https://github.com/molhokwai/a">\\\'a\\\' cms/dms</a> | \\n        <a target="_blank" href="https://github.com/molhokwai/web-x0">web-x0 development</a> | \\n        <a target="_blank" href="https://github.com/molhokwai/ai">ai learning (nn, ga)</a> | \\n        <a target="_blank" href="https://github.com/molhokwai/jQuery.gaussianTextFx">jQuery.gaussianTextFx</a>\\n    </div>\\n    \\n    <h1>Book(s) -</h1>\\n    <div class="text-alignl">\\n        <a target="_blank" href="http://www.edifree.fr/doc/4311">Aux Oeuvreurs (French)</a>\\n    </div>\\n    \\n    <h1>Contact -</h1>\\n    <div class="text-alignl">\\n        <a href="callto:+3248937151">+32 489 33 71 51</a> | \\n        <a href="mailto:herve.mayou@gmail.com">herve.mayou@gmail.com</a> | \\n        <br/><a onclick="onChatClick(this)" href="#iframe-chat">voice, chat: herve.mayou (+)</a>\\n        <br/>\\n        <iframe name="iframe-chat"></iframe>\\n    </div>\\n    </object -->\\n</div>\\n\', escape=False)\nresponse.write(\'                \\n                </div>\\n                <!-- end #sidebar -->\\n                \\n            </div>\\n            <!-- end #body -->\\n    \\n            <div class="clear"></div>\\n            \\n            <div id="footer" class="text-alignc font-s06em">\\n                    <p class="width80pc">@molhokwai.net 2011 - HTML/CSS/Javascript/Python - webX.0 | contact: <a href="mailto:admin@molhokwai.net">admin@molhokwai.net</a>\\n                    - on PyPress, a <a target="_blank" href="http://www.web2py.org">web2py<a> powered site\\n                      on <a target="_blank" href="http://code.google.com/appengine">google app engine<a> \\n                  </p>\\n            </div>\\n            <!-- end #footer -->\\n                \\n        </div>\\n        <!-- end #wrapper -->\\n\\n        <script type="text/javascript" id="tracking_src">\\n            var gaJsHost = (("https:" == document.location.protocol) ? "https://ssl." : "http://www.");\\n            document.write(unescape("%3Cscript src=\\\'" + gaJsHost + "google-analytics.com/ga.js\\\' type=\\\'text/javascript\\\'%3E%3C/script%3E"));\\n        </script>\\n        <script type="text/javascript" id="tracking_process">\\n            try {\\n                var pageTracker = _gat._getTracker("UA-5101967-1");\\n                pageTracker._initData();\\n                pageTracker._trackPageview();\\n            }\\n            catch(e) {\\n                if (console) try{console.log(e);}catch(e){}\\n            }\\n        </script>\\n        <!-- end #tracking -->\\n            \\n        </body>\\n</html>\\n\', escape=False)'
p6
sS'snapshot'
p7
(dp8
S'exception'
p9
(dp10
S'__getslice__'
p11
S"<method-wrapper '__getslice__' of exceptions.SyntaxError object at 0x93e0a3c>"
p12
sS'text'
p13
S'"    response.write(T(\'New Filename\'\'))\\n"'
p14
sS'__str__'
p15
S"<method-wrapper '__str__' of exceptions.SyntaxError object at 0x93e0a3c>"
p16
sS'__reduce__'
p17
S'<built-in method __reduce__ of exceptions.SyntaxError object at 0x93e0a3c>'
p18
sS'__dict__'
p19
S'{}'
p20
sS'__init__'
p21
S"<method-wrapper '__init__' of exceptions.SyntaxError object at 0x93e0a3c>"
p22
sS'__setattr__'
p23
S"<method-wrapper '__setattr__' of exceptions.SyntaxError object at 0x93e0a3c>"
p24
sS'__reduce_ex__'
p25
S'<built-in method __reduce_ex__ of exceptions.SyntaxError object at 0x93e0a3c>'
p26
sS'__new__'
p27
S'<built-in method __new__ of type object at 0x8239bc0>'
p28
sS'__class__'
p29
S"<type 'exceptions.SyntaxError'>"
p30
sS'filename'
p31
S"'/home/herve/development/workspaces/molhokwai.net/web/applications/a/views/default/files.html'"
p32
sS'lineno'
p33
S'105'
p34
sS'msg'
p35
S"'EOL while scanning single-quoted string'"
p36
sS'__doc__'
p37
S"'Invalid syntax.'"
p38
sS'__getitem__'
p39
S"<method-wrapper '__getitem__' of exceptions.SyntaxError object at 0x93e0a3c>"
p40
sS'__setstate__'
p41
S'<built-in method __setstate__ of exceptions.SyntaxError object at 0x93e0a3c>'
p42
sS'__getattribute__'
p43
S"<method-wrapper '__getattribute__' of exceptions.SyntaxError object at 0x93e0a3c>"
p44
sS'print_file_and_line'
p45
S'None'
p46
sS'args'
p47
S'(\'EOL while scanning single-quoted string\', (\'/home/herve/development/workspaces/molhokwai.net/web/applications/a/views/default/files.html\', 105, 38, "    response.write(T(\'New Filename\'\'))\\n"))'
p48
sS'offset'
p49
S'38'
p50
sS'__delattr__'
p51
S"<method-wrapper '__delattr__' of exceptions.SyntaxError object at 0x93e0a3c>"
p52
sS'__repr__'
p53
S"<method-wrapper '__repr__' of exceptions.SyntaxError object at 0x93e0a3c>"
p54
sS'__hash__'
p55
S"<method-wrapper '__hash__' of exceptions.SyntaxError object at 0x93e0a3c>"
p56
ssS'evalue'
p57
S'EOL while scanning single-quoted string (files.html, line 105)'
p58
sS'request'
p59
(dp60
S'function'
p61
S"'files'"
p62
sS'body'
p63
S'<cStringIO.StringO object at 0x9b054a0>'
p64
sS'wsgi'
p65
S"<Storage {'start_response': <function <lambda> a...ING': 'gzip,deflate', 'HTTP_KEEP_ALIVE': '115'}}>"
p66
sS'extension'
p67
S"'html'"
p68
sS'vars'
p69
S'<Storage {}>'
p70
sS'cid'
p71
S'None'
p72
sS'url'
p73
S'<gluon.html.XML object at 0x9b0564c>'
p74
sS'raw_extension'
p75
S'None'
p76
sg47
S'[]'
p77
sS'controller'
p78
S"'default'"
p79
sS'cookies'
p80
S"<SimpleCookie: blogger_languages='fr' session_id...9852-45da-4d7d-aef8-31d52158e831' theme='ff0000'>"
p81
sS'application'
p82
S"'a'"
p83
sS'ajax'
p84
S'False'
p85
sS'client'
p86
S"'127.0.0.1'"
p87
sS'env'
p88
S"<Storage {'wsgi_multithread': True, 'http_accept...nput': <socket._fileobject object at 0x92184c4>}>"
p89
sS'raw_args'
p90
S'None'
p91
sS'get_vars'
p92
S'<Storage {}>'
p93
sS'folder'
p94
S"'/home/herve/development/workspaces/molhokwai.net/web/applications/a/'"
p95
sS'now'
p96
S'datetime.datetime(2011, 3, 3, 17, 43, 6, 191401)'
p97
sS'post_vars'
p98
S'<Storage {}>'
p99
ssS'frames'
p100
(lp101
(dp102
S'file'
p103
S'/home/herve/development/workspaces/molhokwai.net/web/gluon/restricted.py'
p104
sS'dump'
p105
(dp106
S'code'
p107
S'\'response.write(\\\'<!DOCTYPE html PUBLIC "-//W3C//D...     \\\\n        </body>\\\\n</html>\\\\n\\\', escape=False)\''
p108
sS'layer'
p109
S"'/home/herve/development/workspaces/molhokwai.net/web/applications/a/views/default/files.html'"
p110
sS'global compile2'
p111
S'<function compile2 at 0x8cf3534>'
p112
sS'ccode'
p113
S'undefined'
p114
ssS'lnum'
p115
I186
sS'lines'
p116
(dp117
I181
S''
sI182
S'    try:'
p118
sI183
S'        if type(code) == types.CodeType:'
p119
sI184
S'            ccode = code'
p120
sI185
S'        else:'
p121
sI186
S'            ccode = compile2(code,layer)'
p122
sI187
S''
sI188
S'        exec ccode in environment'
p123
sI189
S'    except HTTP:'
p124
sI190
S'        raise'
p125
ssS'call'
p126
S'(code=\'response.write(\\\'<!DOCTYPE html PUBLIC "-//W3C//D...     \\\\n        </body>\\\\n</html>\\\\n\\\', escape=False)\', environment={\'A\': <class \'gluon.html.A\'>, \'AppDetails\': <class __builtin__.AppDetails at 0x979c02c>, \'Auth\': <class \'gluon.tools.Auth\'>, \'B\': <class \'gluon.html.B\'>, \'BEAUTIFY\': <class \'gluon.html.BEAUTIFY\'>, \'BODY\': <class \'gluon.html.BODY\'>, \'BR\': <class \'gluon.html.BR\'>, \'CENTER\': <class \'gluon.html.CENTER\'>, \'CLEANUP\': <class \'gluon.validators.CLEANUP\'>, \'CODE\': <class \'gluon.html.CODE\'>, ...}, layer=\'/home/herve/development/workspaces/molhokwai.net/web/applications/a/views/default/files.html\')'
p127
sS'func'
p128
S'restricted'
p129
sa(dp130
g103
S'/home/herve/development/workspaces/molhokwai.net/web/gluon/restricted.py'
p131
sg105
(dp132
S'builtincompile'
p133
S'<built-in function compile>'
p134
sS'code'
p135
S'\'response.write(\\\'<!DOCTYPE html PUBLIC "-//W3C//D...     \\\\n        </body>\\\\n</html>\\\\n\\\', escape=False)\''
p136
sS'code.rstrip'
p137
S'<built-in method rstrip of str object at 0x991e758>'
p138
sS').replace'
p139
g114
sS'layer'
p140
S"'/home/herve/development/workspaces/molhokwai.net/web/applications/a/views/default/files.html'"
p141
ssg115
I173
sg116
(dp142
I168
S''
sI169
S'def compile2(code,layer):'
p143
sI170
S'    """'
p144
sI171
S"    The +'\\n' is necessary else compile fails when code ends in a comment."
p145
sI172
S'    """'
p146
sI173
S"    return compile(code.rstrip().replace('\\r\\n','\\n')+'\\n', layer, 'exec')"
p147
sI174
S''
sI175
S"def restricted(code, environment={}, layer='Unknown'):"
p148
sI176
S'    """'
p149
sI177
S'    runs code in environment and returns the output. if an exception occurs'
p150
ssg126
S'(code=\'response.write(\\\'<!DOCTYPE html PUBLIC "-//W3C//D...     \\\\n        </body>\\\\n</html>\\\\n\\\', escape=False)\', layer=\'/home/herve/development/workspaces/molhokwai.net/web/applications/a/views/default/files.html\')'
p151
sg128
S'compile2'
p152
sasS'pyver'
p153
S'Python 2.5.1: /usr/local/bin/python'
p154
sS'session'
p155
(dp156
S'user_authorization_done'
p157
S'True'
p158
sS'flash'
p159
S'None'
p160
sS'auth'
p161
S"<Storage {'expiration': 3600, 'user': <Storage {...11, 3, 3, 17, 43, 6, 191401), 'remember': False}>"
p162
sS'_formkey[files_create]'
p163
S"'f247f0a9-74b8-47b0-8a98-631e5265fe4f'"
p164
sS'authorized'
p165
g158
sS'_language'
p166
S"'en'"
p167
sS'_formkey[default]'
p168
S"'932586ad-2c41-41cc-9e31-6910349f747c'"
p169
ssS'etype'
p170
S"<type 'exceptions.SyntaxError'>"
p171
sS'date'
p172
S'Thu Mar  3 17:43:06 2011'
p173
sS'response'
p174
(dp175
S'_vars'
p176
S"{'files': <gluon.dal.Rows object at 0x92018ac>}"
p177
sg80
S"<SimpleCookie: session_id_a='127.0.0.1-f3d81a67-d65d-4fac-9599-79c42d7adabb'>"
p178
sS'links'
p179
S"[['web2py', 'http://www.web2py.com', 1], ['Python', 'http://www.python.org', 2], ['DePaul CTI', 'http://www.cs.depaul.edu', 3], ['DePaul University', 'http://www.depaul.edu', 5], ['downloads', '/a/default/page/32', 15], ['media / picasa / gallery', '/a/media/picasa/gallery', 16], ['manage media / manage picasa albums / manage photos', '/a/media/picasa/albums', 17], ['setup, application initialization', '/a/setup', 18], ['twitter', '/a/media/social/twitter', 19]]"
p180
sS'posts'
p181
S'<gluon.dal.Rows object at 0x97c296c>'
p182
sS'themes'
p183
S"['0', '1', 'cms', 'pypress', 'test#:#0#:#http://localhost/css/base.css#:#molhokwai@gmail.com', 'test1#:#0#:#http://localhost/css/base1.css#:#herve.mayou@gmail.com']"
p184
sS'theme_stylesheet'
p185
S'None'
p186
sS'meta'
p187
S'<Storage {}>'
p188
sS'_view_environment'
p189
S"{'A': <class 'gluon.html.A'>, 'AppDetails': <class __builtin__.AppDetails at 0x979c02c>, 'Auth': <class 'gluon.tools.Auth'>, 'B': <class 'gluon.html.B'>, 'BEAUTIFY': <class 'gluon.html.BEAUTIFY'>, 'BODY': <class 'gluon.html.BODY'>, 'BR': <class 'gluon.html.BR'>, 'CENTER': <class 'gluon.html.CENTER'>, 'CLEANUP': <class 'gluon.validators.CLEANUP'>, 'CODE': <class 'gluon.html.CODE'>, ...}"
p190
sS'keywords'
p191
S"'blog, weblog, journal, web, log, web2py, pypress...straight-forward, direct, programming, programmer'"
p192
sS'files'
p193
S'[]'
p194
sS'last_posts'
p195
S"[['ff0000_home', datetime.datetime(2011, 3, 3, 13, 36, 32), <gluon.html.XML object at 0x99f278c>], ['ff0000_help', datetime.datetime(2011, 3, 3, 13, 36, 32), <gluon.html.XML object at 0x99f20ec>], ['nn : bayesian classifer', datetime.datetime(2011, 2, 18, 12, 7, 56), <gluon.html.XML object at 0x99f266c>], ['cms_home', datetime.datetime(2011, 2, 6, 13, 1, 36), <gluon.html.XML object at 0x99f234c>], ['cms_help', datetime.datetime(2011, 2, 6, 13, 1, 36), <gluon.html.XML object at 0x99f238c>]]"
p196
sS'title'
p197
S'"molhokwai.net - \'a\' cm/dms"'
p198
sS'home_page'
p199
S"<Row {'post_text_TCode': 'page_id_24', 'post_att...elete_record': <function <lambda> at 0x93e0e64>}>"
p200
sS'menu'
p201
S"[['home', False, '/a/default/page/16']]"
p202
sS'flash'
p203
S"''"
p204
sS'theme'
p205
S"'ff0000'"
p206
sS'session_id_name'
p207
S"'session_id_a'"
p208
sS'_custom_commit'
p209
S'None'
p210
sS'session_filename'
p211
S"'/home/herve/development/workspaces/molhokwai.net...ns/127.0.0.1-f3d81a67-d65d-4fac-9599-79c42d7adabb'"
p212
sg63
S'<cStringIO.StringO object at 0x91f96e0>'
p213
sS'description'
p214
S'"molhokwai.net - \'a\' cm/dms, lightweight, simple, straight & direct"'
p215
sS'session_file'
p216
S"<open file '/home/herve/development/workspaces/m...4fac-9599-79c42d7adabb', mode 'rb+' at 0x9202ec0>"
p217
sS'_caller'
p218
S'<function <lambda> at 0x90235dc>'
p219
sS'_custom_rollback'
p220
S'None'
p221
sS'pages'
p222
S"[['beliefs', False, '/a/default/page/15'], ['home', False, '/a/default/page/16'], ['community', False, '/a/default/page/18'], ['SMS', False, '/a/default/page/21'], ['', False, '/a/default/page/23'], ['a_home', False, '/a/default/page/24'], ['a_help', False, '/a/default/page/26'], ['help', False, '/a/default/page/27'], ['a_home', False, '/a/default/page/29'], ['siblos', False, '/a/default/page/30'], ['dev', False, '/a/default/page/31'], ['downloads', False, '/a/default/page/32'], ['themes', False, '/a/default/page/35'], ['acknowledgements', False, '/a/default/page/37'], ['test', False, '/a/default/page/38']]"
p223
sS'categories'
p224
S"[['misc', 2, '/a/default/category/misc'], ['message', 1, '/a/default/category/message']]"
p225
sS'name'
p226
S'"\'a\' cm/dms"'
p227
sS'auth_users'
p228
S'<gluon.dal.Rows object at 0x97d5c6c>'
p229
sS'help_page'
p230
S"<Row {'post_text_TCode': 'page_id_26', 'post_att...elete_record': <function <lambda> at 0x93e04fc>}>"
p231
sS'session_id'
p232
S"'127.0.0.1-f3d81a67-d65d-4fac-9599-79c42d7adabb'"
p233
sS'headers'
p234
S"<Storage {'Expires': 'Thu, 03 Mar 2011 16:43:06 ...he, must-revalidate, post-check=0, pre-check=0'}>"
p235
sS'status'
p236
S'200'
p237
sS'postprocessing'
p238
S'[]'
p239
sS'base_theme'
p240
S'None'
p241
sS'view'
p242
S"'default/files.html'"
p243
ssS'locals'
p244
(dp245
g3
S"'/home/herve/development/workspaces/molhokwai.net/web/applications/a/views/default/files.html'"
p246
sg5
S'\'response.write(\\\'<!DOCTYPE html PUBLIC "-//W3C//D...     \\\\n        </body>\\\\n</html>\\\\n\\\', escape=False)\''
p247
sssS'traceback'
p248
S'Traceback (most recent call last):\n  File "/home/herve/development/workspaces/molhokwai.net/web/gluon/restricted.py", line 186, in restricted\n    ccode = compile2(code,layer)\n  File "/home/herve/development/workspaces/molhokwai.net/web/gluon/restricted.py", line 173, in compile2\n    return compile(code.rstrip().replace(\'\\r\\n\',\'\\n\')+\'\\n\', layer, \'exec\')\n  File "/home/herve/development/workspaces/molhokwai.net/web/applications/a/views/default/files.html", line 105\n    response.write(T(\'New Filename\'\'))\n                                     ^\nSyntaxError: EOL while scanning single-quoted string\n'
p249
s.