(dp1
S'output'
p2
S''
sS'layer'
p3
S'/home/herve/development/workspaces/molhokwai.net/web/applications/a/controllers/media.py'
p4
sS'code'
p5
S'###################################\n## CONTROLLER INITIALIZATION\n###################################    \nexec(\'from applications.%s.modules import common\' % this_app)\npage_helper, post_helper = common.controller_init(request, response, session, cache, T, db, auth, app_config, app_details)\n\n# media_photos module\nexec(\'from applications.%s.modules import media_photos\' % this_app)\n\n###################################\n## CONTROLLER FUNCTIONS\n###################################    \n\n# The main page\ndef index():\n    redirect(URL(r=request, f=\'picasa\', args=\'gallery\'))\n    return dict(nake=None)\n\n# Picasa\ndef picasa():\n    area = \'gallery\'\n    if len(request.args)>0:\n        area=request.args[0]\n\n    try:\n        picasa_manager = media_photos.Manage(app_config)\n        if auth.user and auth.user.is_admin:\n            if area in [\'upload\', \'albums\', \'add\', \'edit\', \'delete\'] and not session.gdata_user:\n                session.redirect_url=URL(r=request, f=\'picasa\', args=[area])\n                redirect(URL(r=request, f=\'picasa\', args=[\'login\']))\n            else:\n                picasa_manager = media_photos.Manage(app_config, gdata_user=None, session=session)\n        \n            if area == \'login\':\n                form=FORM(INPUT(_type=\'email\', _name=\'email\', value=auth.user.email),\n                            INPUT(_type=\'password\', _name=\'password\'),\n                            INPUT(_type=\'submit\', _value=T(\'submit\'))\n                )\n                if form.accepts(request.vars, session):\n                    try:\n                        gdata_user={\n                            \'email\' : request.vars.email,\n                            \'password\' : request.vars.password\n                        }\n                        # programmatic login encapsulated in construction\n                        media_photos.Manage(app_config, gdata_user=gdata_user)\n                        session.gdata_user=gdata_user\n        \n                        session.flash = T(\'Login successfull\')\n                        if session.redirect_url:\n                            redirect(session.redirect_url)\n                        else:\n                            redirect(URL(r=request, args=[\'albums\']))\n                    except Exception, ex:\n                        log_wrapped(\'Error\', ex)\n                return dict(nake=None, area=area, form=form, item=\'user\')\n                \n            if area in [\'add\', \'edit\', \'delete\', \'upload\']:\n                # item : album || picture\n                item=request.args[1]\n    \n                if item==\'album\':\n                    if area == \'add\':\n        \n                        form=FORM(DIV(INPUT(_type=\'text\', _name=\'title\'), \n                                        TEXTAREA(_name=\'summary\'),\n                                        INPUT(_type=\'submit\', _value=T(\'submit\'))\n                                      )\n                                )\n                        if form.accepts(request.vars, session):\n                            if area == \'add\':\n                                try:\n                                    album = picasa_manager.client.InsertAlbum(title=request.vars.title, summary=request.vars.summary)\n                                    session.flash = T(\'Album successfully added\')\n                                    redirect(URL(r=request, args=[\'albums\']))\n                                except Exception, ex:\n                                    log_wrapped(\'Error\', ex)\n                                    response.flash = T(\'An error occured: %(error)s. You can retry or contact the administrator\', dict(error=str(ex)))\n        \n                        return dict(nake=None, area=area, form=form, item=item)\n        \n                    elif area == \'edit\':\n                        album_id=request.args[2]\n                        album_feed=picasa_manager.get_album_by_id(album_id)\n                        album_photos=picasa_manager.get_album_photos(\n                                            album_id, \n                                            username=session.gdata_user[\'email\'].replace(\'@gmail.com\', \'\'), \n                                            limit=10\n                                            )\n        \n                        form=FORM(DIV(INPUT(_type=\'text\', _name=\'title\', _value=album_feed.title.text), \n                                        TEXTAREA(_name=\'summary\',  value=album_feed.summary.text),\n                                        INPUT(_type=\'submit\', _value=T(\'submit\'))\n                                      )\n                                )\n                        if form.accepts(request.vars, session):\n                                try:\n                                    album_feed.title.text=request.vars.title\n                                    album_feed.summary.text=request.vars.summary\n                \n                                    updated_album = picasa_manager.client.Put(album_feed, album_feed.GetEditLink().href, converter=gdata.photos.AlbumEntryFromString)\n                                    session.flash = T(\'Album successfully updated\')\n                                    redirect(URL(r=request, args=[\'albums\']))\n                                except Exception, ex:\n                                    log_wrapped(\'Error\', ex)\n                                    response.flash = T(\'An error occured: %(error)s. You can retry or contact the administrator\', dict(error=str(ex)))\n        \n                        return dict(nake=None, area=area, form=form, item=item, album=album_photos, album_id=album_id)\n        \n                    elif area == \'delete\':\n                        album_id=request.args[2]\n                        album_feed=picasa_manager.get_album_by_id(album_id)\n                        album_photos=picasa_manager.get_album_photos(\n                                          album_id, \n                                          username=session.gdata_user[\'email\'].replace(\'@gmail.com\', \'\'), \n                                          limit=10\n                                          )\n        \n                        form=FORM(DIV(INPUT(_type=\'text\', _name=\'title\', _value=album_feed.title.text), \n                                        TEXTAREA(_name=\'summary\',  value=album_feed.summary.text),\n                                        INPUT(_type=\'submit\', _value=T(\'delete\'))\n                                      )\n                                )\n                        if form.accepts(request.vars, session):\n                            try:\n                                picasa_manager.client.Delete(album_feed)\n                                session.flash = T(\'Album deleted\')\n                                redirect(URL(r=request, args=[\'albums\']))\n                            except Exception, ex:\n                                log_wrapped(\'Error\', ex)\n                                response.flash = T(\'An error occured: %(error)s. You can retry or contact the administrator\', dict(error=str(ex)))\n        \n                        return dict(nake=None, area=area, form=form, item=item, album=album_photos, album_id=album_id)\n    \n                elif item==\'picture\':\n    \n                    if area == \'upload\':\n                        upload_nr=5\n                        album_id=request.args[2]\n                        album_url = \'/data/feed/api/user/%s/albumid/%s\' % (session.gdata_user[\'email\'], album_id)\n        \n                        form=FORM()\n                        for i in range(upload_nr):\n                            form.append(DIV(INPUT(_type=\'file\', _name=\'file_%i\' % i), \n                                            INPUT(_type=\'text\', _name=\'title_%i\' % i))\n                            )\n                        form.append(INPUT(_type=\'submit\', _value=T(\'submit\')))\n                        if form.accepts(request.vars, session):\n                            import gluon.contenttype as contenttype\n                            _exceptions=[]\n                            _file_tuples=[]\n                            for i in range(upload_nr):\n                                _file,filename,filetitle=None,\'\',\'\'\n                                for v in request.post_vars:\n                                    if v==\'file_%i\' % i:\n                                        try: \n                                            _file=request.post_vars[v].file\n                                            filename=request.post_vars[v].filename\n                                        except Exception, ex: log_wrapped(\'exception\', ex)\n    \n                                    elif v==\'title_%i\' % i:\n                                        filetitle=request.post_vars[v]\n    \n                                if _file:\n                                    if not filetitle:\n                                        if filename.find(\'\\\\\')>0: f_n_s=filename.split(\'\\\\\')\n                                        else: f_n_s=filename.split(\'/\')\n                                        filetitle=f_n_s[len(f_n_s)-1]\n                                    _file_tuples.append((_file, filename, filetitle))\n    \n                            for i in range(len(_file_tuples)):\n                                try:\n                                    photo = picasa_manager.client.InsertPhotoSimple(album_url, _file_tuples[i][2],\n                                                                    \'Uploaded using the API\', _file_tuples[i][0], \n                                                                    content_type=contenttype.contenttype(_file_tuples[i][1]))\n                                except Exception, ex:\n                                    _exceptions.append(ex)\n                                    \n                            if len(_exceptions)>0:\n                                response.flash=T(\'There were %i errors during the upload(s): %s\' % (len(_exceptions), str(_exceptions)))\n                                log_wrapped(\'exceptions\', str(_exceptions))\n                            else:\n                                redirect(URL(r=request, f=\'picasa\', args=[\'album\', album_id]))\n        \n                        return dict(nake=None, area=area, form=form, item=item)\n    \n                    elif area == \'edit\':\n                        photo_id, album_id=request.args[2], request.args[3]\n                        photo=picasa_manager.get_album_photo_by_id(\n                                            album_id, photo_id, \n                                            username=session.gdata_user[\'email\'].replace(\'@gmail.com\', \'\'), \n                                            raw_feed=True\n                                            )\n                        picasa_manager.initialize_photo_metadata(photo)\n        \n                        form=FORM(\n                                DIV(LABEL(T(\'title\')), INPUT(_type=\'text\', _name=\'title\', _value=photo.title.text)),\n                                DIV(LABEL(T(\'summary\')), TEXTAREA(_name=\'summary\', value=photo.summary.text)),\n                                DIV(LABEL(T(\'keywords\')), INPUT(_type=\'text\', _name=\'keywords\', _value=photo.media.keywords.text)),\n                                DIV(LABEL(XML(\'&nbsp;\')), INPUT(_type=\'submit\', _value=T(\'submit\')))\n                            )\n                        if form.accepts(request.vars, session):\n                            try:\n                                photo.title.text = request.vars.title\n                                photo.summary.text = request.vars.summary\n                                photo.media.keywords.text = request.vars.keywords\n                                updated_photo = picasa_manager.client.UpdatePhotoMetadata(photo)\n                                \n                                session.flash = T(\'Photo successfully updated\')\n                                redirect(URL(r=request, args=[\'edit\', \'album\', album_id]))\n                            except Exception, ex:\n                                log_wrapped(\'Error\', ex)\n                                response.flash = T(\'An error occured: %(error)s. You can retry or contact the administrator\', dict(error=str(ex)))\n    \n                        return dict(nake=None, area=area, form=form, item=item, photo=photo)\n        \n                    elif area == \'delete\':                        \n                        photo_id, album_id=request.args[2], request.args[3]\n                        photo=picasa_manager.get_album_photo_by_id(\n                                            album_id, photo_id, \n                                            username=session.gdata_user[\'email\'].replace(\'@gmail.com\', \'\'), \n                                            raw_feed=True\n                                            )\n                        form=FORM(\n                                DIV(LABEL(T(\'title\')), INPUT(_type=\'text\', _name=\'title\', _value=photo.title.text)),\n                                DIV(LABEL(T(\'summary\')), TEXTAREA(_name=\'summary\', value=photo.summary.text)),\n                                DIV(LABEL(T(\'keywords\')), INPUT(_type=\'text\', _name=\'keywords\', _value=photo.media.keywords.text)),\n                                DIV(LABEL(XML(\'&nbsp;\')), INPUT(_type=\'submit\', _value=T(\'delete\')))\n                            )\n                        if form.accepts(request.vars, session):\n                            try:\n                                picasa_manager.client.Delete(photo)\n                                session.flash = T(\'Photo deleted\')\n                                redirect(URL(r=request, args=[\'edit\', \'album\', album_id]))\n                            except Exception, ex:\n                                log_wrapped(\'Error\', ex)\n                                response.flash = T(\'An error occured: %(error)s. You can retry or contact the administrator\', dict(error=str(ex)))\n    \n                        return dict(nake=None, area=area, form=form, item=item, photo=photo)\n    \n    \n            elif area == \'albums\':\n                albums_feed=picasa_manager.get_albums_feed()\n                \n                form=DIV()\n                albums=TABLE(TR(TH(T(\'title\')), TH(T(\'nr of pictures\')), TH(), TH(), TH(), TH()))\n                for entry in albums_feed:\n                    albums.append(TR(\n                                        TD(entry.title.text),\n                                        TD(entry.numphotos.text),\n                                        TD(A(T(\'view\'), _href=URL(r=request, args=[\'album\', entry.gphoto_id.text]))), \n                                        TD( A(T(\'edit\'), _href=URL(r=request, args=[\'edit\', \'album\', entry.gphoto_id.text]))),\n                                        TD( A(T(\'delete\'), _href=URL(r=request, args=[\'delete\', \'album\', entry.gphoto_id.text]))),\n                                        TD( A(T(\'upload to\'), _href=URL(r=request, args=[\'upload\', \'picture\',  entry.gphoto_id.text]))),\n                                    )\n                            )\n                form.append(A(T(\'add\'), _class=\'display-block width100pc text-alignr\', _href=URL(r=request, args=[\'add\', \'album\'])))\n                form.append(albums)\n                return dict(nake=None, area=area, form=form, item=None)\n    \n    ## PUBLIC SECTION\n        if area == \'gallery\':\n            log_wrapped(\'request.args[0]\', request.args[0])\n            recent=picasa_manager.get_recent_photos()\n            gallery=picasa_manager.get_album_gallery()\n            return dict(nake=None, area=area, item=None, recent=recent, gallery=gallery)\n            \n        if area == \'album\':\n            album_id=request.args[1]\n            album=picasa_manager.get_album_photos(album_id)\n            return dict(nake=None, area=area, item=None, album=album, album_id=album_id)\n            \n        elif area == \'slideshow\':\n            album_id=request.args[1]\n            album=picasa_manager.get_album_photos(album_id)\n            if not session.current_photo or int(session.current_photo)>len(album)-1:\n                session.current_photo=0\n            photo=album[int(session.current_photo)]\n            session.current_photo+=1\n            response.refresh=\'<meta http-equiv="refresh" content="%i;%s" />\' % (2, URL(r=request, args=[\'slideshow\', album_id]))\n            return dict(nake=True, area=area, item=None, photo=photo, album_id=album_id)\n    \n    except Exception, ex:\n        log_wrapped(\'Exception\', ex)\n        if str(ex).lower().find(\'unknown user\')>=0:\n            session.flash = T(\'User is unknown by the Google Photos (Picasa) Service. User must be registered there: %(picasa_link)s\', \n                                dict(picasa_link=\'http://picasaweb.google.com\'))\n        if str(ex).lower().find(\'captcha required\')>=0:\n            session.flash = T(\'User credentials are unknown to the Google Photos (Picasa) Service. User should be modified by an administrator, in service setup.\')\n        redirect(URL(r=request, c=\'default\', f=\'error\'))\n\ndef social():\n    area = \'twitter\'\n    items=[]\n    if request.args[0] == \'twitter\':\n        exec(\'from applications.%s.modules import twitter\' % request.application)\n        twitter = twitter.Manager(\'compta\')\n        items = twitter.get_tweets()\n\n    return dict(nake=True, area=area, items=items)\n\nresponse._vars=response._caller(social)\n'
p6
sS'snapshot'
p7
(dp8
S'exception'
p9
(dp10
S'__module__'
p11
S"'gluon.contrib.simplejson.decoder'"
p12
sS'__getslice__'
p13
S"<method-wrapper '__getslice__' of JSONDecodeError object at 0x9ef2cac>"
p14
sS'__str__'
p15
S"<method-wrapper '__str__' of JSONDecodeError object at 0x9ef2cac>"
p16
sS'__reduce__'
p17
S'<built-in method __reduce__ of JSONDecodeError object at 0x9ef2cac>'
p18
sS'pos'
p19
S'1'
sS'endlineno'
p20
S'None'
p21
sS'__dict__'
p22
S"{'colno': 1, 'doc': ' ', 'end': None, 'endcolno': None, 'endlineno': None, 'lineno': 1, 'msg': 'No JSON object could be decoded', 'pos': 1}"
p23
sS'__weakref__'
p24
S'None'
p25
sS'__init__'
p26
S"<bound method JSONDecodeError.__init__ of JSONDe...ct could be decoded: line 1 column 1 (char 1)',)>"
p27
sS'__setattr__'
p28
S"<method-wrapper '__setattr__' of JSONDecodeError object at 0x9ef2cac>"
p29
sS'__reduce_ex__'
p30
S'<built-in method __reduce_ex__ of JSONDecodeError object at 0x9ef2cac>'
p31
sS'end'
p32
S'None'
p33
sS'__new__'
p34
S'<built-in method __new__ of type object at 0x823a040>'
p35
sS'__class__'
p36
S"<class 'gluon.contrib.simplejson.decoder.JSONDecodeError'>"
p37
sS'lineno'
p38
S'1'
sS'msg'
p39
S"'No JSON object could be decoded'"
p40
sS'__doc__'
p41
S"'Subclass of ValueError with the following additi...e column corresponding to end (may be None)\\n\\n    '"
p42
sS'__getitem__'
p43
S"<method-wrapper '__getitem__' of JSONDecodeError object at 0x9ef2cac>"
p44
sS'__setstate__'
p45
S'<built-in method __setstate__ of JSONDecodeError object at 0x9ef2cac>'
p46
sS'__getattribute__'
p47
S"<method-wrapper '__getattribute__' of JSONDecodeError object at 0x9ef2cac>"
p48
sS'args'
p49
S"('No JSON object could be decoded: line 1 column 1 (char 1)',)"
p50
sS'colno'
p51
S'1'
sS'doc'
p52
S"' '"
p53
sS'endcolno'
p54
S'None'
p55
sS'__delattr__'
p56
S"<method-wrapper '__delattr__' of JSONDecodeError object at 0x9ef2cac>"
p57
sS'__repr__'
p58
S"<method-wrapper '__repr__' of JSONDecodeError object at 0x9ef2cac>"
p59
sS'__hash__'
p60
S"<method-wrapper '__hash__' of JSONDecodeError object at 0x9ef2cac>"
p61
ssS'evalue'
p62
S'No JSON object could be decoded: line 1 column 1 (char 1)'
p63
sS'request'
p64
(dp65
S'function'
p66
S"'social'"
p67
sS'body'
p68
S'<cStringIO.StringO object at 0x9debdc0>'
p69
sS'wsgi'
p70
S"<Storage {'start_response': <function <lambda> a...ING': 'gzip,deflate', 'HTTP_KEEP_ALIVE': '115'}}>"
p71
sS'extension'
p72
S"'html'"
p73
sS'vars'
p74
S'<Storage {}>'
p75
sS'cid'
p76
S'None'
p77
sS'url'
p78
S'<gluon.html.XML object at 0x9ff1d4c>'
p79
sS'raw_extension'
p80
S'None'
p81
sg49
S"['twitter']"
p82
sS'controller'
p83
S"'media'"
p84
sS'cookies'
p85
S"<SimpleCookie: session_id_a='127.0.0.1-76250500-...c4fd76-048f-4688-8653-aa55bd9624a8' theme='blue'>"
p86
sS'application'
p87
S"'a'"
p88
sS'ajax'
p89
S'False'
p90
sS'client'
p91
S"'127.0.0.1'"
p92
sS'env'
p93
S"<Storage {'wsgi_multithread': True, 'http_accept...nput': <socket._fileobject object at 0xa30b87c>}>"
p94
sS'raw_args'
p95
S"'twitter'"
p96
sS'get_vars'
p97
S'<Storage {}>'
p98
sS'folder'
p99
S"'/home/herve/development/workspaces/molhokwai.net/web/applications/a/'"
p100
sS'now'
p101
S'datetime.datetime(2011, 1, 12, 13, 55, 21, 33351)'
p102
sS'post_vars'
p103
S'<Storage {}>'
p104
ssS'frames'
p105
(lp106
(dp107
S'file'
p108
S'/home/herve/development/workspaces/molhokwai.net/web/gluon/restricted.py'
p109
sS'dump'
p110
(dp111
S'environment'
p112
S"{'A': <class 'gluon.html.A'>, 'AppDetails': <class __builtin__.AppDetails at 0x9dccc8c>, 'Auth': <class 'gluon.tools.Auth'>, 'B': <class 'gluon.html.B'>, 'BEAUTIFY': <class 'gluon.html.BEAUTIFY'>, 'BODY': <class 'gluon.html.BODY'>, 'BR': <class 'gluon.html.BR'>, 'CENTER': <class 'gluon.html.CENTER'>, 'CLEANUP': <class 'gluon.validators.CLEANUP'>, 'CODE': <class 'gluon.html.CODE'>, ...}"
p113
sS'ccode'
p114
S'<code object <module> at 0x9ecfba8, file "/home/...web/applications/a/controllers/media.py", line 4>'
p115
ssS'lnum'
p116
I188
sS'lines'
p117
(dp118
I192
S'        # XXX Show exception in Wing IDE if running in debugger'
p119
sI183
S'        if type(code) == types.CodeType:'
p120
sI184
S'            ccode = code'
p121
sI185
S'        else:'
p122
sI186
S'            ccode = compile2(code,layer)'
p123
sI187
S''
sI188
S'        exec ccode in environment'
p124
sI189
S'    except HTTP:'
p125
sI190
S'        raise'
p126
sI191
S'    except Exception:'
p127
ssS'call'
p128
S"(code='###################################\\n## CONTROLLE...=items)\\n\\nresponse._vars=response._caller(social)\\n', environment={'A': <class 'gluon.html.A'>, 'AppDetails': <class __builtin__.AppDetails at 0x9dccc8c>, 'Auth': <class 'gluon.tools.Auth'>, 'B': <class 'gluon.html.B'>, 'BEAUTIFY': <class 'gluon.html.BEAUTIFY'>, 'BODY': <class 'gluon.html.BODY'>, 'BR': <class 'gluon.html.BR'>, 'CENTER': <class 'gluon.html.CENTER'>, 'CLEANUP': <class 'gluon.validators.CLEANUP'>, 'CODE': <class 'gluon.html.CODE'>, ...}, layer='/home/herve/development/workspaces/molhokwai.net/web/applications/a/controllers/media.py')"
p129
sS'func'
p130
S'restricted'
p131
sa(dp132
g108
S'/home/herve/development/workspaces/molhokwai.net/web/applications/a/controllers/media.py'
p133
sg110
(dp134
sg116
I302
sg117
(dp135
I291
S''
sI292
S'def social():'
p136
sI293
S"    area = 'twitter'"
p137
sI294
S'    items=[]'
p138
sI295
S"    if request.args[0] == 'twitter':"
p139
sI296
S"        exec('from applications.%s.modules import twitter' % request.application)"
p140
sI297
S"        twitter = twitter.Manager('compta')"
p141
sI298
S'        items = twitter.get_tweets()'
p142
sI299
S''
sI300
S'    return dict(nake=True, area=area, items=items)'
p143
ssg128
S'()'
p144
sg130
S'<module>'
p145
sa(dp146
g108
S'/home/herve/development/workspaces/molhokwai.net/web/gluon/globals.py'
p147
sg110
(dp148
S'self'
p149
S'undefined'
p150
sS'f'
S'<function social at 0x9ddd6f4>'
p151
ssg116
I95
sg117
(dp152
I96
S'        self._view_environment = None'
p153
sI97
S'        self._custom_commit = None'
p154
sI98
S'        self._custom_rollback = None'
p155
sI99
S''
sI90
S"        self.flash = ''           # used by the default view layout"
p156
sI91
S'        self.meta = Storage()     # used by web2py_ajax.html'
p157
sI92
S'        self.menu = []            # used by the default view layout'
p158
sI93
S'        self.files = []           # used by web2py_ajax.html'
p159
sI94
S'        self._vars = None'
p160
sI95
S'        self._caller = lambda f: f()'
p161
ssg128
S'(f=<function social at 0x9ddd6f4>)'
p162
sg130
S'<lambda>'
p163
sa(dp164
g108
S'/home/herve/development/workspaces/molhokwai.net/web/applications/a/controllers/media.py'
p165
sg110
(dp166
S'items'
p167
S'[]'
p168
sS'twitter'
p169
S'<applications.a.modules.twitter.Manager instance at 0x9ed1d6c>'
p170
sS'twitter.get_tweets'
p171
S'<bound method Manager.get_tweets of <applications.a.modules.twitter.Manager instance at 0x9ed1d6c>>'
p172
ssg116
I298
sg117
(dp173
I291
S''
sI292
S'def social():'
p174
sI293
S"    area = 'twitter'"
p175
sI294
S'    items=[]'
p176
sI295
S"    if request.args[0] == 'twitter':"
p177
sI296
S"        exec('from applications.%s.modules import twitter' % request.application)"
p178
sI297
S"        twitter = twitter.Manager('compta')"
p179
sI298
S'        items = twitter.get_tweets()'
p180
sI299
S''
sI300
S'    return dict(nake=True, area=area, items=items)'
p181
ssg128
S'()'
p182
sg130
S'social'
p183
sa(dp184
g108
S'/home/herve/development/workspaces/molhokwai.net/web/applications/a/modules/twitter.py'
p185
sg110
(dp186
S'simplejson.loads'
p187
S'<function loads at 0x5e58b4>'
p188
sS'global simplejson'
p189
S"<module 'gluon.contrib.simplejson' from '/home/h...i.net/web/gluon/contrib/simplejson/__init__.pyc'>"
p190
sS'global XML'
p191
S"<class 'gluon.html.XML'>"
p192
sS'_hash'
p193
S"'timeline'"
p194
sS'tweets'
p195
g150
sS'page'
p196
S"' '"
p197
ssg116
I29
sg117
(dp198
I21
S''
sI22
S'    def get_tweets(self):'
p199
sI23
S"        _username = ''"
p200
sI24
S"        _hash =''"
p201
sI25
S'        if self._username: _username = self._username'
p202
sI26
S'        if self._hash: _hash = self._hash'
p203
sI27
S''
sI28
S"        page = urllib.urlopen('http://twitter.com/%s?format=json' % _username).read()"
p204
sI29
S"        tweets=XML(simplejson.loads(page)['#%s' % _hash])"
p205
sI30
S'        return dict(tweets=tweets)'
p206
ssg128
S'(self=<applications.a.modules.twitter.Manager instance at 0x9ed1d6c>)'
p207
sg130
S'get_tweets'
p208
sa(dp209
g108
S'/home/herve/development/workspaces/molhokwai.net/web/gluon/contrib/simplejson/__init__.py'
p210
sg110
(dp211
S's'
S"' '"
p212
sS'global _default_decoder'
p213
S'<gluon.contrib.simplejson.decoder.JSONDecoder object at 0x5dcbcc>'
p214
sS'_default_decoder.decode'
p215
S'<bound method JSONDecoder.decode of <gluon.contr...mplejson.decoder.JSONDecoder object at 0x5dcbcc>>'
p216
ssg116
I305
sg117
(dp217
I300
S''
sI301
S'    """'
p218
sI302
S'    if (cls is None and encoding is None and object_hook is None and'
p219
sI303
S'            parse_int is None and parse_float is None and'
p220
sI304
S'            parse_constant is None and not kw):'
p221
sI305
S'        return _default_decoder.decode(s)'
p222
sI306
S'    if cls is None:'
p223
sI307
S'        cls = JSONDecoder'
p224
sI308
S'    if object_hook is not None:'
p225
sI309
S"        kw['object_hook'] = object_hook"
p226
ssg128
S"(s=' ', encoding=None, cls=None, object_hook=None, parse_float=None, parse_int=None, parse_constant=None, **kw={})"
p227
sg130
S'loads'
p228
sa(dp229
g108
S'/home/herve/development/workspaces/molhokwai.net/web/gluon/contrib/simplejson/decoder.py'
p230
sg110
(dp231
S').end'
p232
g150
sS'end'
p233
g150
sS'idx'
p234
g150
sS'_w'
p235
S'<built-in method match of _sre.SRE_Pattern object at 0x5bd800>'
p236
sS'self'
p237
S'<gluon.contrib.simplejson.decoder.JSONDecoder object at 0x5dcbcc>'
p238
sS's'
S"' '"
p239
sS'self.raw_decode'
p240
S'<bound method JSONDecoder.raw_decode of <gluon.c...mplejson.decoder.JSONDecoder object at 0x5dcbcc>>'
p241
sS'obj'
p242
g150
ssg116
I403
sg117
(dp243
I398
S'    def decode(self, s, _w=WHITESPACE.match):'
p244
sI399
S'        """Return the Python representation of ``s`` (a ``str`` or ``unicode``'
p245
sI400
S'        instance containing a JSON document)'
p246
sI401
S''
sI402
S'        """'
p247
sI403
S'        obj, end = self.raw_decode(s, idx=_w(s, 0).end())'
p248
sI404
S'        end = _w(s, end).end()'
p249
sI405
S'        if end != len(s):'
p250
sI406
S'            raise JSONDecodeError("Extra data", s, end, len(s))'
p251
sI407
S'        return obj'
p252
ssg128
S"(self=<gluon.contrib.simplejson.decoder.JSONDecoder object at 0x5dcbcc>, s=' ', _w=<built-in method match of _sre.SRE_Pattern object at 0x5bd800>)"
p253
sg130
S'decode'
p254
sa(dp255
g108
S'/home/herve/development/workspaces/molhokwai.net/web/gluon/contrib/simplejson/decoder.py'
p256
sg110
(dp257
S's'
S"' '"
p258
sS'global JSONDecodeError'
p259
S"<class 'gluon.contrib.simplejson.decoder.JSONDecodeError'>"
p260
sS'idx'
p261
S'1'
ssg116
I421
sg117
(dp262
I416
S''
sI417
S'        """'
p263
sI418
S'        try:'
p264
sI419
S'            obj, end = self.scan_once(s, idx)'
p265
sI420
S'        except StopIteration:'
p266
sI421
S'            raise JSONDecodeError("No JSON object could be decoded", s, idx)'
p267
sI422
S'        return obj, end'
p268
sI413
S''
sI414
S'        This can be used to decode a JSON document from a string that may'
p269
sI415
S'        have extraneous data at the end.'
p270
ssg128
S"(self=<gluon.contrib.simplejson.decoder.JSONDecoder object at 0x5dcbcc>, s=' ', idx=1)"
p271
sg130
S'raw_decode'
p272
sasS'pyver'
p273
S'Python 2.5.1: /usr/local/bin/python'
p274
sS'session'
p275
(dp276
S'auth'
p277
S'None'
p278
ssS'etype'
p279
S"<class 'gluon.contrib.simplejson.decoder.JSONDecodeError'>"
p280
sS'date'
p281
S'Wed Jan 12 13:55:21 2011'
p282
sS'response'
p283
(dp284
S'_vars'
p285
S'None'
p286
sg85
S"<SimpleCookie: session_id_a='127.0.0.1-76250500-f357-4eb7-95d6-602a5ce036a8'>"
p287
sS'links'
p288
S"[['web2py', 'http://www.web2py.com', 1], ['Python', 'http://www.python.org', 2], ['DePaul CTI', 'http://www.cs.depaul.edu', 3], ['DePaul University', 'http://www.depaul.edu', 5], ['downloads', '/a/default/page/32', 15], ['media / picasa / gallery', '/a/media/picasa/gallery', 16], ['manage media / manage picasa albums / manage photos', '/a/media/picasa/albums', 17], ['setup, application initialization', '/a/setup', 18]]"
p289
sS'themes'
p290
S"['0', '1']"
p291
sS'meta'
p292
S'<Storage {}>'
p293
sS'anon_user'
p294
S"<Row {'auth_event': <gluon.dal.Set object at 0x9...elete_record': <function <lambda> at 0x9ef6b8c>}>"
p295
sS'_view_environment'
p296
S"{'A': <class 'gluon.html.A'>, 'AppDetails': <class __builtin__.AppDetails at 0x9dccc8c>, 'Auth': <class 'gluon.tools.Auth'>, 'B': <class 'gluon.html.B'>, 'BEAUTIFY': <class 'gluon.html.BEAUTIFY'>, 'BODY': <class 'gluon.html.BODY'>, 'BR': <class 'gluon.html.BR'>, 'CENTER': <class 'gluon.html.CENTER'>, 'CLEANUP': <class 'gluon.validators.CLEANUP'>, 'CODE': <class 'gluon.html.CODE'>, ...}"
p297
sS'keywords'
p298
S"'blog, weblog, journal, web, log, web2py, pypress...straight-forward, direct, programming, programmer'"
p299
sS'files'
p300
S'[]'
p301
sS'_caller'
p302
S'<function <lambda> at 0x9e30764>'
p303
sS'title'
p304
S'"molhokwai.net - \'a\' cm/dms"'
p305
sS'home_page'
p306
S"<Row {'post_text_TCode': 'page_id_24', 'post_tim...elete_record': <function <lambda> at 0x9dddb1c>}>"
p307
sS'menu'
p308
S"[['home', False, '/a/default/page/16'], ['community', False, '/a/default/page/18']]"
p309
sS'flash'
p310
S"''"
p311
sS'theme'
p312
S"'blue'"
p313
sS'session_file'
p314
S"<open file '/home/herve/development/workspaces/m...4eb7-95d6-602a5ce036a8', mode 'rb+' at 0x9dd3218>"
p315
sS'_custom_commit'
p316
S'None'
p317
sS'session_filename'
p318
S"'/home/herve/development/workspaces/molhokwai.net...ns/127.0.0.1-76250500-f357-4eb7-95d6-602a5ce036a8'"
p319
sg68
S'<cStringIO.StringO object at 0x9c471a0>'
p320
sS'description'
p321
S'"molhokwai.net - \'a\' cm/dms, lightweight, simple, straight & direct"'
p322
sS'session_id_name'
p323
S"'session_id_a'"
p324
sS'_custom_rollback'
p325
S'None'
p326
sS'pages'
p327
S"[['beliefs', False, '/a/default/page/15'], ['home', False, '/a/default/page/16'], ['community', False, '/a/default/page/18'], ['SMS', False, '/a/default/page/21'], ['', False, '/a/default/page/23'], ['a_home', False, '/a/default/page/24'], ['a_help', False, '/a/default/page/26'], ['help', False, '/a/default/page/27'], ['a_home', False, '/a/default/page/29'], ['siblos', False, '/a/default/page/30'], ['dev', False, '/a/default/page/31'], ['downloads', False, '/a/default/page/32'], ['themes', False, '/a/default/page/35'], ['media upload', False, '/a/default/page/36'], ['acknowledgements', False, '/a/default/page/37']]"
p328
sS'categories'
p329
S"[['misc', 2, '/a/default/category/misc'], ['message', 1, '/a/default/category/message']]"
p330
sS'help_page'
p331
S"<Row {'post_text_TCode': 'page_id_26', 'post_tim...elete_record': <function <lambda> at 0x9dddd14>}>"
p332
sS'session_id'
p333
S"'127.0.0.1-76250500-f357-4eb7-95d6-602a5ce036a8'"
p334
sS'headers'
p335
S"<Storage {'Expires': 'Wed, 12 Jan 2011 12:55:21 ...he, must-revalidate, post-check=0, pre-check=0'}>"
p336
sS'status'
p337
S'200'
p338
sS'postprocessing'
p339
S'[]'
p340
sS'auth_users'
p341
S'<gluon.dal.Rows object at 0x9f0432c>'
p342
sS'view'
p343
S"'media/social.html'"
p344
ssS'locals'
p345
(dp346
S's'
S"' '"
p347
sS'self'
p348
S'<gluon.contrib.simplejson.decoder.JSONDecoder object at 0x5dcbcc>'
p349
sS'idx'
p350
S'1'
sssS'traceback'
p351
S'Traceback (most recent call last):\n  File "/home/herve/development/workspaces/molhokwai.net/web/gluon/restricted.py", line 188, in restricted\n    exec ccode in environment\n  File "/home/herve/development/workspaces/molhokwai.net/web/applications/a/controllers/media.py", line 302, in <module>\n  File "/home/herve/development/workspaces/molhokwai.net/web/gluon/globals.py", line 95, in <lambda>\n    self._caller = lambda f: f()\n  File "/home/herve/development/workspaces/molhokwai.net/web/applications/a/controllers/media.py", line 298, in social\n    items = twitter.get_tweets()\n  File "applications/a/modules/twitter.py", line 29, in get_tweets\n    tweets=XML(simplejson.loads(page)[\'#%s\' % _hash])\n  File "/home/herve/development/workspaces/molhokwai.net/web/gluon/contrib/simplejson/__init__.py", line 305, in loads\n    return _default_decoder.decode(s)\n  File "/home/herve/development/workspaces/molhokwai.net/web/gluon/contrib/simplejson/decoder.py", line 403, in decode\n    obj, end = self.raw_decode(s, idx=_w(s, 0).end())\n  File "/home/herve/development/workspaces/molhokwai.net/web/gluon/contrib/simplejson/decoder.py", line 421, in raw_decode\n    raise JSONDecodeError("No JSON object could be decoded", s, idx)\nJSONDecodeError: No JSON object could be decoded: line 1 column 1 (char 1)\n'
p352
s.