(dp1
S'output'
p2
S''
sS'layer'
p3
S'/home/herve/development/workspaces/molhokwai.net/web/applications/cms/models/utilities.py'
p4
sS'code'
p5
S'# coding: utf8\n\n#########################################################################\n## APPLICATION DETAILS, COMMON\'Z & UTILITIES\n#########################################################################\n\nclass AppDetails():\n    title = T("molhokwai.net - \'a\' cm/dms"), \n    keywords = T("blog, weblog, journal, web, log, web2py, pypress, cms, dms, simple, lightweight, straight-forward, direct, programming, programmer"),\n    description = T("molhokwai.net - \'a\' cm/dms, lightweight, simple, straight & direct")\n    init_app_config = {\n        \'pages\' : {\n            \'help\' : """\n                Dbl Ctrl to access <i>command line</i> <small>(css-ly removed outline makes cursor faintly visible in chrome, but it\'s there)</small>\n                <br/>\n                <br/>\n                <br/>\n                --------------------------------------------------------------------------------------------<br/>\n                Add links to pages to access the pages from the command line\n                --------------------------------------------------------------------------------------------<br/>\n                login <br/>\n                logout <br/>\n                add <br/>\n                edit <br/>\n                delete <br/>\n                submit <br/>\n                pages <br/>\n                links <br/>\n                root <br/>\n                help <br/>\n                <br/>\n                <br/>\n                --------------------------------------------------------------------------------------------<br/>\n                idem, translated in available languages\n            """,\n            \'home\' : """\n                <b>Command line interface<br/>\n                &nbsp;&nbsp;&nbsp;&nbsp;<small>command based human machine interface basic cms</small>...\n                <br/>\n                <br/>\n                Dbl Ctrl to access <i>command line</i> <small>(css-ly removed outline makes cursor faintly visible in chrome, but it\'s there)</small><br/>\n                &nbsp;&nbsp;&nbsp;&nbsp;<small>*<b>eventually</b>, if the page has elligible primary content, search falls back on <img src="http://www.google.com/uds/css/small-logo.png" alt="Google(reg)"> search \n                if no <i>internally found</i> response</small>.<br/>\n                --------------------------------------------------------------------------------------------\n                <br/>\n                <br/>\n                login <br/>\n                logout <br/>\n                add <br/>\n                edit <br/>\n                delete <br/>\n                submit <br/>\n                pages <br/>\n                links <br/>\n                root <br/>\n                help <br/>\n                <br/>\n                <br/>\n                --------------------------------------------------------------------------------------------<br/>\n                Add links to pages to access them from the command line<br/>\n                --------------------------------------------------------------------------------------------<br/>\n                <br/>\n                <br/>\n                <br/>\n                <br/>\n                <br/>\n                <br/>\n                <br/>\n                <br/>\n                --------------------------------------------------------------------------------------------<br/>\n                idem, translated in available languages            \n            """,\n            \'acknowledgements\' : """\n                <ul>\n                  <li><a href="http://www.web2py.org">web2py</a></li>\n                  <li><a href="http://code.google.com/appengine">google app engine</a></li>\n                  <li><a href="http://python.org">python</a></li>\n                  <li><a href="http://jquery.org">jquery</a></li>\n                  <li><a href="http://www.google.be/search?sourceid=chrome&amp;ie=UTF-8&amp;q=pypress">pypress</a></li>\n                  <li><a href="http://www.google.be/search?sourceid=chrome&amp;ie=UTF-8&amp;q=pypress#sclient=psy&amp;hl=nl&amp;source=hp&amp;q=acknowledgements:everything+up+to+now&amp;aq=f&amp;aqi=&amp;aql=&amp;oq=&amp;gs_rfai=&amp;pbx=1&amp;psj=1&amp;fp=1eb96132f70894e9">...</a> </li>\n                </ul>\n                <br>\n                <p class="text-alignr font-size09em italic width60pc">(if you find there is missing acknowledgedment, an e-mail to <a href="mailto:admin@molhokwai.net" title="[GMCP] Compose a new mail to admin@molhokwai.net" \n                onclick="window.open(\'https://mail.google.com/mail/?view=cm&amp;fs=1&amp;tf=1&amp;to=admin@molhokwai.net\',\'Compose new message\',\'width=640,height=480\');return false" rel="noreferrer">admin@molhokwai.net</a> \n                is more than welcome)"</p>                \n            """\n        }\n    }\napp_details=AppDetails()\nif app_config and app_config.APP_METAS:\n    app_details.title=app_config.APP_METAS[0]\n    app_details.keywords=app_config.APP_METAS[1]\n    app_details.description=app_config.APP_METAS[2]\n        \nclass aConvert():\n    def to_int(self, value):\n        """Attention: Eventually returns 0 which \'equals\' the False ValueError return"""\n        try:\n            return int(value)\n        except ValueError:\n            return False\na_convert=aConvert()\n\nclass Struct:\n    def __init__(self, **entries): \n        self.__dict__.update(entries)\n\napp_objects=Struct({\'details\':app_details,\'config\':app_config})\n\n########################\n## Print, Log Wrapper\n########################\n\ndef print_wrapped(_name, _value):\n    print \'-------| %s : %s\' % (repr(_name), repr(_value))\n\ndef log_wrapped(_name, _value):\n    if request.env.web2py_runtime_gae:\n        import logging\n        logging.info(\'-------| %s : %s\' % (repr(_name), repr(_value)))\n    else:\n        print_wrapped(_name, _value)\n\n#########################################################################\n## from : http://bytes.com/topic/python/answers/592479-regex-url-extracting\n#########################################################################\nexpressions={\n  \'url_find\' : [\n"([0-9]{1,3}\\\\.[0-9]{1,3}\\\\.[0-9]{1,3}\\\\.[0-9]{1,3}|(((news|telnet|nttp|file|http|ftp|https)://)|(www|ftp)[-A-Za-z0-9]*\\\\.)[-A-Za-z0-9\\\\.]+)(:[0-9]*)?/[-A-Za-z0-9_\\\\$\\\\.\\\\+\\\\!\\\\*\\\\(\\\\),;:@&=\\\\?/~\\\\#\\\\%]*[^]\'\\\\.}>\\\\),\\\\\\"]",\n"([0-9]{1,3}\\\\.[0-9]{1,3}\\\\.[0-9]{1,3}\\\\.[0-9]{1,3}|(((news|telnet|nttp|file|http|ftp|https)://)|(www|ftp)[-A-Za-z0-9]*\\\\.)[-A-Za-z0-9\\\\.]+)(:[0-9]*)?",\n"(~/|/|\\\\./)([-A-Za-z0-9_\\\\$\\\\.\\\\+\\\\!\\\\*\\\\(\\\\),;:@&=\\\\?/~\\\\#\\\\%]|\\\\\\\\)+",\n"\'\\\\<((mailto:)|)[-A-Za-z0-9\\\\.]+@[-A-Za-z0-9\\\\.]+"\n  ],\n  \'rel_url_and_end_tags_find\' : ["[0-9]{0,1}/[-A-Za-z0-9_\\\\$\\\\.\\\\+\\\\!\\\\*\\\\(\\\\),;:@&=\\\\?/~\\\\#\\\\%]*[^]\'\\\\.}>\\\\),\\\\\\"]"]\n}\n\nimport re\nurl_finders = [\nre.compile(expressions[\'url_find\'][0]),\nre.compile(expressions[\'url_find\'][1]),\nre.compile(expressions[\'url_find\'][2]),\nre.compile(expressions[\'url_find\'][3]),\n]\nrel_url_and_end_tags_finders = [\nre.compile(expressions[\'rel_url_and_end_tags_find\'][0]),\n]\n'
p6
sS'snapshot'
p7
(dp8
S'exception'
p9
(dp10
S'__hash__'
p11
S"<method-wrapper '__hash__' of exceptions.TypeError object at 0x93e350c>"
p12
sS'__setattr__'
p13
S"<method-wrapper '__setattr__' of exceptions.TypeError object at 0x93e350c>"
p14
sS'__reduce_ex__'
p15
S'<built-in method __reduce_ex__ of exceptions.TypeError object at 0x93e350c>'
p16
sS'__getslice__'
p17
S"<method-wrapper '__getslice__' of exceptions.TypeError object at 0x93e350c>"
p18
sS'__getitem__'
p19
S"<method-wrapper '__getitem__' of exceptions.TypeError object at 0x93e350c>"
p20
sS'__setstate__'
p21
S'<built-in method __setstate__ of exceptions.TypeError object at 0x93e350c>'
p22
sS'__reduce__'
p23
S'<built-in method __reduce__ of exceptions.TypeError object at 0x93e350c>'
p24
sS'__str__'
p25
S"<method-wrapper '__str__' of exceptions.TypeError object at 0x93e350c>"
p26
sS'args'
p27
S"('__init__() takes exactly 1 argument (2 given)',)"
p28
sS'__getattribute__'
p29
S"<method-wrapper '__getattribute__' of exceptions.TypeError object at 0x93e350c>"
p30
sS'__class__'
p31
S"<type 'exceptions.TypeError'>"
p32
sS'__delattr__'
p33
S"<method-wrapper '__delattr__' of exceptions.TypeError object at 0x93e350c>"
p34
sS'__repr__'
p35
S"<method-wrapper '__repr__' of exceptions.TypeError object at 0x93e350c>"
p36
sS'__dict__'
p37
S'{}'
p38
sS'__doc__'
p39
S"'Inappropriate argument type.'"
p40
sS'__init__'
p41
S"<method-wrapper '__init__' of exceptions.TypeError object at 0x93e350c>"
p42
sS'__new__'
p43
S'<built-in method __new__ of type object at 0x8239080>'
p44
ssS'evalue'
p45
S'__init__() takes exactly 1 argument (2 given)'
p46
sS'request'
p47
(dp48
S'function'
p49
S"'error'"
p50
sS'body'
p51
S'<cStringIO.StringO object at 0x9306c60>'
p52
sS'wsgi'
p53
S"<Storage {'start_response': <function <lambda> a...ING': 'gzip,deflate', 'HTTP_KEEP_ALIVE': '115'}}>"
p54
sS'extension'
p55
S"'html'"
p56
sS'vars'
p57
S"<Storage {'ticket': 'cms/127.0.0.1.2011-01-31.15...: '/cms/default/error', 'requested_uri': 'None'}>"
p58
sS'cid'
p59
S'None'
p60
sS'url'
p61
S'<gluon.html.XML object at 0x9306cec>'
p62
sS'raw_extension'
p63
S'None'
p64
sg27
S'[]'
p65
sS'controller'
p66
S"'default'"
p67
sS'cookies'
p68
S"<SimpleCookie: SESS29af1facda0a866a687d5055f2fad...-bbc0c086-0f6d-4a1f-8e43-a9445d594d30' theme='1'>"
p69
sS'application'
p70
S"'cms'"
p71
sS'ajax'
p72
S'False'
p73
sS'client'
p74
S"'127.0.0.1'"
p75
sS'env'
p76
S"<Storage {'wsgi_multithread': True, 'http_accept...nput': <socket._fileobject object at 0x929064c>}>"
p77
sS'raw_args'
p78
S'None'
p79
sS'get_vars'
p80
S"<Storage {'ticket': 'cms/127.0.0.1.2011-01-31.15...: '/cms/default/error', 'requested_uri': 'None'}>"
p81
sS'folder'
p82
S"'/home/herve/development/workspaces/molhokwai.net/web/applications/cms/'"
p83
sS'now'
p84
S'datetime.datetime(2011, 1, 31, 15, 18, 12, 472156)'
p85
sS'post_vars'
p86
S'<Storage {}>'
p87
ssS'frames'
p88
(lp89
(dp90
S'file'
p91
S'/home/herve/development/workspaces/molhokwai.net/web/gluon/restricted.py'
p92
sS'dump'
p93
(dp94
S'environment'
p95
S"{'A': <class 'gluon.html.A'>, 'AppDetails': <class __builtin__.AppDetails at 0x93f841c>, 'Auth': <class 'gluon.tools.Auth'>, 'B': <class 'gluon.html.B'>, 'BEAUTIFY': <class 'gluon.html.BEAUTIFY'>, 'BODY': <class 'gluon.html.BODY'>, 'BR': <class 'gluon.html.BR'>, 'CENTER': <class 'gluon.html.CENTER'>, 'CLEANUP': <class 'gluon.validators.CLEANUP'>, 'CODE': <class 'gluon.html.CODE'>, ...}"
p96
sS'ccode'
p97
S'<code object <module> at 0x932abf0, file "/home/...eb/applications/cms/models/utilities.py", line 7>'
p98
ssS'lnum'
p99
I188
sS'lines'
p100
(dp101
I192
S'        # XXX Show exception in Wing IDE if running in debugger'
p102
sI183
S'        if type(code) == types.CodeType:'
p103
sI184
S'            ccode = code'
p104
sI185
S'        else:'
p105
sI186
S'            ccode = compile2(code,layer)'
p106
sI187
S''
sI188
S'        exec ccode in environment'
p107
sI189
S'    except HTTP:'
p108
sI190
S'        raise'
p109
sI191
S'    except Exception:'
p110
ssS'call'
p111
S'(code="# coding: utf8\\n\\n################################...(expressions[\'rel_url_and_end_tags_find\'][0]),\\n]\\n", environment={\'A\': <class \'gluon.html.A\'>, \'AppDetails\': <class __builtin__.AppDetails at 0x93f841c>, \'Auth\': <class \'gluon.tools.Auth\'>, \'B\': <class \'gluon.html.B\'>, \'BEAUTIFY\': <class \'gluon.html.BEAUTIFY\'>, \'BODY\': <class \'gluon.html.BODY\'>, \'BR\': <class \'gluon.html.BR\'>, \'CENTER\': <class \'gluon.html.CENTER\'>, \'CLEANUP\': <class \'gluon.validators.CLEANUP\'>, \'CODE\': <class \'gluon.html.CODE\'>, ...}, layer=\'/home/herve/development/workspaces/molhokwai.net/web/applications/cms/models/utilities.py\')'
p112
sS'func'
p113
S'restricted'
p114
sa(dp115
g91
S'/home/herve/development/workspaces/molhokwai.net/web/applications/cms/models/utilities.py'
p116
sg93
(dp117
S'app_objects'
p118
S'undefined'
p119
sS'app_config'
p120
S'<Row {\'APP_METAS\': ["molhokwai.net - \'a\' cm/dms"...elete_record\': <function <lambda> at 0x924c3ac>}>'
p121
sS'Struct'
p122
S'<class __builtin__.Struct at 0x9537f2c>'
p123
sS'app_details'
p124
S'<__builtin__.AppDetails instance at 0x93e3a6c>'
p125
ssg99
I108
sg100
(dp126
I103
S''
sI104
S'class Struct:'
p127
sI105
S'    def __init__(self, **entries):'
p128
sI106
S'        self.__dict__.update(entries)'
p129
sI107
S''
sI108
S"app_objects=Struct({'details':app_details,'config':app_config})"
p130
sI109
S''
sI110
S'########################'
p131
sI111
S'## Print, Log Wrapper'
p132
sI112
S'########################'
p133
ssg111
S'()'
p134
sg113
S'<module>'
p135
sasS'pyver'
p136
S'Python 2.5.1: /usr/local/bin/python'
p137
sS'session'
p138
(dp139
S'_formkey[posts_35]'
p140
S"'d096dedb-a48b-4085-8345-88d43dcdcd12'"
p141
sS'flash'
p142
S'None'
p143
sS'authorized'
p144
S'True'
p145
sS'auth'
p146
S"<Storage {'expiration': 3600, 'user': <Storage {..., 1, 31, 15, 18, 12, 472156), 'remember': False}>"
p147
sS'user_authorization_done'
p148
g145
ssS'etype'
p149
S"<type 'exceptions.TypeError'>"
p150
sS'date'
p151
S'Mon Jan 31 15:18:12 2011'
p152
sS'response'
p153
(dp154
S'status'
p155
S'200'
p156
sg51
S'<cStringIO.StringO object at 0x93f67a0>'
p157
sg68
S"<SimpleCookie: session_id_cms='127.0.0.1-bbc0c086-0f6d-4a1f-8e43-a9445d594d30'>"
p158
sS'_vars'
p159
S'None'
p160
sS'session_file'
p161
S"<open file '/home/herve/development/workspaces/m...4a1f-8e43-a9445d594d30', mode 'rb+' at 0x92640b0>"
p162
sS'flash'
p163
S"''"
p164
sS'_custom_rollback'
p165
S'None'
p166
sS'session_id'
p167
S"'127.0.0.1-bbc0c086-0f6d-4a1f-8e43-a9445d594d30'"
p168
sS'headers'
p169
S"<Storage {'Expires': 'Mon, 31 Jan 2011 14:18:12 ...he, must-revalidate, post-check=0, pre-check=0'}>"
p170
sS'meta'
p171
S'<Storage {}>'
p172
sS'session_filename'
p173
S"'/home/herve/development/workspaces/molhokwai.net...ns/127.0.0.1-bbc0c086-0f6d-4a1f-8e43-a9445d594d30'"
p174
sS'postprocessing'
p175
S'[]'
p176
sS'menu'
p177
S'[]'
p178
sS'_view_environment'
p179
S"{'A': <class 'gluon.html.A'>, 'B': <class 'gluon.html.B'>, 'BEAUTIFY': <class 'gluon.html.BEAUTIFY'>, 'BODY': <class 'gluon.html.BODY'>, 'BR': <class 'gluon.html.BR'>, 'CENTER': <class 'gluon.html.CENTER'>, 'CLEANUP': <class 'gluon.validators.CLEANUP'>, 'CODE': <class 'gluon.html.CODE'>, 'CRYPT': <class 'gluon.validators.CRYPT'>, 'DAL': <class 'gluon.dal.DAL'>, ...}"
p180
sS'session_id_name'
p181
S"'session_id_cms'"
p182
sS'_custom_commit'
p183
S'None'
p184
sS'_caller'
p185
S'<function <lambda> at 0x93094c4>'
p186
sS'files'
p187
S'[]'
p188
sS'view'
p189
S"'default/error.html'"
p190
ssS'locals'
p191
(dp192
S'protocol'
p193
S"'http'"
p194
sS'app_details'
p195
S'<__builtin__.AppDetails instance at 0x93e3a6c>'
p196
sS'Service'
p197
S"<class 'gluon.tools.Service'>"
p198
sS'OBJECT'
p199
S"<class 'gluon.html.OBJECT'>"
p200
sS'SQLDB'
p201
S"<class 'gluon.dal.DAL'>"
p202
sg138
S"<Storage {'_formkey[posts_35]': 'd096dedb-a48b-4...mber': False}>, 'user_authorization_done': True}>"
p203
sS'LINK'
p204
S"<class 'gluon.html.LINK'>"
p205
sS'BR'
p206
S"<class 'gluon.html.BR'>"
p207
sS'local_import'
p208
S'<function <lambda> at 0x9309f44>'
p209
sS'OPTGROUP'
p210
S"<class 'gluon.html.OPTGROUP'>"
p211
sS'link_labels'
p212
S"{'link_title': 'Name', 'link_url': 'URL'}"
p213
sS'PRE'
p214
S"<class 'gluon.html.PRE'>"
p215
sS'IS_INT_IN_RANGE'
p216
S"<class 'gluon.validators.IS_INT_IN_RANGE'>"
p217
sS'IS_LOWER'
p218
S"<class 'gluon.validators.IS_LOWER'>"
p219
sS'IS_STRONG'
p220
S"<class 'gluon.validators.IS_STRONG'>"
p221
sS'Recaptcha'
p222
S"<class 'gluon.tools.Recaptcha'>"
p223
sS'cache'
p224
S'<gluon.cache.Cache object at 0x93060ac>'
p225
sS'IS_IN_DB'
p226
S"<class 'gluon.validators.IS_IN_DB'>"
p227
sS'TAG'
p228
S'<gluon.html.__TAG__ object at 0x4411cc>'
p229
sS'SQLField'
p230
S"<class 'gluon.dal.Field'>"
p231
sS'BODY'
p232
S"<class 'gluon.html.BODY'>"
p233
sS'IS_DATE_IN_RANGE'
p234
S"<class 'gluon.validators.IS_DATE_IN_RANGE'>"
p235
sS'IFRAME'
p236
S"<class 'gluon.html.IFRAME'>"
p237
sS'URL'
p238
S'<function _URL at 0x9309144>'
p239
sS'db'
p240
S"<DAL {'auth_permission': <Table {'ALL': <gluon.d..._name': <gluon.dal.Field object at 0x93e3d6c>}>}>"
p241
sS'auth'
p242
S'<gluon.tools.Auth object at 0x93d682c>'
p243
sS'P'
S"<class 'gluon.html.P'>"
p244
sS'TFOOT'
p245
S"<class 'gluon.html.TFOOT'>"
p246
sS'XHTML'
p247
S"<class 'gluon.html.XHTML'>"
p248
sS'datetime'
p249
S"<module 'datetime' from '/usr/local/lib/python2.5/lib-dynload/datetime.so'>"
p250
sS'ON'
p251
g145
sS'OL'
p252
S"<class 'gluon.html.OL'>"
p253
sS'TEXTAREA'
p254
S"<class 'gluon.html.TEXTAREA'>"
p255
sS'MENU'
p256
S"<class 'gluon.html.MENU'>"
p257
sS'a_convert'
p258
S'<__builtin__.aConvert instance at 0x93e312c>'
p259
sS'EM'
p260
S"<class 'gluon.html.EM'>"
p261
sS'CODE'
p262
S"<class 'gluon.html.CODE'>"
p263
sS'HTTP'
p264
S"<class 'gluon.http.HTTP'>"
p265
sS'HR'
p266
S"<class 'gluon.html.HR'>"
p267
sS'comment_labels'
p268
S"{'comment_author': 'Name', 'comment_author_email': 'Email', 'comment_author_website': 'Website', 'comment_text': 'Comment', 'post_id': 'Post ID'}"
p269
sS'IS_DATETIME'
p270
S"<class 'gluon.validators.IS_DATETIME'>"
p271
sS'STYLE'
p272
S"<class 'gluon.html.STYLE'>"
p273
sS'LABEL'
p274
S"<class 'gluon.html.LABEL'>"
p275
sS'cat_labels'
p276
S"{'category_name': 'Name'}"
p277
sS'META'
p278
S"<class 'gluon.html.META'>"
p279
sS'SELECT'
p280
S"<class 'gluon.html.SELECT'>"
p281
sS'CENTER'
p282
S"<class 'gluon.html.CENTER'>"
p283
sS'prettydate'
p284
S'<function prettydate at 0x91a810c>'
p285
sS'Crud'
p286
S"<class 'gluon.tools.Crud'>"
p287
sS'Auth'
p288
S"<class 'gluon.tools.Auth'>"
p289
sS'__builtins__'
p290
S"{'ArithmeticError': <type 'exceptions.ArithmeticError'>, 'AssertionError': <type 'exceptions.AssertionError'>, 'AttributeError': <type 'exceptions.AttributeError'>, 'BaseException': <type 'exceptions.BaseException'>, 'DeprecationWarning': <type 'exceptions.DeprecationWarning'>, 'EOFError': <type 'exceptions.EOFError'>, 'Ellipsis': Ellipsis, 'EnvironmentError': <type 'exceptions.EnvironmentError'>, 'Exception': <type 'exceptions.Exception'>, 'False': False, ...}"
p291
sS'IS_LIST_OF'
p292
S"<class 'gluon.validators.IS_LIST_OF'>"
p293
sS'SQLFORM'
p294
S"<class 'gluon.sqlhtml.SQLFORM'>"
p295
sS'file_labels'
p296
S"{'file': 'File', 'filename': 'Enter file name'}"
p297
sS'LOAD'
p298
S'<gluon.compileapp.LoadFactory object at 0x93063ac>'
p299
sS'redirect'
p300
S'<function redirect at 0x97725c>'
p301
sS'FIELDSET'
p302
S"<class 'gluon.html.FIELDSET'>"
p303
sS'IS_EQUAL_TO'
p304
S"<class 'gluon.validators.IS_EQUAL_TO'>"
p305
sS'embed64'
p306
S'<function embed64 at 0x43faac>'
p307
sS'INPUT'
p308
S"<class 'gluon.html.INPUT'>"
p309
sS'EMBED'
p310
S"<class 'gluon.html.EMBED'>"
p311
sS'FORM'
p312
S"<class 'gluon.html.FORM'>"
p313
sS'H2'
p314
S"<class 'gluon.html.H2'>"
p315
sS'H3'
p316
S"<class 'gluon.html.H3'>"
p317
sS'H1'
p318
S"<class 'gluon.html.H1'>"
p319
sS'H6'
p320
S"<class 'gluon.html.H6'>"
p321
sS'H4'
p322
S"<class 'gluon.html.H4'>"
p323
sS'H5'
p324
S"<class 'gluon.html.H5'>"
p325
sS'UL'
p326
S"<class 'gluon.html.UL'>"
p327
sS'IS_UPPER'
p328
S"<class 'gluon.validators.IS_UPPER'>"
p329
sS'xmlescape'
p330
S'<function xmlescape at 0x43f4c4>'
p331
sS'IS_TIME'
p332
S"<class 'gluon.validators.IS_TIME'>"
p333
sS'OPTION'
p334
S"<class 'gluon.html.OPTION'>"
p335
sS'TITLE'
p336
S"<class 'gluon.html.TITLE'>"
p337
sS'CRYPT'
p338
S"<class 'gluon.validators.CRYPT'>"
p339
sS'administrators_emails'
p340
S"['molhokwai@gmail.com']"
p341
sS'IS_EMPTY_OR'
p342
S"<class 'gluon.validators.IS_EMPTY_OR'>"
p343
sS'MARKMIN'
p344
S"<class 'gluon.html.MARKMIN'>"
p345
sS'current_language'
p346
S"'en-en'"
p347
sS'this_app'
p348
S"'cms'"
p349
sS'AppDetails'
p350
S'<class __builtin__.AppDetails at 0x93f841c>'
p351
sS'IS_EMAIL'
p352
S"<class 'gluon.validators.IS_EMAIL'>"
p353
sS'service'
p354
S'<gluon.tools.Service object at 0x93d660c>'
p355
sS'SCRIPT'
p356
S"<class 'gluon.html.SCRIPT'>"
p357
sS'geocode'
p358
S'<function geocode at 0x91a7ae4>'
p359
sS'TABLE'
p360
S"<class 'gluon.html.TABLE'>"
p361
sS'IS_IPV4'
p362
S"<class 'gluon.validators.IS_IPV4'>"
p363
sS'IS_LENGTH'
p364
S"<class 'gluon.validators.IS_LENGTH'>"
p365
sS'XML'
p366
S"<class 'gluon.html.XML'>"
p367
sS'B'
S"<class 'gluon.html.B'>"
p368
sS'IMG'
p369
S"<class 'gluon.html.IMG'>"
p370
sS'SQLTABLE'
p371
S"<class 'gluon.sqlhtml.SQLTABLE'>"
p372
sS'IS_MATCH'
p373
S"<class 'gluon.validators.IS_MATCH'>"
p374
sS'IS_ALPHANUMERIC'
p375
S"<class 'gluon.validators.IS_ALPHANUMERIC'>"
p376
sS'SPAN'
p377
S"<class 'gluon.html.SPAN'>"
p378
sS'IS_SLUG'
p379
S"<class 'gluon.validators.IS_SLUG'>"
p380
sS'CLEANUP'
p381
S"<class 'gluon.validators.CLEANUP'>"
p382
sS'fetch'
p383
S'<function fetch at 0x91a7a3c>'
p384
sS'IS_DATE'
p385
S"<class 'gluon.validators.IS_DATE'>"
p386
sS'Struct'
p387
S'<class __builtin__.Struct at 0x9537f2c>'
p388
sS'IS_NOT_EMPTY'
p389
S"<class 'gluon.validators.IS_NOT_EMPTY'>"
p390
sS'IS_FLOAT_IN_RANGE'
p391
S"<class 'gluon.validators.IS_FLOAT_IN_RANGE'>"
p392
sS'BEAUTIFY'
p393
S"<class 'gluon.html.BEAUTIFY'>"
p394
sS'TBODY'
p395
S"<class 'gluon.html.TBODY'>"
p396
sS'Field'
p397
S"<class 'gluon.dal.Field'>"
p398
sS'Mail'
p399
S"<class 'gluon.tools.Mail'>"
p400
sS'DIV'
p401
S"<class 'gluon.html.DIV'>"
p402
sS'LEGEND'
p403
S"<class 'gluon.html.LEGEND'>"
p404
sS'post_labels'
p405
S"{'post_category': 'Category', 'post_text': 'Post', 'post_text_TCode': 'Translation code (code & language texts must be set in the translation files)', 'post_time': 'Post Date', 'post_title': 'Title', 'post_type': 'Type', 'show_in_menu': 'Show in menu'}"
p406
sS'global_site_url'
p407
S"'http://localhost:8001'"
p408
sS'DAL'
p409
S"<class 'gluon.dal.DAL'>"
p410
sS'TT'
p411
S"<class 'gluon.html.TT'>"
p412
sS'TR'
p413
S"<class 'gluon.html.TR'>"
p414
sS'this_app_url'
p415
S"'http://localhost:8001/cms'"
p416
sS'LI'
p417
S"<class 'gluon.html.LI'>"
p418
sS'TH'
p419
S"<class 'gluon.html.TH'>"
p420
sS'TD'
p421
S"<class 'gluon.html.TD'>"
p422
sS'PluginManager'
p423
S"<class 'gluon.tools.PluginManager'>"
p424
sS'IS_URL'
p425
S"<class 'gluon.validators.IS_URL'>"
p426
sS'A'
S"<class 'gluon.html.A'>"
p427
sS'HEAD'
p428
S"<class 'gluon.html.HEAD'>"
p429
sS'IS_DATETIME_IN_RANGE'
p430
S"<class 'gluon.validators.IS_DATETIME_IN_RANGE'>"
p431
sS'HTML'
p432
S"<class 'gluon.html.HTML'>"
p433
sS'IS_IMAGE'
p434
S"<class 'gluon.validators.IS_IMAGE'>"
p435
sS'I'
S"<class 'gluon.html.I'>"
p436
sS'crud'
p437
S'<gluon.tools.Crud object at 0x93d6b6c>'
p438
sS'IS_NOT_IN_DB'
p439
S"<class 'gluon.validators.IS_NOT_IN_DB'>"
p440
sS'aConvert'
p441
S'<class __builtin__.aConvert at 0x95370bc>'
p442
sS'app_config'
p443
S'<Row {\'APP_METAS\': ["molhokwai.net - \'a\' cm/dms"...elete_record\': <function <lambda> at 0x924c3ac>}>'
p444
sg153
S"<Storage {'status': 200, 'body': <cStringIO.Stri...t': None, 'files': [], '_custom_rollback': None}>"
p445
sS'THEAD'
p446
S"<class 'gluon.html.THEAD'>"
p447
sS'IS_NULL_OR'
p448
S"<class 'gluon.validators.IS_EMPTY_OR'>"
p449
sg47
S"<Storage {'function': 'error', 'body': <cStringI... 15, 18, 12, 472156), 'post_vars': <Storage {}>}>"
p450
sS'IS_EXPR'
p451
S"<class 'gluon.validators.IS_EXPR'>"
p452
sS'RPXAccount'
p453
S"<class 'gluon.contrib.login_methods.rpx_account.RPXAccount'>"
p454
sS'IS_IN_SET'
p455
S"<class 'gluon.validators.IS_IN_SET'>"
p456
sS'IS_UPLOAD_FILENAME'
p457
S"<class 'gluon.validators.IS_UPLOAD_FILENAME'>"
p458
sS'IS_DECIMAL_IN_RANGE'
p459
S"<class 'gluon.validators.IS_DECIMAL_IN_RANGE'>"
p460
sS'T'
S'<gluon.languages.translator object at 0x930650c>'
p461
sssS'traceback'
p462
S'Traceback (most recent call last):\n  File "/home/herve/development/workspaces/molhokwai.net/web/gluon/restricted.py", line 188, in restricted\n    exec ccode in environment\n  File "/home/herve/development/workspaces/molhokwai.net/web/applications/cms/models/utilities.py", line 108, in <module>\n    app_objects=Struct({\'details\':app_details,\'config\':app_config})\nTypeError: __init__() takes exactly 1 argument (2 given)\n'
p463
s.